
hello_world.axf:     file format elf32-littlearm


Disassembly of section .text:

00000000 <__Vectors>:
       0:	00 f0 ff 1f 41 02 00 00 f1 02 00 00 e9 02 00 00     ....A...........
      10:	f1 02 00 00 f1 02 00 00 f1 02 00 00 00 00 00 00     ................
	...
      2c:	f1 02 00 00 f1 02 00 00 00 00 00 00 f1 02 00 00     ................
      3c:	f1 02 00 00 f1 02 00 00 f1 02 00 00 f1 02 00 00     ................
      4c:	f1 02 00 00 f1 02 00 00 f1 02 00 00 f1 02 00 00     ................
      5c:	f1 02 00 00 f1 02 00 00 f1 02 00 00 f1 02 00 00     ................
      6c:	f1 02 00 00 f1 02 00 00 f1 02 00 00 f1 02 00 00     ................
      7c:	f1 02 00 00 f1 02 00 00 f1 02 00 00 f1 02 00 00     ................
      8c:	f1 02 00 00 f1 02 00 00 f1 02 00 00 f1 02 00 00     ................
      9c:	f1 02 00 00 f1 02 00 00 f1 02 00 00 f1 02 00 00     ................
      ac:	f1 02 00 00 f1 02 00 00 f1 02 00 00 f1 02 00 00     ................
      bc:	f1 02 00 00 f1 02 00 00 f1 02 00 00 f1 02 00 00     ................
      cc:	f1 02 00 00 f1 02 00 00 f1 02 00 00 f1 02 00 00     ................
      dc:	f1 02 00 00 f1 02 00 00 f1 02 00 00 f1 02 00 00     ................
      ec:	f1 02 00 00 f1 02 00 00 f1 02 00 00 f1 02 00 00     ................
      fc:	f1 02 00 00 f1 02 00 00 f1 02 00 00 f1 02 00 00     ................
     10c:	f1 02 00 00 f1 02 00 00 f1 02 00 00 f1 02 00 00     ................
     11c:	f1 02 00 00 f1 02 00 00 f1 02 00 00 f1 02 00 00     ................
     12c:	f1 02 00 00 f1 02 00 00 f1 02 00 00 f1 02 00 00     ................
     13c:	f1 02 00 00 f1 02 00 00 f1 02 00 00 f1 02 00 00     ................
     14c:	f1 02 00 00 f1 02 00 00 f1 02 00 00 f1 02 00 00     ................
     15c:	f1 02 00 00 f1 02 00 00 f1 02 00 00 f1 02 00 00     ................
     16c:	f1 02 00 00 f1 02 00 00 f1 02 00 00 f1 02 00 00     ................
     17c:	f1 02 00 00 f1 02 00 00 f1 02 00 00 f1 02 00 00     ................
     18c:	f1 02 00 00 f1 02 00 00 f1 02 00 00 f1 02 00 00     ................
     19c:	f1 02 00 00 f1 02 00 00 f1 02 00 00 f1 02 00 00     ................
     1ac:	f1 02 00 00 f1 02 00 00 f1 02 00 00 f1 02 00 00     ................
     1bc:	f1 02 00 00 f1 02 00 00 f1 02 00 00 f1 02 00 00     ................
     1cc:	f1 02 00 00 f1 02 00 00 f1 02 00 00 f1 02 00 00     ................
     1dc:	f1 02 00 00 f1 02 00 00 f1 02 00 00 f1 02 00 00     ................
     1ec:	f1 02 00 00 f1 02 00 00 f1 02 00 00 f1 02 00 00     ................
     1fc:	f1 02 00 00 65 21 00 00 f1 02 00 00 f1 02 00 00     ....e!..........
     20c:	f1 02 00 00 f1 02 00 00 31 21 00 00 f1 02 00 00     ........1!......
     21c:	f1 02 00 00 f1 02 00 00 f1 02 00 00 f1 02 00 00     ................
     22c:	f1 02 00 00 f1 02 00 00 f1 02 00 00 f1 02 00 00     ................
     23c:	f1 02 00 00                                         ....

00000240 <Reset_Handler>:
     240:	b580      	push	{r7, lr}
     242:	b086      	sub	sp, #24
     244:	af00      	add	r7, sp, #0
     246:	4b23      	ldr	r3, [pc, #140]	@ (2d4 <Reset_Handler+0x94>)
     248:	607b      	str	r3, [r7, #4]
     24a:	687b      	ldr	r3, [r7, #4]
     24c:	f383 8809 	msr	PSP, r3
     250:	bf00      	nop
     252:	f000 f8fb 	bl	44c <SystemInit>
     256:	4b20      	ldr	r3, [pc, #128]	@ (2d8 <Reset_Handler+0x98>)
     258:	617b      	str	r3, [r7, #20]
     25a:	e019      	b.n	290 <Reset_Handler+0x50>
     25c:	2300      	movs	r3, #0
     25e:	613b      	str	r3, [r7, #16]
     260:	e00e      	b.n	280 <Reset_Handler+0x40>
     262:	697b      	ldr	r3, [r7, #20]
     264:	681a      	ldr	r2, [r3, #0]
     266:	693b      	ldr	r3, [r7, #16]
     268:	009b      	lsls	r3, r3, #2
     26a:	441a      	add	r2, r3
     26c:	697b      	ldr	r3, [r7, #20]
     26e:	6859      	ldr	r1, [r3, #4]
     270:	693b      	ldr	r3, [r7, #16]
     272:	009b      	lsls	r3, r3, #2
     274:	440b      	add	r3, r1
     276:	6812      	ldr	r2, [r2, #0]
     278:	601a      	str	r2, [r3, #0]
     27a:	693b      	ldr	r3, [r7, #16]
     27c:	3301      	adds	r3, #1
     27e:	613b      	str	r3, [r7, #16]
     280:	697b      	ldr	r3, [r7, #20]
     282:	689b      	ldr	r3, [r3, #8]
     284:	693a      	ldr	r2, [r7, #16]
     286:	429a      	cmp	r2, r3
     288:	d3eb      	bcc.n	262 <Reset_Handler+0x22>
     28a:	697b      	ldr	r3, [r7, #20]
     28c:	330c      	adds	r3, #12
     28e:	617b      	str	r3, [r7, #20]
     290:	697b      	ldr	r3, [r7, #20]
     292:	4a12      	ldr	r2, [pc, #72]	@ (2dc <Reset_Handler+0x9c>)
     294:	4293      	cmp	r3, r2
     296:	d3e1      	bcc.n	25c <Reset_Handler+0x1c>
     298:	4b11      	ldr	r3, [pc, #68]	@ (2e0 <Reset_Handler+0xa0>)
     29a:	60fb      	str	r3, [r7, #12]
     29c:	e014      	b.n	2c8 <Reset_Handler+0x88>
     29e:	2300      	movs	r3, #0
     2a0:	60bb      	str	r3, [r7, #8]
     2a2:	e009      	b.n	2b8 <Reset_Handler+0x78>
     2a4:	68fb      	ldr	r3, [r7, #12]
     2a6:	681a      	ldr	r2, [r3, #0]
     2a8:	68bb      	ldr	r3, [r7, #8]
     2aa:	009b      	lsls	r3, r3, #2
     2ac:	4413      	add	r3, r2
     2ae:	2200      	movs	r2, #0
     2b0:	601a      	str	r2, [r3, #0]
     2b2:	68bb      	ldr	r3, [r7, #8]
     2b4:	3301      	adds	r3, #1
     2b6:	60bb      	str	r3, [r7, #8]
     2b8:	68fb      	ldr	r3, [r7, #12]
     2ba:	685b      	ldr	r3, [r3, #4]
     2bc:	68ba      	ldr	r2, [r7, #8]
     2be:	429a      	cmp	r2, r3
     2c0:	d3f0      	bcc.n	2a4 <Reset_Handler+0x64>
     2c2:	68fb      	ldr	r3, [r7, #12]
     2c4:	3308      	adds	r3, #8
     2c6:	60fb      	str	r3, [r7, #12]
     2c8:	68fb      	ldr	r3, [r7, #12]
     2ca:	4a06      	ldr	r2, [pc, #24]	@ (2e4 <Reset_Handler+0xa4>)
     2cc:	4293      	cmp	r3, r2
     2ce:	d3e6      	bcc.n	29e <Reset_Handler+0x5e>
     2d0:	f007 f9c0 	bl	7654 <_mainCRTStartup>
     2d4:	1ffff000 	.word	0x1ffff000
     2d8:	000236c8 	.word	0x000236c8
     2dc:	000236d4 	.word	0x000236d4
     2e0:	000236d4 	.word	0x000236d4
     2e4:	000236d4 	.word	0x000236d4

000002e8 <HardFault_Handler>:
     2e8:	b480      	push	{r7}
     2ea:	af00      	add	r7, sp, #0
     2ec:	bf00      	nop
     2ee:	e7fd      	b.n	2ec <HardFault_Handler+0x4>

000002f0 <Default_Handler>:
     2f0:	b480      	push	{r7}
     2f2:	af00      	add	r7, sp, #0
     2f4:	bf00      	nop
     2f6:	e7fd      	b.n	2f4 <Default_Handler+0x4>

000002f8 <pdl_memclr>:
     2f8:	b480      	push	{r7}
     2fa:	b083      	sub	sp, #12
     2fc:	af00      	add	r7, sp, #0
     2fe:	6078      	str	r0, [r7, #4]
     300:	6039      	str	r1, [r7, #0]
     302:	e004      	b.n	30e <pdl_memclr+0x16>
     304:	687b      	ldr	r3, [r7, #4]
     306:	1c5a      	adds	r2, r3, #1
     308:	607a      	str	r2, [r7, #4]
     30a:	2200      	movs	r2, #0
     30c:	701a      	strb	r2, [r3, #0]
     30e:	683b      	ldr	r3, [r7, #0]
     310:	1e5a      	subs	r2, r3, #1
     312:	603a      	str	r2, [r7, #0]
     314:	2b00      	cmp	r3, #0
     316:	d1f5      	bne.n	304 <pdl_memclr+0xc>
     318:	bf00      	nop
     31a:	bf00      	nop
     31c:	370c      	adds	r7, #12
     31e:	46bd      	mov	sp, r7
     320:	f85d 7b04 	ldr.w	r7, [sp], #4
     324:	4770      	bx	lr
	...

00000328 <SystemCoreClockUpdate>:
     328:	b480      	push	{r7}
     32a:	b083      	sub	sp, #12
     32c:	af00      	add	r7, sp, #0
     32e:	4b42      	ldr	r3, [pc, #264]	@ (438 <__HEAP_SIZE+0x38>)
     330:	681b      	ldr	r3, [r3, #0]
     332:	095b      	lsrs	r3, r3, #5
     334:	f003 0307 	and.w	r3, r3, #7
     338:	2b05      	cmp	r3, #5
     33a:	d830      	bhi.n	39e <SystemCoreClockUpdate+0x76>
     33c:	a201      	add	r2, pc, #4	@ (adr r2, 344 <SystemCoreClockUpdate+0x1c>)
     33e:	f852 f023 	ldr.w	pc, [r2, r3, lsl #2]
     342:	bf00      	nop
     344:	0000035d 	.word	0x0000035d
     348:	00000363 	.word	0x00000363
     34c:	00000369 	.word	0x00000369
     350:	0000039f 	.word	0x0000039f
     354:	00000391 	.word	0x00000391
     358:	00000397 	.word	0x00000397
     35c:	4b37      	ldr	r3, [pc, #220]	@ (43c <__HEAP_SIZE+0x3c>)
     35e:	607b      	str	r3, [r7, #4]
     360:	e020      	b.n	3a4 <SystemCoreClockUpdate+0x7c>
     362:	4b36      	ldr	r3, [pc, #216]	@ (43c <__HEAP_SIZE+0x3c>)
     364:	607b      	str	r3, [r7, #4]
     366:	e01d      	b.n	3a4 <SystemCoreClockUpdate+0x7c>
     368:	4b33      	ldr	r3, [pc, #204]	@ (438 <__HEAP_SIZE+0x38>)
     36a:	6bdb      	ldr	r3, [r3, #60]	@ 0x3c
     36c:	f003 033f 	and.w	r3, r3, #63	@ 0x3f
     370:	3301      	adds	r3, #1
     372:	4a32      	ldr	r2, [pc, #200]	@ (43c <__HEAP_SIZE+0x3c>)
     374:	fb02 f303 	mul.w	r3, r2, r3
     378:	603b      	str	r3, [r7, #0]
     37a:	4b2f      	ldr	r3, [pc, #188]	@ (438 <__HEAP_SIZE+0x38>)
     37c:	6b9b      	ldr	r3, [r3, #56]	@ 0x38
     37e:	091b      	lsrs	r3, r3, #4
     380:	f003 030f 	and.w	r3, r3, #15
     384:	3301      	adds	r3, #1
     386:	683a      	ldr	r2, [r7, #0]
     388:	fbb2 f3f3 	udiv	r3, r2, r3
     38c:	607b      	str	r3, [r7, #4]
     38e:	e009      	b.n	3a4 <SystemCoreClockUpdate+0x7c>
     390:	4b2b      	ldr	r3, [pc, #172]	@ (440 <__HEAP_SIZE+0x40>)
     392:	607b      	str	r3, [r7, #4]
     394:	e006      	b.n	3a4 <SystemCoreClockUpdate+0x7c>
     396:	f44f 4300 	mov.w	r3, #32768	@ 0x8000
     39a:	607b      	str	r3, [r7, #4]
     39c:	e002      	b.n	3a4 <SystemCoreClockUpdate+0x7c>
     39e:	2300      	movs	r3, #0
     3a0:	607b      	str	r3, [r7, #4]
     3a2:	bf00      	nop
     3a4:	4b24      	ldr	r3, [pc, #144]	@ (438 <__HEAP_SIZE+0x38>)
     3a6:	691b      	ldr	r3, [r3, #16]
     3a8:	f003 0307 	and.w	r3, r3, #7
     3ac:	2b06      	cmp	r3, #6
     3ae:	d839      	bhi.n	424 <__HEAP_SIZE+0x24>
     3b0:	a201      	add	r2, pc, #4	@ (adr r2, 3b8 <SystemCoreClockUpdate+0x90>)
     3b2:	f852 f023 	ldr.w	pc, [r2, r3, lsl #2]
     3b6:	bf00      	nop
     3b8:	000003d5 	.word	0x000003d5
     3bc:	000003dd 	.word	0x000003dd
     3c0:	000003e7 	.word	0x000003e7
     3c4:	000003f7 	.word	0x000003f7
     3c8:	00000401 	.word	0x00000401
     3cc:	00000411 	.word	0x00000411
     3d0:	0000041b 	.word	0x0000041b
     3d4:	4a1b      	ldr	r2, [pc, #108]	@ (444 <__HEAP_SIZE+0x44>)
     3d6:	687b      	ldr	r3, [r7, #4]
     3d8:	6013      	str	r3, [r2, #0]
     3da:	e027      	b.n	42c <__HEAP_SIZE+0x2c>
     3dc:	687b      	ldr	r3, [r7, #4]
     3de:	085b      	lsrs	r3, r3, #1
     3e0:	4a18      	ldr	r2, [pc, #96]	@ (444 <__HEAP_SIZE+0x44>)
     3e2:	6013      	str	r3, [r2, #0]
     3e4:	e022      	b.n	42c <__HEAP_SIZE+0x2c>
     3e6:	687b      	ldr	r3, [r7, #4]
     3e8:	4a17      	ldr	r2, [pc, #92]	@ (448 <__HEAP_SIZE+0x48>)
     3ea:	fba2 2303 	umull	r2, r3, r2, r3
     3ee:	085b      	lsrs	r3, r3, #1
     3f0:	4a14      	ldr	r2, [pc, #80]	@ (444 <__HEAP_SIZE+0x44>)
     3f2:	6013      	str	r3, [r2, #0]
     3f4:	e01a      	b.n	42c <__HEAP_SIZE+0x2c>
     3f6:	687b      	ldr	r3, [r7, #4]
     3f8:	089b      	lsrs	r3, r3, #2
     3fa:	4a12      	ldr	r2, [pc, #72]	@ (444 <__HEAP_SIZE+0x44>)
     3fc:	6013      	str	r3, [r2, #0]
     3fe:	e015      	b.n	42c <__HEAP_SIZE+0x2c>
     400:	687b      	ldr	r3, [r7, #4]
     402:	4a11      	ldr	r2, [pc, #68]	@ (448 <__HEAP_SIZE+0x48>)
     404:	fba2 2303 	umull	r2, r3, r2, r3
     408:	089b      	lsrs	r3, r3, #2
     40a:	4a0e      	ldr	r2, [pc, #56]	@ (444 <__HEAP_SIZE+0x44>)
     40c:	6013      	str	r3, [r2, #0]
     40e:	e00d      	b.n	42c <__HEAP_SIZE+0x2c>
     410:	687b      	ldr	r3, [r7, #4]
     412:	08db      	lsrs	r3, r3, #3
     414:	4a0b      	ldr	r2, [pc, #44]	@ (444 <__HEAP_SIZE+0x44>)
     416:	6013      	str	r3, [r2, #0]
     418:	e008      	b.n	42c <__HEAP_SIZE+0x2c>
     41a:	687b      	ldr	r3, [r7, #4]
     41c:	091b      	lsrs	r3, r3, #4
     41e:	4a09      	ldr	r2, [pc, #36]	@ (444 <__HEAP_SIZE+0x44>)
     420:	6013      	str	r3, [r2, #0]
     422:	e003      	b.n	42c <__HEAP_SIZE+0x2c>
     424:	4b07      	ldr	r3, [pc, #28]	@ (444 <__HEAP_SIZE+0x44>)
     426:	2200      	movs	r2, #0
     428:	601a      	str	r2, [r3, #0]
     42a:	bf00      	nop
     42c:	bf00      	nop
     42e:	370c      	adds	r7, #12
     430:	46bd      	mov	sp, r7
     432:	f85d 7b04 	ldr.w	r7, [sp], #4
     436:	4770      	bx	lr
     438:	40010000 	.word	0x40010000
     43c:	003d0900 	.word	0x003d0900
     440:	000186a0 	.word	0x000186a0
     444:	1ffd0000 	.word	0x1ffd0000
     448:	aaaaaaab 	.word	0xaaaaaaab

0000044c <SystemInit>:
     44c:	b480      	push	{r7}
     44e:	af00      	add	r7, sp, #0
     450:	4b45      	ldr	r3, [pc, #276]	@ (568 <SystemInit+0x11c>)
     452:	4a46      	ldr	r2, [pc, #280]	@ (56c <SystemInit+0x120>)
     454:	f8c3 2c00 	str.w	r2, [r3, #3072]	@ 0xc00
     458:	4b43      	ldr	r3, [pc, #268]	@ (568 <SystemInit+0x11c>)
     45a:	4a45      	ldr	r2, [pc, #276]	@ (570 <SystemInit+0x124>)
     45c:	f8c3 2c00 	str.w	r2, [r3, #3072]	@ 0xc00
     460:	4b41      	ldr	r3, [pc, #260]	@ (568 <SystemInit+0x11c>)
     462:	2200      	movs	r2, #0
     464:	609a      	str	r2, [r3, #8]
     466:	4b43      	ldr	r3, [pc, #268]	@ (574 <SystemInit+0x128>)
     468:	f8d3 3088 	ldr.w	r3, [r3, #136]	@ 0x88
     46c:	4a41      	ldr	r2, [pc, #260]	@ (574 <SystemInit+0x128>)
     46e:	f443 0370 	orr.w	r3, r3, #15728640	@ 0xf00000
     472:	f8c2 3088 	str.w	r3, [r2, #136]	@ 0x88
     476:	f04f 4380 	mov.w	r3, #1073741824	@ 0x40000000
     47a:	2201      	movs	r2, #1
     47c:	615a      	str	r2, [r3, #20]
     47e:	bf00      	nop
     480:	f04f 4380 	mov.w	r3, #1073741824	@ 0x40000000
     484:	695b      	ldr	r3, [r3, #20]
     486:	f003 0302 	and.w	r3, r3, #2
     48a:	2b02      	cmp	r3, #2
     48c:	d1f8      	bne.n	480 <SystemInit+0x34>
     48e:	4b3a      	ldr	r3, [pc, #232]	@ (578 <SystemInit+0x12c>)
     490:	2200      	movs	r2, #0
     492:	611a      	str	r2, [r3, #16]
     494:	4b38      	ldr	r3, [pc, #224]	@ (578 <SystemInit+0x12c>)
     496:	2201      	movs	r2, #1
     498:	615a      	str	r2, [r3, #20]
     49a:	4b37      	ldr	r3, [pc, #220]	@ (578 <SystemInit+0x12c>)
     49c:	2280      	movs	r2, #128	@ 0x80
     49e:	619a      	str	r2, [r3, #24]
     4a0:	4b35      	ldr	r3, [pc, #212]	@ (578 <SystemInit+0x12c>)
     4a2:	2281      	movs	r2, #129	@ 0x81
     4a4:	61da      	str	r2, [r3, #28]
     4a6:	4b34      	ldr	r3, [pc, #208]	@ (578 <SystemInit+0x12c>)
     4a8:	2283      	movs	r2, #131	@ 0x83
     4aa:	621a      	str	r2, [r3, #32]
     4ac:	4b32      	ldr	r3, [pc, #200]	@ (578 <SystemInit+0x12c>)
     4ae:	2200      	movs	r2, #0
     4b0:	629a      	str	r2, [r3, #40]	@ 0x28
     4b2:	4b31      	ldr	r3, [pc, #196]	@ (578 <SystemInit+0x12c>)
     4b4:	225c      	movs	r2, #92	@ 0x5c
     4b6:	631a      	str	r2, [r3, #48]	@ 0x30
     4b8:	4b2f      	ldr	r3, [pc, #188]	@ (578 <SystemInit+0x12c>)
     4ba:	681b      	ldr	r3, [r3, #0]
     4bc:	4a2e      	ldr	r2, [pc, #184]	@ (578 <SystemInit+0x12c>)
     4be:	f043 0302 	orr.w	r3, r3, #2
     4c2:	6013      	str	r3, [r2, #0]
     4c4:	bf00      	nop
     4c6:	4b2c      	ldr	r3, [pc, #176]	@ (578 <SystemInit+0x12c>)
     4c8:	685b      	ldr	r3, [r3, #4]
     4ca:	f003 0302 	and.w	r3, r3, #2
     4ce:	2b00      	cmp	r3, #0
     4d0:	d0f9      	beq.n	4c6 <SystemInit+0x7a>
     4d2:	4b29      	ldr	r3, [pc, #164]	@ (578 <SystemInit+0x12c>)
     4d4:	2200      	movs	r2, #0
     4d6:	635a      	str	r2, [r3, #52]	@ 0x34
     4d8:	4b27      	ldr	r3, [pc, #156]	@ (578 <SystemInit+0x12c>)
     4da:	2201      	movs	r2, #1
     4dc:	639a      	str	r2, [r3, #56]	@ 0x38
     4de:	4b26      	ldr	r3, [pc, #152]	@ (578 <SystemInit+0x12c>)
     4e0:	2231      	movs	r2, #49	@ 0x31
     4e2:	63da      	str	r2, [r3, #60]	@ 0x3c
     4e4:	4b24      	ldr	r3, [pc, #144]	@ (578 <SystemInit+0x12c>)
     4e6:	681b      	ldr	r3, [r3, #0]
     4e8:	4a23      	ldr	r2, [pc, #140]	@ (578 <SystemInit+0x12c>)
     4ea:	f043 0310 	orr.w	r3, r3, #16
     4ee:	6013      	str	r3, [r2, #0]
     4f0:	bf00      	nop
     4f2:	4b21      	ldr	r3, [pc, #132]	@ (578 <SystemInit+0x12c>)
     4f4:	685b      	ldr	r3, [r3, #4]
     4f6:	f003 0310 	and.w	r3, r3, #16
     4fa:	2b00      	cmp	r3, #0
     4fc:	d0f9      	beq.n	4f2 <SystemInit+0xa6>
     4fe:	4b1e      	ldr	r3, [pc, #120]	@ (578 <SystemInit+0x12c>)
     500:	681b      	ldr	r3, [r3, #0]
     502:	4a1d      	ldr	r2, [pc, #116]	@ (578 <SystemInit+0x12c>)
     504:	f043 0340 	orr.w	r3, r3, #64	@ 0x40
     508:	6013      	str	r3, [r2, #0]
     50a:	4b1b      	ldr	r3, [pc, #108]	@ (578 <SystemInit+0x12c>)
     50c:	681b      	ldr	r3, [r3, #0]
     50e:	f003 03e0 	and.w	r3, r3, #224	@ 0xe0
     512:	4a1a      	ldr	r2, [pc, #104]	@ (57c <SystemInit+0x130>)
     514:	6013      	str	r3, [r2, #0]
     516:	4b18      	ldr	r3, [pc, #96]	@ (578 <SystemInit+0x12c>)
     518:	685b      	ldr	r3, [r3, #4]
     51a:	f003 02e0 	and.w	r2, r3, #224	@ 0xe0
     51e:	4b17      	ldr	r3, [pc, #92]	@ (57c <SystemInit+0x130>)
     520:	681b      	ldr	r3, [r3, #0]
     522:	429a      	cmp	r2, r3
     524:	d1f1      	bne.n	50a <SystemInit+0xbe>
     526:	f04f 4380 	mov.w	r3, #1073741824	@ 0x40000000
     52a:	f8d3 2100 	ldr.w	r2, [r3, #256]	@ 0x100
     52e:	4b14      	ldr	r3, [pc, #80]	@ (580 <SystemInit+0x134>)
     530:	4013      	ands	r3, r2
     532:	4a13      	ldr	r2, [pc, #76]	@ (580 <SystemInit+0x134>)
     534:	4293      	cmp	r3, r2
     536:	d012      	beq.n	55e <SystemInit+0x112>
     538:	4b12      	ldr	r3, [pc, #72]	@ (584 <SystemInit+0x138>)
     53a:	4a13      	ldr	r2, [pc, #76]	@ (588 <SystemInit+0x13c>)
     53c:	60da      	str	r2, [r3, #12]
     53e:	f04f 4380 	mov.w	r3, #1073741824	@ 0x40000000
     542:	f8d3 3100 	ldr.w	r3, [r3, #256]	@ 0x100
     546:	4a0f      	ldr	r2, [pc, #60]	@ (584 <SystemInit+0x138>)
     548:	0c1b      	lsrs	r3, r3, #16
     54a:	6093      	str	r3, [r2, #8]
     54c:	f04f 4380 	mov.w	r3, #1073741824	@ 0x40000000
     550:	4a0c      	ldr	r2, [pc, #48]	@ (584 <SystemInit+0x138>)
     552:	f8d3 3100 	ldr.w	r3, [r3, #256]	@ 0x100
     556:	6053      	str	r3, [r2, #4]
     558:	4b0a      	ldr	r3, [pc, #40]	@ (584 <SystemInit+0x138>)
     55a:	2200      	movs	r2, #0
     55c:	60da      	str	r2, [r3, #12]
     55e:	bf00      	nop
     560:	46bd      	mov	sp, r7
     562:	f85d 7b04 	ldr.w	r7, [sp], #4
     566:	4770      	bx	lr
     568:	40011000 	.word	0x40011000
     56c:	1acce551 	.word	0x1acce551
     570:	e5331aae 	.word	0xe5331aae
     574:	e000ed00 	.word	0xe000ed00
     578:	40010000 	.word	0x40010000
     57c:	1ffd0b94 	.word	0x1ffd0b94
     580:	001f03ff 	.word	0x001f03ff
     584:	4002e000 	.word	0x4002e000
     588:	1acce554 	.word	0x1acce554

0000058c <MfsUartGetInternDataPtr>:
     58c:	b480      	push	{r7}
     58e:	b085      	sub	sp, #20
     590:	af00      	add	r7, sp, #0
     592:	6078      	str	r0, [r7, #4]
     594:	2300      	movs	r3, #0
     596:	60fb      	str	r3, [r7, #12]
     598:	687b      	ldr	r3, [r7, #4]
     59a:	2b00      	cmp	r3, #0
     59c:	d01d      	beq.n	5da <MfsUartGetInternDataPtr+0x4e>
     59e:	2300      	movs	r3, #0
     5a0:	60bb      	str	r3, [r7, #8]
     5a2:	e017      	b.n	5d4 <MfsUartGetInternDataPtr+0x48>
     5a4:	4910      	ldr	r1, [pc, #64]	@ (5e8 <MfsUartGetInternDataPtr+0x5c>)
     5a6:	68ba      	ldr	r2, [r7, #8]
     5a8:	4613      	mov	r3, r2
     5aa:	00db      	lsls	r3, r3, #3
     5ac:	4413      	add	r3, r2
     5ae:	009b      	lsls	r3, r3, #2
     5b0:	440b      	add	r3, r1
     5b2:	681b      	ldr	r3, [r3, #0]
     5b4:	687a      	ldr	r2, [r7, #4]
     5b6:	429a      	cmp	r2, r3
     5b8:	d109      	bne.n	5ce <MfsUartGetInternDataPtr+0x42>
     5ba:	68ba      	ldr	r2, [r7, #8]
     5bc:	4613      	mov	r3, r2
     5be:	00db      	lsls	r3, r3, #3
     5c0:	4413      	add	r3, r2
     5c2:	009b      	lsls	r3, r3, #2
     5c4:	3308      	adds	r3, #8
     5c6:	4a08      	ldr	r2, [pc, #32]	@ (5e8 <MfsUartGetInternDataPtr+0x5c>)
     5c8:	4413      	add	r3, r2
     5ca:	60fb      	str	r3, [r7, #12]
     5cc:	e005      	b.n	5da <MfsUartGetInternDataPtr+0x4e>
     5ce:	68bb      	ldr	r3, [r7, #8]
     5d0:	3301      	adds	r3, #1
     5d2:	60bb      	str	r3, [r7, #8]
     5d4:	68bb      	ldr	r3, [r7, #8]
     5d6:	2b01      	cmp	r3, #1
     5d8:	d9e4      	bls.n	5a4 <MfsUartGetInternDataPtr+0x18>
     5da:	68fb      	ldr	r3, [r7, #12]
     5dc:	4618      	mov	r0, r3
     5de:	3714      	adds	r7, #20
     5e0:	46bd      	mov	sp, r7
     5e2:	f85d 7b04 	ldr.w	r7, [sp], #4
     5e6:	4770      	bx	lr
     5e8:	1ffd0004 	.word	0x1ffd0004

000005ec <Mfs_Uart_Init>:
     5ec:	b580      	push	{r7, lr}
     5ee:	b086      	sub	sp, #24
     5f0:	af00      	add	r7, sp, #0
     5f2:	6078      	str	r0, [r7, #4]
     5f4:	6039      	str	r1, [r7, #0]
     5f6:	f107 0310 	add.w	r3, r7, #16
     5fa:	2101      	movs	r1, #1
     5fc:	4618      	mov	r0, r3
     5fe:	f7ff fe7b 	bl	2f8 <pdl_memclr>
     602:	f107 030c 	add.w	r3, r7, #12
     606:	2101      	movs	r1, #1
     608:	4618      	mov	r0, r3
     60a:	f7ff fe75 	bl	2f8 <pdl_memclr>
     60e:	f107 0308 	add.w	r3, r7, #8
     612:	2101      	movs	r1, #1
     614:	4618      	mov	r0, r3
     616:	f7ff fe6f 	bl	2f8 <pdl_memclr>
     61a:	6878      	ldr	r0, [r7, #4]
     61c:	f7ff ffb6 	bl	58c <MfsUartGetInternDataPtr>
     620:	6178      	str	r0, [r7, #20]
     622:	697b      	ldr	r3, [r7, #20]
     624:	2b00      	cmp	r3, #0
     626:	d002      	beq.n	62e <Mfs_Uart_Init+0x42>
     628:	683b      	ldr	r3, [r7, #0]
     62a:	2b00      	cmp	r3, #0
     62c:	d101      	bne.n	632 <Mfs_Uart_Init+0x46>
     62e:	2304      	movs	r3, #4
     630:	e140      	b.n	8b4 <Mfs_Uart_Init+0x2c8>
     632:	687b      	ldr	r3, [r7, #4]
     634:	f103 4340 	add.w	r3, r3, #3221225472	@ 0xc0000000
     638:	f5a3 3360 	sub.w	r3, r3, #229376	@ 0x38000
     63c:	0a1b      	lsrs	r3, r3, #8
     63e:	74fb      	strb	r3, [r7, #19]
     640:	7cfb      	ldrb	r3, [r7, #19]
     642:	2b0f      	cmp	r3, #15
     644:	d901      	bls.n	64a <Mfs_Uart_Init+0x5e>
     646:	2304      	movs	r3, #4
     648:	e134      	b.n	8b4 <Mfs_Uart_Init+0x2c8>
     64a:	697b      	ldr	r3, [r7, #20]
     64c:	2201      	movs	r2, #1
     64e:	701a      	strb	r2, [r3, #0]
     650:	683b      	ldr	r3, [r7, #0]
     652:	781b      	ldrb	r3, [r3, #0]
     654:	2b00      	cmp	r3, #0
     656:	d002      	beq.n	65e <Mfs_Uart_Init+0x72>
     658:	2b01      	cmp	r3, #1
     65a:	d005      	beq.n	668 <Mfs_Uart_Init+0x7c>
     65c:	e00a      	b.n	674 <Mfs_Uart_Init+0x88>
     65e:	7c3b      	ldrb	r3, [r7, #16]
     660:	f023 03e0 	bic.w	r3, r3, #224	@ 0xe0
     664:	743b      	strb	r3, [r7, #16]
     666:	e007      	b.n	678 <Mfs_Uart_Init+0x8c>
     668:	7c3b      	ldrb	r3, [r7, #16]
     66a:	2201      	movs	r2, #1
     66c:	f362 1347 	bfi	r3, r2, #5, #3
     670:	743b      	strb	r3, [r7, #16]
     672:	e001      	b.n	678 <Mfs_Uart_Init+0x8c>
     674:	2304      	movs	r3, #4
     676:	e11d      	b.n	8b4 <Mfs_Uart_Init+0x2c8>
     678:	7c3b      	ldrb	r3, [r7, #16]
     67a:	f043 0301 	orr.w	r3, r3, #1
     67e:	743b      	strb	r3, [r7, #16]
     680:	683b      	ldr	r3, [r7, #0]
     682:	7a1b      	ldrb	r3, [r3, #8]
     684:	2b03      	cmp	r3, #3
     686:	d018      	beq.n	6ba <Mfs_Uart_Init+0xce>
     688:	2b03      	cmp	r3, #3
     68a:	dc1f      	bgt.n	6cc <Mfs_Uart_Init+0xe0>
     68c:	2b00      	cmp	r3, #0
     68e:	d002      	beq.n	696 <Mfs_Uart_Init+0xaa>
     690:	2b02      	cmp	r3, #2
     692:	d009      	beq.n	6a8 <Mfs_Uart_Init+0xbc>
     694:	e01a      	b.n	6cc <Mfs_Uart_Init+0xe0>
     696:	7a3b      	ldrb	r3, [r7, #8]
     698:	f023 0308 	bic.w	r3, r3, #8
     69c:	723b      	strb	r3, [r7, #8]
     69e:	7a3b      	ldrb	r3, [r7, #8]
     6a0:	f023 0310 	bic.w	r3, r3, #16
     6a4:	723b      	strb	r3, [r7, #8]
     6a6:	e013      	b.n	6d0 <Mfs_Uart_Init+0xe4>
     6a8:	7a3b      	ldrb	r3, [r7, #8]
     6aa:	f023 0308 	bic.w	r3, r3, #8
     6ae:	723b      	strb	r3, [r7, #8]
     6b0:	7a3b      	ldrb	r3, [r7, #8]
     6b2:	f043 0310 	orr.w	r3, r3, #16
     6b6:	723b      	strb	r3, [r7, #8]
     6b8:	e00a      	b.n	6d0 <Mfs_Uart_Init+0xe4>
     6ba:	7a3b      	ldrb	r3, [r7, #8]
     6bc:	f043 0308 	orr.w	r3, r3, #8
     6c0:	723b      	strb	r3, [r7, #8]
     6c2:	7a3b      	ldrb	r3, [r7, #8]
     6c4:	f043 0310 	orr.w	r3, r3, #16
     6c8:	723b      	strb	r3, [r7, #8]
     6ca:	e001      	b.n	6d0 <Mfs_Uart_Init+0xe4>
     6cc:	2304      	movs	r3, #4
     6ce:	e0f1      	b.n	8b4 <Mfs_Uart_Init+0x2c8>
     6d0:	683b      	ldr	r3, [r7, #0]
     6d2:	7a5b      	ldrb	r3, [r3, #9]
     6d4:	2b03      	cmp	r3, #3
     6d6:	d82f      	bhi.n	738 <Mfs_Uart_Init+0x14c>
     6d8:	a201      	add	r2, pc, #4	@ (adr r2, 6e0 <Mfs_Uart_Init+0xf4>)
     6da:	f852 f023 	ldr.w	pc, [r2, r3, lsl #2]
     6de:	bf00      	nop
     6e0:	000006f1 	.word	0x000006f1
     6e4:	00000703 	.word	0x00000703
     6e8:	00000715 	.word	0x00000715
     6ec:	00000727 	.word	0x00000727
     6f0:	7c3b      	ldrb	r3, [r7, #16]
     6f2:	f023 0308 	bic.w	r3, r3, #8
     6f6:	743b      	strb	r3, [r7, #16]
     6f8:	7a3b      	ldrb	r3, [r7, #8]
     6fa:	f023 0340 	bic.w	r3, r3, #64	@ 0x40
     6fe:	723b      	strb	r3, [r7, #8]
     700:	e01c      	b.n	73c <Mfs_Uart_Init+0x150>
     702:	7c3b      	ldrb	r3, [r7, #16]
     704:	f043 0308 	orr.w	r3, r3, #8
     708:	743b      	strb	r3, [r7, #16]
     70a:	7a3b      	ldrb	r3, [r7, #8]
     70c:	f023 0340 	bic.w	r3, r3, #64	@ 0x40
     710:	723b      	strb	r3, [r7, #8]
     712:	e013      	b.n	73c <Mfs_Uart_Init+0x150>
     714:	7c3b      	ldrb	r3, [r7, #16]
     716:	f023 0308 	bic.w	r3, r3, #8
     71a:	743b      	strb	r3, [r7, #16]
     71c:	7a3b      	ldrb	r3, [r7, #8]
     71e:	f043 0340 	orr.w	r3, r3, #64	@ 0x40
     722:	723b      	strb	r3, [r7, #8]
     724:	e00a      	b.n	73c <Mfs_Uart_Init+0x150>
     726:	7c3b      	ldrb	r3, [r7, #16]
     728:	f043 0308 	orr.w	r3, r3, #8
     72c:	743b      	strb	r3, [r7, #16]
     72e:	7a3b      	ldrb	r3, [r7, #8]
     730:	f043 0340 	orr.w	r3, r3, #64	@ 0x40
     734:	723b      	strb	r3, [r7, #8]
     736:	e001      	b.n	73c <Mfs_Uart_Init+0x150>
     738:	2304      	movs	r3, #4
     73a:	e0bb      	b.n	8b4 <Mfs_Uart_Init+0x2c8>
     73c:	683b      	ldr	r3, [r7, #0]
     73e:	7a9b      	ldrb	r3, [r3, #10]
     740:	2b04      	cmp	r3, #4
     742:	d82a      	bhi.n	79a <Mfs_Uart_Init+0x1ae>
     744:	a201      	add	r2, pc, #4	@ (adr r2, 74c <Mfs_Uart_Init+0x160>)
     746:	f852 f023 	ldr.w	pc, [r2, r3, lsl #2]
     74a:	bf00      	nop
     74c:	00000785 	.word	0x00000785
     750:	00000761 	.word	0x00000761
     754:	0000076d 	.word	0x0000076d
     758:	00000779 	.word	0x00000779
     75c:	0000078f 	.word	0x0000078f
     760:	7a3b      	ldrb	r3, [r7, #8]
     762:	2201      	movs	r2, #1
     764:	f362 0302 	bfi	r3, r2, #0, #3
     768:	723b      	strb	r3, [r7, #8]
     76a:	e018      	b.n	79e <Mfs_Uart_Init+0x1b2>
     76c:	7a3b      	ldrb	r3, [r7, #8]
     76e:	2202      	movs	r2, #2
     770:	f362 0302 	bfi	r3, r2, #0, #3
     774:	723b      	strb	r3, [r7, #8]
     776:	e012      	b.n	79e <Mfs_Uart_Init+0x1b2>
     778:	7a3b      	ldrb	r3, [r7, #8]
     77a:	2203      	movs	r2, #3
     77c:	f362 0302 	bfi	r3, r2, #0, #3
     780:	723b      	strb	r3, [r7, #8]
     782:	e00c      	b.n	79e <Mfs_Uart_Init+0x1b2>
     784:	7a3b      	ldrb	r3, [r7, #8]
     786:	f023 0307 	bic.w	r3, r3, #7
     78a:	723b      	strb	r3, [r7, #8]
     78c:	e007      	b.n	79e <Mfs_Uart_Init+0x1b2>
     78e:	7a3b      	ldrb	r3, [r7, #8]
     790:	2204      	movs	r2, #4
     792:	f362 0302 	bfi	r3, r2, #0, #3
     796:	723b      	strb	r3, [r7, #8]
     798:	e001      	b.n	79e <Mfs_Uart_Init+0x1b2>
     79a:	2304      	movs	r3, #4
     79c:	e08a      	b.n	8b4 <Mfs_Uart_Init+0x2c8>
     79e:	683b      	ldr	r3, [r7, #0]
     7a0:	7adb      	ldrb	r3, [r3, #11]
     7a2:	2b00      	cmp	r3, #0
     7a4:	d002      	beq.n	7ac <Mfs_Uart_Init+0x1c0>
     7a6:	2b01      	cmp	r3, #1
     7a8:	d005      	beq.n	7b6 <Mfs_Uart_Init+0x1ca>
     7aa:	e009      	b.n	7c0 <Mfs_Uart_Init+0x1d4>
     7ac:	7c3b      	ldrb	r3, [r7, #16]
     7ae:	f023 0304 	bic.w	r3, r3, #4
     7b2:	743b      	strb	r3, [r7, #16]
     7b4:	e006      	b.n	7c4 <Mfs_Uart_Init+0x1d8>
     7b6:	7c3b      	ldrb	r3, [r7, #16]
     7b8:	f043 0304 	orr.w	r3, r3, #4
     7bc:	743b      	strb	r3, [r7, #16]
     7be:	e001      	b.n	7c4 <Mfs_Uart_Init+0x1d8>
     7c0:	2304      	movs	r3, #4
     7c2:	e077      	b.n	8b4 <Mfs_Uart_Init+0x2c8>
     7c4:	683b      	ldr	r3, [r7, #0]
     7c6:	7b5b      	ldrb	r3, [r3, #13]
     7c8:	2b01      	cmp	r3, #1
     7ca:	d104      	bne.n	7d6 <Mfs_Uart_Init+0x1ea>
     7cc:	7a3b      	ldrb	r3, [r7, #8]
     7ce:	f043 0380 	orr.w	r3, r3, #128	@ 0x80
     7d2:	723b      	strb	r3, [r7, #8]
     7d4:	e003      	b.n	7de <Mfs_Uart_Init+0x1f2>
     7d6:	7a3b      	ldrb	r3, [r7, #8]
     7d8:	f023 0380 	bic.w	r3, r3, #128	@ 0x80
     7dc:	723b      	strb	r3, [r7, #8]
     7de:	683b      	ldr	r3, [r7, #0]
     7e0:	7b1b      	ldrb	r3, [r3, #12]
     7e2:	2b01      	cmp	r3, #1
     7e4:	d104      	bne.n	7f0 <Mfs_Uart_Init+0x204>
     7e6:	7a3b      	ldrb	r3, [r7, #8]
     7e8:	f043 0320 	orr.w	r3, r3, #32
     7ec:	723b      	strb	r3, [r7, #8]
     7ee:	e003      	b.n	7f8 <Mfs_Uart_Init+0x20c>
     7f0:	7a3b      	ldrb	r3, [r7, #8]
     7f2:	f023 0320 	bic.w	r3, r3, #32
     7f6:	723b      	strb	r3, [r7, #8]
     7f8:	687a      	ldr	r2, [r7, #4]
     7fa:	7853      	ldrb	r3, [r2, #1]
     7fc:	f043 0380 	orr.w	r3, r3, #128	@ 0x80
     800:	7053      	strb	r3, [r2, #1]
     802:	683b      	ldr	r3, [r7, #0]
     804:	685b      	ldr	r3, [r3, #4]
     806:	4619      	mov	r1, r3
     808:	6878      	ldr	r0, [r7, #4]
     80a:	f000 f857 	bl	8bc <Mfs_Uart_SetBaudRate>
     80e:	687b      	ldr	r3, [r7, #4]
     810:	7c3a      	ldrb	r2, [r7, #16]
     812:	701a      	strb	r2, [r3, #0]
     814:	687b      	ldr	r3, [r7, #4]
     816:	7b3a      	ldrb	r2, [r7, #12]
     818:	705a      	strb	r2, [r3, #1]
     81a:	687b      	ldr	r3, [r7, #4]
     81c:	7a3a      	ldrb	r2, [r7, #8]
     81e:	711a      	strb	r2, [r3, #4]
     820:	683b      	ldr	r3, [r7, #0]
     822:	7b9b      	ldrb	r3, [r3, #14]
     824:	2b01      	cmp	r3, #1
     826:	d101      	bne.n	82c <Mfs_Uart_Init+0x240>
     828:	2101      	movs	r1, #1
     82a:	e000      	b.n	82e <Mfs_Uart_Init+0x242>
     82c:	2100      	movs	r1, #0
     82e:	687a      	ldr	r2, [r7, #4]
     830:	8993      	ldrh	r3, [r2, #12]
     832:	f361 33cf 	bfi	r3, r1, #15, #1
     836:	8193      	strh	r3, [r2, #12]
     838:	683b      	ldr	r3, [r7, #0]
     83a:	691b      	ldr	r3, [r3, #16]
     83c:	2b00      	cmp	r3, #0
     83e:	d038      	beq.n	8b2 <Mfs_Uart_Init+0x2c6>
     840:	687a      	ldr	r2, [r7, #4]
     842:	8a93      	ldrh	r3, [r2, #20]
     844:	f043 0304 	orr.w	r3, r3, #4
     848:	8293      	strh	r3, [r2, #20]
     84a:	687a      	ldr	r2, [r7, #4]
     84c:	8a93      	ldrh	r3, [r2, #20]
     84e:	f043 0308 	orr.w	r3, r3, #8
     852:	8293      	strh	r3, [r2, #20]
     854:	687a      	ldr	r2, [r7, #4]
     856:	8a93      	ldrh	r3, [r2, #20]
     858:	f443 6300 	orr.w	r3, r3, #2048	@ 0x800
     85c:	8293      	strh	r3, [r2, #20]
     85e:	683b      	ldr	r3, [r7, #0]
     860:	691b      	ldr	r3, [r3, #16]
     862:	781b      	ldrb	r3, [r3, #0]
     864:	2b00      	cmp	r3, #0
     866:	d002      	beq.n	86e <Mfs_Uart_Init+0x282>
     868:	2b01      	cmp	r3, #1
     86a:	d006      	beq.n	87a <Mfs_Uart_Init+0x28e>
     86c:	e00b      	b.n	886 <Mfs_Uart_Init+0x29a>
     86e:	687a      	ldr	r2, [r7, #4]
     870:	8a93      	ldrh	r3, [r2, #20]
     872:	f423 7380 	bic.w	r3, r3, #256	@ 0x100
     876:	8293      	strh	r3, [r2, #20]
     878:	e007      	b.n	88a <Mfs_Uart_Init+0x29e>
     87a:	687a      	ldr	r2, [r7, #4]
     87c:	8a93      	ldrh	r3, [r2, #20]
     87e:	f443 7380 	orr.w	r3, r3, #256	@ 0x100
     882:	8293      	strh	r3, [r2, #20]
     884:	e001      	b.n	88a <Mfs_Uart_Init+0x29e>
     886:	2304      	movs	r3, #4
     888:	e014      	b.n	8b4 <Mfs_Uart_Init+0x2c8>
     88a:	683b      	ldr	r3, [r7, #0]
     88c:	691b      	ldr	r3, [r3, #16]
     88e:	785a      	ldrb	r2, [r3, #1]
     890:	687b      	ldr	r3, [r7, #4]
     892:	761a      	strb	r2, [r3, #24]
     894:	683b      	ldr	r3, [r7, #0]
     896:	691b      	ldr	r3, [r3, #16]
     898:	789a      	ldrb	r2, [r3, #2]
     89a:	687b      	ldr	r3, [r7, #4]
     89c:	765a      	strb	r2, [r3, #25]
     89e:	687a      	ldr	r2, [r7, #4]
     8a0:	8a93      	ldrh	r3, [r2, #20]
     8a2:	f043 0301 	orr.w	r3, r3, #1
     8a6:	8293      	strh	r3, [r2, #20]
     8a8:	687a      	ldr	r2, [r7, #4]
     8aa:	8a93      	ldrh	r3, [r2, #20]
     8ac:	f043 0302 	orr.w	r3, r3, #2
     8b0:	8293      	strh	r3, [r2, #20]
     8b2:	2300      	movs	r3, #0
     8b4:	4618      	mov	r0, r3
     8b6:	3718      	adds	r7, #24
     8b8:	46bd      	mov	sp, r7
     8ba:	bd80      	pop	{r7, pc}

000008bc <Mfs_Uart_SetBaudRate>:
     8bc:	b580      	push	{r7, lr}
     8be:	b084      	sub	sp, #16
     8c0:	af00      	add	r7, sp, #0
     8c2:	6078      	str	r0, [r7, #4]
     8c4:	6039      	str	r1, [r7, #0]
     8c6:	f7ff fd2f 	bl	328 <SystemCoreClockUpdate>
     8ca:	687b      	ldr	r3, [r7, #4]
     8cc:	2b00      	cmp	r3, #0
     8ce:	d002      	beq.n	8d6 <Mfs_Uart_SetBaudRate+0x1a>
     8d0:	683b      	ldr	r3, [r7, #0]
     8d2:	2b03      	cmp	r3, #3
     8d4:	d801      	bhi.n	8da <Mfs_Uart_SetBaudRate+0x1e>
     8d6:	2304      	movs	r3, #4
     8d8:	e018      	b.n	90c <Mfs_Uart_SetBaudRate+0x50>
     8da:	4b0e      	ldr	r3, [pc, #56]	@ (914 <Mfs_Uart_SetBaudRate+0x58>)
     8dc:	681a      	ldr	r2, [r3, #0]
     8de:	4b0e      	ldr	r3, [pc, #56]	@ (918 <Mfs_Uart_SetBaudRate+0x5c>)
     8e0:	69db      	ldr	r3, [r3, #28]
     8e2:	f003 0303 	and.w	r3, r3, #3
     8e6:	fa22 f303 	lsr.w	r3, r2, r3
     8ea:	60fb      	str	r3, [r7, #12]
     8ec:	68fa      	ldr	r2, [r7, #12]
     8ee:	683b      	ldr	r3, [r7, #0]
     8f0:	fbb2 f3f3 	udiv	r3, r2, r3
     8f4:	b29b      	uxth	r3, r3
     8f6:	3b01      	subs	r3, #1
     8f8:	b29b      	uxth	r3, r3
     8fa:	f3c3 030e 	ubfx	r3, r3, #0, #15
     8fe:	b299      	uxth	r1, r3
     900:	687a      	ldr	r2, [r7, #4]
     902:	8993      	ldrh	r3, [r2, #12]
     904:	f361 030e 	bfi	r3, r1, #0, #15
     908:	8193      	strh	r3, [r2, #12]
     90a:	2300      	movs	r3, #0
     90c:	4618      	mov	r0, r3
     90e:	3710      	adds	r7, #16
     910:	46bd      	mov	sp, r7
     912:	bd80      	pop	{r7, pc}
     914:	1ffd0000 	.word	0x1ffd0000
     918:	40010000 	.word	0x40010000

0000091c <Mfs_Uart_EnableFunc>:
     91c:	b480      	push	{r7}
     91e:	b083      	sub	sp, #12
     920:	af00      	add	r7, sp, #0
     922:	6078      	str	r0, [r7, #4]
     924:	460b      	mov	r3, r1
     926:	70fb      	strb	r3, [r7, #3]
     928:	687b      	ldr	r3, [r7, #4]
     92a:	2b00      	cmp	r3, #0
     92c:	d101      	bne.n	932 <Mfs_Uart_EnableFunc+0x16>
     92e:	2304      	movs	r3, #4
     930:	e014      	b.n	95c <Mfs_Uart_EnableFunc+0x40>
     932:	78fb      	ldrb	r3, [r7, #3]
     934:	2b00      	cmp	r3, #0
     936:	d002      	beq.n	93e <Mfs_Uart_EnableFunc+0x22>
     938:	2b01      	cmp	r3, #1
     93a:	d006      	beq.n	94a <Mfs_Uart_EnableFunc+0x2e>
     93c:	e00b      	b.n	956 <Mfs_Uart_EnableFunc+0x3a>
     93e:	687a      	ldr	r2, [r7, #4]
     940:	7853      	ldrb	r3, [r2, #1]
     942:	f043 0301 	orr.w	r3, r3, #1
     946:	7053      	strb	r3, [r2, #1]
     948:	e007      	b.n	95a <Mfs_Uart_EnableFunc+0x3e>
     94a:	687a      	ldr	r2, [r7, #4]
     94c:	7853      	ldrb	r3, [r2, #1]
     94e:	f043 0302 	orr.w	r3, r3, #2
     952:	7053      	strb	r3, [r2, #1]
     954:	e001      	b.n	95a <Mfs_Uart_EnableFunc+0x3e>
     956:	2304      	movs	r3, #4
     958:	e000      	b.n	95c <Mfs_Uart_EnableFunc+0x40>
     95a:	2300      	movs	r3, #0
     95c:	4618      	mov	r0, r3
     95e:	370c      	adds	r7, #12
     960:	46bd      	mov	sp, r7
     962:	f85d 7b04 	ldr.w	r7, [sp], #4
     966:	4770      	bx	lr

00000968 <Mfs_Uart_GetStatus>:
     968:	b480      	push	{r7}
     96a:	b085      	sub	sp, #20
     96c:	af00      	add	r7, sp, #0
     96e:	6078      	str	r0, [r7, #4]
     970:	460b      	mov	r3, r1
     972:	70fb      	strb	r3, [r7, #3]
     974:	2300      	movs	r3, #0
     976:	73fb      	strb	r3, [r7, #15]
     978:	78fb      	ldrb	r3, [r7, #3]
     97a:	2b06      	cmp	r3, #6
     97c:	d841      	bhi.n	a02 <Mfs_Uart_GetStatus+0x9a>
     97e:	a201      	add	r2, pc, #4	@ (adr r2, 984 <Mfs_Uart_GetStatus+0x1c>)
     980:	f852 f023 	ldr.w	pc, [r2, r3, lsl #2]
     984:	000009a1 	.word	0x000009a1
     988:	000009af 	.word	0x000009af
     98c:	000009bd 	.word	0x000009bd
     990:	000009cb 	.word	0x000009cb
     994:	000009d9 	.word	0x000009d9
     998:	000009e7 	.word	0x000009e7
     99c:	000009f5 	.word	0x000009f5
     9a0:	687b      	ldr	r3, [r7, #4]
     9a2:	795b      	ldrb	r3, [r3, #5]
     9a4:	f3c3 1340 	ubfx	r3, r3, #5, #1
     9a8:	b2db      	uxtb	r3, r3
     9aa:	73fb      	strb	r3, [r7, #15]
     9ac:	e02a      	b.n	a04 <Mfs_Uart_GetStatus+0x9c>
     9ae:	687b      	ldr	r3, [r7, #4]
     9b0:	795b      	ldrb	r3, [r3, #5]
     9b2:	f3c3 1300 	ubfx	r3, r3, #4, #1
     9b6:	b2db      	uxtb	r3, r3
     9b8:	73fb      	strb	r3, [r7, #15]
     9ba:	e023      	b.n	a04 <Mfs_Uart_GetStatus+0x9c>
     9bc:	687b      	ldr	r3, [r7, #4]
     9be:	795b      	ldrb	r3, [r3, #5]
     9c0:	f3c3 03c0 	ubfx	r3, r3, #3, #1
     9c4:	b2db      	uxtb	r3, r3
     9c6:	73fb      	strb	r3, [r7, #15]
     9c8:	e01c      	b.n	a04 <Mfs_Uart_GetStatus+0x9c>
     9ca:	687b      	ldr	r3, [r7, #4]
     9cc:	795b      	ldrb	r3, [r3, #5]
     9ce:	f3c3 0380 	ubfx	r3, r3, #2, #1
     9d2:	b2db      	uxtb	r3, r3
     9d4:	73fb      	strb	r3, [r7, #15]
     9d6:	e015      	b.n	a04 <Mfs_Uart_GetStatus+0x9c>
     9d8:	687b      	ldr	r3, [r7, #4]
     9da:	795b      	ldrb	r3, [r3, #5]
     9dc:	f3c3 0340 	ubfx	r3, r3, #1, #1
     9e0:	b2db      	uxtb	r3, r3
     9e2:	73fb      	strb	r3, [r7, #15]
     9e4:	e00e      	b.n	a04 <Mfs_Uart_GetStatus+0x9c>
     9e6:	687b      	ldr	r3, [r7, #4]
     9e8:	795b      	ldrb	r3, [r3, #5]
     9ea:	f3c3 0300 	ubfx	r3, r3, #0, #1
     9ee:	b2db      	uxtb	r3, r3
     9f0:	73fb      	strb	r3, [r7, #15]
     9f2:	e007      	b.n	a04 <Mfs_Uart_GetStatus+0x9c>
     9f4:	687b      	ldr	r3, [r7, #4]
     9f6:	8a9b      	ldrh	r3, [r3, #20]
     9f8:	f3c3 2380 	ubfx	r3, r3, #10, #1
     9fc:	b2db      	uxtb	r3, r3
     9fe:	73fb      	strb	r3, [r7, #15]
     a00:	e000      	b.n	a04 <Mfs_Uart_GetStatus+0x9c>
     a02:	bf00      	nop
     a04:	7bfb      	ldrb	r3, [r7, #15]
     a06:	4618      	mov	r0, r3
     a08:	3714      	adds	r7, #20
     a0a:	46bd      	mov	sp, r7
     a0c:	f85d 7b04 	ldr.w	r7, [sp], #4
     a10:	4770      	bx	lr
     a12:	bf00      	nop

00000a14 <Mfs_Uart_SendData>:
     a14:	b480      	push	{r7}
     a16:	b083      	sub	sp, #12
     a18:	af00      	add	r7, sp, #0
     a1a:	6078      	str	r0, [r7, #4]
     a1c:	460b      	mov	r3, r1
     a1e:	807b      	strh	r3, [r7, #2]
     a20:	687b      	ldr	r3, [r7, #4]
     a22:	2b00      	cmp	r3, #0
     a24:	d101      	bne.n	a2a <Mfs_Uart_SendData+0x16>
     a26:	2304      	movs	r3, #4
     a28:	e003      	b.n	a32 <Mfs_Uart_SendData+0x1e>
     a2a:	687b      	ldr	r3, [r7, #4]
     a2c:	887a      	ldrh	r2, [r7, #2]
     a2e:	811a      	strh	r2, [r3, #8]
     a30:	2300      	movs	r3, #0
     a32:	4618      	mov	r0, r3
     a34:	370c      	adds	r7, #12
     a36:	46bd      	mov	sp, r7
     a38:	f85d 7b04 	ldr.w	r7, [sp], #4
     a3c:	4770      	bx	lr
	...

00000a40 <MfsI2cGetInternDataPtr>:
     a40:	b480      	push	{r7}
     a42:	b085      	sub	sp, #20
     a44:	af00      	add	r7, sp, #0
     a46:	6078      	str	r0, [r7, #4]
     a48:	2300      	movs	r3, #0
     a4a:	60fb      	str	r3, [r7, #12]
     a4c:	687b      	ldr	r3, [r7, #4]
     a4e:	2b00      	cmp	r3, #0
     a50:	d01e      	beq.n	a90 <MfsI2cGetInternDataPtr+0x50>
     a52:	2300      	movs	r3, #0
     a54:	60bb      	str	r3, [r7, #8]
     a56:	e018      	b.n	a8a <MfsI2cGetInternDataPtr+0x4a>
     a58:	4911      	ldr	r1, [pc, #68]	@ (aa0 <MfsI2cGetInternDataPtr+0x60>)
     a5a:	68ba      	ldr	r2, [r7, #8]
     a5c:	4613      	mov	r3, r2
     a5e:	00db      	lsls	r3, r3, #3
     a60:	4413      	add	r3, r2
     a62:	009b      	lsls	r3, r3, #2
     a64:	440b      	add	r3, r1
     a66:	3304      	adds	r3, #4
     a68:	681b      	ldr	r3, [r3, #0]
     a6a:	687a      	ldr	r2, [r7, #4]
     a6c:	429a      	cmp	r2, r3
     a6e:	d109      	bne.n	a84 <MfsI2cGetInternDataPtr+0x44>
     a70:	68ba      	ldr	r2, [r7, #8]
     a72:	4613      	mov	r3, r2
     a74:	00db      	lsls	r3, r3, #3
     a76:	4413      	add	r3, r2
     a78:	009b      	lsls	r3, r3, #2
     a7a:	3308      	adds	r3, #8
     a7c:	4a08      	ldr	r2, [pc, #32]	@ (aa0 <MfsI2cGetInternDataPtr+0x60>)
     a7e:	4413      	add	r3, r2
     a80:	60fb      	str	r3, [r7, #12]
     a82:	e005      	b.n	a90 <MfsI2cGetInternDataPtr+0x50>
     a84:	68bb      	ldr	r3, [r7, #8]
     a86:	3301      	adds	r3, #1
     a88:	60bb      	str	r3, [r7, #8]
     a8a:	68bb      	ldr	r3, [r7, #8]
     a8c:	2b01      	cmp	r3, #1
     a8e:	d9e3      	bls.n	a58 <MfsI2cGetInternDataPtr+0x18>
     a90:	68fb      	ldr	r3, [r7, #12]
     a92:	4618      	mov	r0, r3
     a94:	3714      	adds	r7, #20
     a96:	46bd      	mov	sp, r7
     a98:	f85d 7b04 	ldr.w	r7, [sp], #4
     a9c:	4770      	bx	lr
     a9e:	bf00      	nop
     aa0:	1ffd0004 	.word	0x1ffd0004

00000aa4 <Mfs_I2c_Init>:
     aa4:	b580      	push	{r7, lr}
     aa6:	b088      	sub	sp, #32
     aa8:	af00      	add	r7, sp, #0
     aaa:	6078      	str	r0, [r7, #4]
     aac:	6039      	str	r1, [r7, #0]
     aae:	f107 0314 	add.w	r3, r7, #20
     ab2:	2101      	movs	r1, #1
     ab4:	4618      	mov	r0, r3
     ab6:	f7ff fc1f 	bl	2f8 <pdl_memclr>
     aba:	f107 0310 	add.w	r3, r7, #16
     abe:	2101      	movs	r1, #1
     ac0:	4618      	mov	r0, r3
     ac2:	f7ff fc19 	bl	2f8 <pdl_memclr>
     ac6:	f107 030c 	add.w	r3, r7, #12
     aca:	2101      	movs	r1, #1
     acc:	4618      	mov	r0, r3
     ace:	f7ff fc13 	bl	2f8 <pdl_memclr>
     ad2:	f107 0308 	add.w	r3, r7, #8
     ad6:	2101      	movs	r1, #1
     ad8:	4618      	mov	r0, r3
     ada:	f7ff fc0d 	bl	2f8 <pdl_memclr>
     ade:	687b      	ldr	r3, [r7, #4]
     ae0:	f103 4340 	add.w	r3, r3, #3221225472	@ 0xc0000000
     ae4:	f5a3 3360 	sub.w	r3, r3, #229376	@ 0x38000
     ae8:	0a1b      	lsrs	r3, r3, #8
     aea:	77fb      	strb	r3, [r7, #31]
     aec:	7ffb      	ldrb	r3, [r7, #31]
     aee:	2b0f      	cmp	r3, #15
     af0:	d901      	bls.n	af6 <Mfs_I2c_Init+0x52>
     af2:	2304      	movs	r3, #4
     af4:	e09f      	b.n	c36 <Mfs_I2c_Init+0x192>
     af6:	6878      	ldr	r0, [r7, #4]
     af8:	f7ff ffa2 	bl	a40 <MfsI2cGetInternDataPtr>
     afc:	61b8      	str	r0, [r7, #24]
     afe:	69bb      	ldr	r3, [r7, #24]
     b00:	2b00      	cmp	r3, #0
     b02:	d002      	beq.n	b0a <Mfs_I2c_Init+0x66>
     b04:	683b      	ldr	r3, [r7, #0]
     b06:	2b00      	cmp	r3, #0
     b08:	d101      	bne.n	b0e <Mfs_I2c_Init+0x6a>
     b0a:	2304      	movs	r3, #4
     b0c:	e093      	b.n	c36 <Mfs_I2c_Init+0x192>
     b0e:	69bb      	ldr	r3, [r7, #24]
     b10:	2203      	movs	r2, #3
     b12:	701a      	strb	r2, [r3, #0]
     b14:	683b      	ldr	r3, [r7, #0]
     b16:	781b      	ldrb	r3, [r3, #0]
     b18:	2b01      	cmp	r3, #1
     b1a:	d80e      	bhi.n	b3a <Mfs_I2c_Init+0x96>
     b1c:	7d3b      	ldrb	r3, [r7, #20]
     b1e:	2204      	movs	r2, #4
     b20:	f362 1347 	bfi	r3, r2, #5, #3
     b24:	753b      	strb	r3, [r7, #20]
     b26:	bf00      	nop
     b28:	7c3b      	ldrb	r3, [r7, #16]
     b2a:	f043 0320 	orr.w	r3, r3, #32
     b2e:	743b      	strb	r3, [r7, #16]
     b30:	683b      	ldr	r3, [r7, #0]
     b32:	781b      	ldrb	r3, [r3, #0]
     b34:	2b01      	cmp	r3, #1
     b36:	d118      	bne.n	b6a <Mfs_I2c_Init+0xc6>
     b38:	e001      	b.n	b3e <Mfs_I2c_Init+0x9a>
     b3a:	2304      	movs	r3, #4
     b3c:	e07b      	b.n	c36 <Mfs_I2c_Init+0x192>
     b3e:	683b      	ldr	r3, [r7, #0]
     b40:	7a1b      	ldrb	r3, [r3, #8]
     b42:	f003 037f 	and.w	r3, r3, #127	@ 0x7f
     b46:	b2da      	uxtb	r2, r3
     b48:	7b3b      	ldrb	r3, [r7, #12]
     b4a:	f362 0306 	bfi	r3, r2, #0, #7
     b4e:	733b      	strb	r3, [r7, #12]
     b50:	7b3b      	ldrb	r3, [r7, #12]
     b52:	f043 0380 	orr.w	r3, r3, #128	@ 0x80
     b56:	733b      	strb	r3, [r7, #12]
     b58:	683b      	ldr	r3, [r7, #0]
     b5a:	7a5b      	ldrb	r3, [r3, #9]
     b5c:	f003 037f 	and.w	r3, r3, #127	@ 0x7f
     b60:	b2da      	uxtb	r2, r3
     b62:	7a3b      	ldrb	r3, [r7, #8]
     b64:	f362 0306 	bfi	r3, r2, #0, #7
     b68:	723b      	strb	r3, [r7, #8]
     b6a:	7a3b      	ldrb	r3, [r7, #8]
     b6c:	f043 0380 	orr.w	r3, r3, #128	@ 0x80
     b70:	723b      	strb	r3, [r7, #8]
     b72:	687b      	ldr	r3, [r7, #4]
     b74:	7d3a      	ldrb	r2, [r7, #20]
     b76:	701a      	strb	r2, [r3, #0]
     b78:	687b      	ldr	r3, [r7, #4]
     b7a:	2200      	movs	r2, #0
     b7c:	745a      	strb	r2, [r3, #17]
     b7e:	683b      	ldr	r3, [r7, #0]
     b80:	7adb      	ldrb	r3, [r3, #11]
     b82:	2b01      	cmp	r3, #1
     b84:	d105      	bne.n	b92 <Mfs_I2c_Init+0xee>
     b86:	687a      	ldr	r2, [r7, #4]
     b88:	7953      	ldrb	r3, [r2, #5]
     b8a:	f043 0320 	orr.w	r3, r3, #32
     b8e:	7153      	strb	r3, [r2, #5]
     b90:	e004      	b.n	b9c <Mfs_I2c_Init+0xf8>
     b92:	687a      	ldr	r2, [r7, #4]
     b94:	7953      	ldrb	r3, [r2, #5]
     b96:	f023 0320 	bic.w	r3, r3, #32
     b9a:	7153      	strb	r3, [r2, #5]
     b9c:	683b      	ldr	r3, [r7, #0]
     b9e:	685b      	ldr	r3, [r3, #4]
     ba0:	4619      	mov	r1, r3
     ba2:	6878      	ldr	r0, [r7, #4]
     ba4:	f000 f84c 	bl	c40 <Mfs_I2c_SetBaudRate>
     ba8:	687b      	ldr	r3, [r7, #4]
     baa:	7c3a      	ldrb	r2, [r7, #16]
     bac:	705a      	strb	r2, [r3, #1]
     bae:	687b      	ldr	r3, [r7, #4]
     bb0:	7b3a      	ldrb	r2, [r7, #12]
     bb2:	741a      	strb	r2, [r3, #16]
     bb4:	687b      	ldr	r3, [r7, #4]
     bb6:	7a3a      	ldrb	r2, [r7, #8]
     bb8:	745a      	strb	r2, [r3, #17]
     bba:	683b      	ldr	r3, [r7, #0]
     bbc:	68db      	ldr	r3, [r3, #12]
     bbe:	2b00      	cmp	r3, #0
     bc0:	d038      	beq.n	c34 <Mfs_I2c_Init+0x190>
     bc2:	687a      	ldr	r2, [r7, #4]
     bc4:	8a93      	ldrh	r3, [r2, #20]
     bc6:	f043 0304 	orr.w	r3, r3, #4
     bca:	8293      	strh	r3, [r2, #20]
     bcc:	687a      	ldr	r2, [r7, #4]
     bce:	8a93      	ldrh	r3, [r2, #20]
     bd0:	f043 0308 	orr.w	r3, r3, #8
     bd4:	8293      	strh	r3, [r2, #20]
     bd6:	687a      	ldr	r2, [r7, #4]
     bd8:	8a93      	ldrh	r3, [r2, #20]
     bda:	f443 6300 	orr.w	r3, r3, #2048	@ 0x800
     bde:	8293      	strh	r3, [r2, #20]
     be0:	683b      	ldr	r3, [r7, #0]
     be2:	68db      	ldr	r3, [r3, #12]
     be4:	781b      	ldrb	r3, [r3, #0]
     be6:	2b00      	cmp	r3, #0
     be8:	d002      	beq.n	bf0 <Mfs_I2c_Init+0x14c>
     bea:	2b01      	cmp	r3, #1
     bec:	d006      	beq.n	bfc <Mfs_I2c_Init+0x158>
     bee:	e00b      	b.n	c08 <Mfs_I2c_Init+0x164>
     bf0:	687a      	ldr	r2, [r7, #4]
     bf2:	8a93      	ldrh	r3, [r2, #20]
     bf4:	f423 7380 	bic.w	r3, r3, #256	@ 0x100
     bf8:	8293      	strh	r3, [r2, #20]
     bfa:	e007      	b.n	c0c <Mfs_I2c_Init+0x168>
     bfc:	687a      	ldr	r2, [r7, #4]
     bfe:	8a93      	ldrh	r3, [r2, #20]
     c00:	f443 7380 	orr.w	r3, r3, #256	@ 0x100
     c04:	8293      	strh	r3, [r2, #20]
     c06:	e001      	b.n	c0c <Mfs_I2c_Init+0x168>
     c08:	2304      	movs	r3, #4
     c0a:	e014      	b.n	c36 <Mfs_I2c_Init+0x192>
     c0c:	683b      	ldr	r3, [r7, #0]
     c0e:	68db      	ldr	r3, [r3, #12]
     c10:	785a      	ldrb	r2, [r3, #1]
     c12:	687b      	ldr	r3, [r7, #4]
     c14:	761a      	strb	r2, [r3, #24]
     c16:	683b      	ldr	r3, [r7, #0]
     c18:	68db      	ldr	r3, [r3, #12]
     c1a:	789a      	ldrb	r2, [r3, #2]
     c1c:	687b      	ldr	r3, [r7, #4]
     c1e:	765a      	strb	r2, [r3, #25]
     c20:	687a      	ldr	r2, [r7, #4]
     c22:	8a93      	ldrh	r3, [r2, #20]
     c24:	f043 0301 	orr.w	r3, r3, #1
     c28:	8293      	strh	r3, [r2, #20]
     c2a:	687a      	ldr	r2, [r7, #4]
     c2c:	8a93      	ldrh	r3, [r2, #20]
     c2e:	f043 0302 	orr.w	r3, r3, #2
     c32:	8293      	strh	r3, [r2, #20]
     c34:	2300      	movs	r3, #0
     c36:	4618      	mov	r0, r3
     c38:	3720      	adds	r7, #32
     c3a:	46bd      	mov	sp, r7
     c3c:	bd80      	pop	{r7, pc}
	...

00000c40 <Mfs_I2c_SetBaudRate>:
     c40:	b580      	push	{r7, lr}
     c42:	b084      	sub	sp, #16
     c44:	af00      	add	r7, sp, #0
     c46:	6078      	str	r0, [r7, #4]
     c48:	6039      	str	r1, [r7, #0]
     c4a:	2300      	movs	r3, #0
     c4c:	73fb      	strb	r3, [r7, #15]
     c4e:	f7ff fb6b 	bl	328 <SystemCoreClockUpdate>
     c52:	687b      	ldr	r3, [r7, #4]
     c54:	2b00      	cmp	r3, #0
     c56:	d003      	beq.n	c60 <Mfs_I2c_SetBaudRate+0x20>
     c58:	683b      	ldr	r3, [r7, #0]
     c5a:	4a1b      	ldr	r2, [pc, #108]	@ (cc8 <Mfs_I2c_SetBaudRate+0x88>)
     c5c:	4293      	cmp	r3, r2
     c5e:	d901      	bls.n	c64 <Mfs_I2c_SetBaudRate+0x24>
     c60:	2304      	movs	r3, #4
     c62:	e02c      	b.n	cbe <Mfs_I2c_SetBaudRate+0x7e>
     c64:	687b      	ldr	r3, [r7, #4]
     c66:	7c5b      	ldrb	r3, [r3, #17]
     c68:	f3c3 13c0 	ubfx	r3, r3, #7, #1
     c6c:	b2db      	uxtb	r3, r3
     c6e:	73fb      	strb	r3, [r7, #15]
     c70:	687a      	ldr	r2, [r7, #4]
     c72:	7c53      	ldrb	r3, [r2, #17]
     c74:	f043 0380 	orr.w	r3, r3, #128	@ 0x80
     c78:	7453      	strb	r3, [r2, #17]
     c7a:	4b14      	ldr	r3, [pc, #80]	@ (ccc <Mfs_I2c_SetBaudRate+0x8c>)
     c7c:	681a      	ldr	r2, [r3, #0]
     c7e:	4b14      	ldr	r3, [pc, #80]	@ (cd0 <Mfs_I2c_SetBaudRate+0x90>)
     c80:	69db      	ldr	r3, [r3, #28]
     c82:	f003 0303 	and.w	r3, r3, #3
     c86:	fa22 f303 	lsr.w	r3, r2, r3
     c8a:	60bb      	str	r3, [r7, #8]
     c8c:	68ba      	ldr	r2, [r7, #8]
     c8e:	683b      	ldr	r3, [r7, #0]
     c90:	fbb2 f3f3 	udiv	r3, r2, r3
     c94:	b29b      	uxth	r3, r3
     c96:	3b01      	subs	r3, #1
     c98:	b29b      	uxth	r3, r3
     c9a:	f3c3 030e 	ubfx	r3, r3, #0, #15
     c9e:	b299      	uxth	r1, r3
     ca0:	687a      	ldr	r2, [r7, #4]
     ca2:	8993      	ldrh	r3, [r2, #12]
     ca4:	f361 030e 	bfi	r3, r1, #0, #15
     ca8:	8193      	strh	r3, [r2, #12]
     caa:	7bfb      	ldrb	r3, [r7, #15]
     cac:	f003 0301 	and.w	r3, r3, #1
     cb0:	b2d9      	uxtb	r1, r3
     cb2:	687a      	ldr	r2, [r7, #4]
     cb4:	7c53      	ldrb	r3, [r2, #17]
     cb6:	f361 13c7 	bfi	r3, r1, #7, #1
     cba:	7453      	strb	r3, [r2, #17]
     cbc:	2300      	movs	r3, #0
     cbe:	4618      	mov	r0, r3
     cc0:	3710      	adds	r7, #16
     cc2:	46bd      	mov	sp, r7
     cc4:	bd80      	pop	{r7, pc}
     cc6:	bf00      	nop
     cc8:	00061a80 	.word	0x00061a80
     ccc:	1ffd0000 	.word	0x1ffd0000
     cd0:	40010000 	.word	0x40010000

00000cd4 <Mfs_I2c_GenerateStart>:
     cd4:	b480      	push	{r7}
     cd6:	b085      	sub	sp, #20
     cd8:	af00      	add	r7, sp, #0
     cda:	6078      	str	r0, [r7, #4]
     cdc:	4b14      	ldr	r3, [pc, #80]	@ (d30 <Mfs_I2c_GenerateStart+0x5c>)
     cde:	681b      	ldr	r3, [r3, #0]
     ce0:	60fb      	str	r3, [r7, #12]
     ce2:	687b      	ldr	r3, [r7, #4]
     ce4:	2b00      	cmp	r3, #0
     ce6:	d101      	bne.n	cec <Mfs_I2c_GenerateStart+0x18>
     ce8:	2304      	movs	r3, #4
     cea:	e01b      	b.n	d24 <Mfs_I2c_GenerateStart+0x50>
     cec:	687a      	ldr	r2, [r7, #4]
     cee:	7853      	ldrb	r3, [r2, #1]
     cf0:	f043 0380 	orr.w	r3, r3, #128	@ 0x80
     cf4:	7053      	strb	r3, [r2, #1]
     cf6:	e00f      	b.n	d18 <Mfs_I2c_GenerateStart+0x44>
     cf8:	687b      	ldr	r3, [r7, #4]
     cfa:	785b      	ldrb	r3, [r3, #1]
     cfc:	f3c3 13c0 	ubfx	r3, r3, #7, #1
     d00:	b2db      	uxtb	r3, r3
     d02:	2b01      	cmp	r3, #1
     d04:	d108      	bne.n	d18 <Mfs_I2c_GenerateStart+0x44>
     d06:	687b      	ldr	r3, [r7, #4]
     d08:	785b      	ldrb	r3, [r3, #1]
     d0a:	f3c3 1380 	ubfx	r3, r3, #6, #1
     d0e:	b2db      	uxtb	r3, r3
     d10:	2b01      	cmp	r3, #1
     d12:	d101      	bne.n	d18 <Mfs_I2c_GenerateStart+0x44>
     d14:	2300      	movs	r3, #0
     d16:	e005      	b.n	d24 <Mfs_I2c_GenerateStart+0x50>
     d18:	68fb      	ldr	r3, [r7, #12]
     d1a:	1e5a      	subs	r2, r3, #1
     d1c:	60fa      	str	r2, [r7, #12]
     d1e:	2b00      	cmp	r3, #0
     d20:	d1ea      	bne.n	cf8 <Mfs_I2c_GenerateStart+0x24>
     d22:	2309      	movs	r3, #9
     d24:	4618      	mov	r0, r3
     d26:	3714      	adds	r7, #20
     d28:	46bd      	mov	sp, r7
     d2a:	f85d 7b04 	ldr.w	r7, [sp], #4
     d2e:	4770      	bx	lr
     d30:	1ffd0000 	.word	0x1ffd0000

00000d34 <Mfs_I2c_GenerateStop>:
     d34:	b480      	push	{r7}
     d36:	b085      	sub	sp, #20
     d38:	af00      	add	r7, sp, #0
     d3a:	6078      	str	r0, [r7, #4]
     d3c:	4b15      	ldr	r3, [pc, #84]	@ (d94 <Mfs_I2c_GenerateStop+0x60>)
     d3e:	681b      	ldr	r3, [r3, #0]
     d40:	60fb      	str	r3, [r7, #12]
     d42:	687b      	ldr	r3, [r7, #4]
     d44:	2b00      	cmp	r3, #0
     d46:	d119      	bne.n	d7c <Mfs_I2c_GenerateStop+0x48>
     d48:	2304      	movs	r3, #4
     d4a:	e01d      	b.n	d88 <Mfs_I2c_GenerateStop+0x54>
     d4c:	687b      	ldr	r3, [r7, #4]
     d4e:	785b      	ldrb	r3, [r3, #1]
     d50:	b2db      	uxtb	r3, r3
     d52:	f003 033e 	and.w	r3, r3, #62	@ 0x3e
     d56:	b2da      	uxtb	r2, r3
     d58:	687b      	ldr	r3, [r7, #4]
     d5a:	705a      	strb	r2, [r3, #1]
     d5c:	687b      	ldr	r3, [r7, #4]
     d5e:	785b      	ldrb	r3, [r3, #1]
     d60:	f3c3 13c0 	ubfx	r3, r3, #7, #1
     d64:	b2db      	uxtb	r3, r3
     d66:	2b00      	cmp	r3, #0
     d68:	d108      	bne.n	d7c <Mfs_I2c_GenerateStop+0x48>
     d6a:	687b      	ldr	r3, [r7, #4]
     d6c:	785b      	ldrb	r3, [r3, #1]
     d6e:	f3c3 1380 	ubfx	r3, r3, #6, #1
     d72:	b2db      	uxtb	r3, r3
     d74:	2b00      	cmp	r3, #0
     d76:	d101      	bne.n	d7c <Mfs_I2c_GenerateStop+0x48>
     d78:	2300      	movs	r3, #0
     d7a:	e005      	b.n	d88 <Mfs_I2c_GenerateStop+0x54>
     d7c:	68fb      	ldr	r3, [r7, #12]
     d7e:	1e5a      	subs	r2, r3, #1
     d80:	60fa      	str	r2, [r7, #12]
     d82:	2b00      	cmp	r3, #0
     d84:	d1e2      	bne.n	d4c <Mfs_I2c_GenerateStop+0x18>
     d86:	2309      	movs	r3, #9
     d88:	4618      	mov	r0, r3
     d8a:	3714      	adds	r7, #20
     d8c:	46bd      	mov	sp, r7
     d8e:	f85d 7b04 	ldr.w	r7, [sp], #4
     d92:	4770      	bx	lr
     d94:	1ffd0000 	.word	0x1ffd0000

00000d98 <Mfs_I2c_SendData>:
     d98:	b480      	push	{r7}
     d9a:	b083      	sub	sp, #12
     d9c:	af00      	add	r7, sp, #0
     d9e:	6078      	str	r0, [r7, #4]
     da0:	460b      	mov	r3, r1
     da2:	70fb      	strb	r3, [r7, #3]
     da4:	687b      	ldr	r3, [r7, #4]
     da6:	2b00      	cmp	r3, #0
     da8:	d101      	bne.n	dae <Mfs_I2c_SendData+0x16>
     daa:	2304      	movs	r3, #4
     dac:	e004      	b.n	db8 <Mfs_I2c_SendData+0x20>
     dae:	78fb      	ldrb	r3, [r7, #3]
     db0:	b29a      	uxth	r2, r3
     db2:	687b      	ldr	r3, [r7, #4]
     db4:	811a      	strh	r2, [r3, #8]
     db6:	2300      	movs	r3, #0
     db8:	4618      	mov	r0, r3
     dba:	370c      	adds	r7, #12
     dbc:	46bd      	mov	sp, r7
     dbe:	f85d 7b04 	ldr.w	r7, [sp], #4
     dc2:	4770      	bx	lr

00000dc4 <Mfs_I2c_ConfigAck>:
     dc4:	b480      	push	{r7}
     dc6:	b085      	sub	sp, #20
     dc8:	af00      	add	r7, sp, #0
     dca:	6078      	str	r0, [r7, #4]
     dcc:	460b      	mov	r3, r1
     dce:	70fb      	strb	r3, [r7, #3]
     dd0:	687b      	ldr	r3, [r7, #4]
     dd2:	785b      	ldrb	r3, [r3, #1]
     dd4:	733b      	strb	r3, [r7, #12]
     dd6:	687b      	ldr	r3, [r7, #4]
     dd8:	2b00      	cmp	r3, #0
     dda:	d101      	bne.n	de0 <Mfs_I2c_ConfigAck+0x1c>
     ddc:	2304      	movs	r3, #4
     dde:	e015      	b.n	e0c <Mfs_I2c_ConfigAck+0x48>
     de0:	78fb      	ldrb	r3, [r7, #3]
     de2:	2b00      	cmp	r3, #0
     de4:	d105      	bne.n	df2 <Mfs_I2c_ConfigAck+0x2e>
     de6:	2201      	movs	r2, #1
     de8:	7b3b      	ldrb	r3, [r7, #12]
     dea:	f362 1345 	bfi	r3, r2, #5, #1
     dee:	733b      	strb	r3, [r7, #12]
     df0:	e004      	b.n	dfc <Mfs_I2c_ConfigAck+0x38>
     df2:	2200      	movs	r2, #0
     df4:	7b3b      	ldrb	r3, [r7, #12]
     df6:	f362 1345 	bfi	r3, r2, #5, #1
     dfa:	733b      	strb	r3, [r7, #12]
     dfc:	7b3b      	ldrb	r3, [r7, #12]
     dfe:	f023 0340 	bic.w	r3, r3, #64	@ 0x40
     e02:	733b      	strb	r3, [r7, #12]
     e04:	687b      	ldr	r3, [r7, #4]
     e06:	7b3a      	ldrb	r2, [r7, #12]
     e08:	705a      	strb	r2, [r3, #1]
     e0a:	2300      	movs	r3, #0
     e0c:	4618      	mov	r0, r3
     e0e:	3714      	adds	r7, #20
     e10:	46bd      	mov	sp, r7
     e12:	f85d 7b04 	ldr.w	r7, [sp], #4
     e16:	4770      	bx	lr

00000e18 <Mfs_I2c_GetAck>:
     e18:	b480      	push	{r7}
     e1a:	b085      	sub	sp, #20
     e1c:	af00      	add	r7, sp, #0
     e1e:	6078      	str	r0, [r7, #4]
     e20:	687b      	ldr	r3, [r7, #4]
     e22:	791b      	ldrb	r3, [r3, #4]
     e24:	f3c3 1380 	ubfx	r3, r3, #6, #1
     e28:	b2db      	uxtb	r3, r3
     e2a:	73fb      	strb	r3, [r7, #15]
     e2c:	7bfb      	ldrb	r3, [r7, #15]
     e2e:	4618      	mov	r0, r3
     e30:	3714      	adds	r7, #20
     e32:	46bd      	mov	sp, r7
     e34:	f85d 7b04 	ldr.w	r7, [sp], #4
     e38:	4770      	bx	lr
	...

00000e3c <Mfs_I2c_GetStatus>:
     e3c:	b480      	push	{r7}
     e3e:	b085      	sub	sp, #20
     e40:	af00      	add	r7, sp, #0
     e42:	6078      	str	r0, [r7, #4]
     e44:	460b      	mov	r3, r1
     e46:	70fb      	strb	r3, [r7, #3]
     e48:	2300      	movs	r3, #0
     e4a:	73fb      	strb	r3, [r7, #15]
     e4c:	78fb      	ldrb	r3, [r7, #3]
     e4e:	2b0b      	cmp	r3, #11
     e50:	d87b      	bhi.n	f4a <Mfs_I2c_GetStatus+0x10e>
     e52:	a201      	add	r2, pc, #4	@ (adr r2, e58 <Mfs_I2c_GetStatus+0x1c>)
     e54:	f852 f023 	ldr.w	pc, [r2, r3, lsl #2]
     e58:	00000e89 	.word	0x00000e89
     e5c:	00000e97 	.word	0x00000e97
     e60:	00000ea5 	.word	0x00000ea5
     e64:	00000eb3 	.word	0x00000eb3
     e68:	00000ec1 	.word	0x00000ec1
     e6c:	00000ecf 	.word	0x00000ecf
     e70:	00000edd 	.word	0x00000edd
     e74:	00000eeb 	.word	0x00000eeb
     e78:	00000ef9 	.word	0x00000ef9
     e7c:	00000f07 	.word	0x00000f07
     e80:	00000f15 	.word	0x00000f15
     e84:	00000f23 	.word	0x00000f23
     e88:	687b      	ldr	r3, [r7, #4]
     e8a:	795b      	ldrb	r3, [r3, #5]
     e8c:	f3c3 03c0 	ubfx	r3, r3, #3, #1
     e90:	b2db      	uxtb	r3, r3
     e92:	73fb      	strb	r3, [r7, #15]
     e94:	e05a      	b.n	f4c <Mfs_I2c_GetStatus+0x110>
     e96:	687b      	ldr	r3, [r7, #4]
     e98:	795b      	ldrb	r3, [r3, #5]
     e9a:	f3c3 0380 	ubfx	r3, r3, #2, #1
     e9e:	b2db      	uxtb	r3, r3
     ea0:	73fb      	strb	r3, [r7, #15]
     ea2:	e053      	b.n	f4c <Mfs_I2c_GetStatus+0x110>
     ea4:	687b      	ldr	r3, [r7, #4]
     ea6:	795b      	ldrb	r3, [r3, #5]
     ea8:	f3c3 0340 	ubfx	r3, r3, #1, #1
     eac:	b2db      	uxtb	r3, r3
     eae:	73fb      	strb	r3, [r7, #15]
     eb0:	e04c      	b.n	f4c <Mfs_I2c_GetStatus+0x110>
     eb2:	687b      	ldr	r3, [r7, #4]
     eb4:	795b      	ldrb	r3, [r3, #5]
     eb6:	f3c3 0300 	ubfx	r3, r3, #0, #1
     eba:	b2db      	uxtb	r3, r3
     ebc:	73fb      	strb	r3, [r7, #15]
     ebe:	e045      	b.n	f4c <Mfs_I2c_GetStatus+0x110>
     ec0:	687b      	ldr	r3, [r7, #4]
     ec2:	8a9b      	ldrh	r3, [r3, #20]
     ec4:	f3c3 2380 	ubfx	r3, r3, #10, #1
     ec8:	b2db      	uxtb	r3, r3
     eca:	73fb      	strb	r3, [r7, #15]
     ecc:	e03e      	b.n	f4c <Mfs_I2c_GetStatus+0x110>
     ece:	687b      	ldr	r3, [r7, #4]
     ed0:	791b      	ldrb	r3, [r3, #4]
     ed2:	f3c3 13c0 	ubfx	r3, r3, #7, #1
     ed6:	b2db      	uxtb	r3, r3
     ed8:	73fb      	strb	r3, [r7, #15]
     eda:	e037      	b.n	f4c <Mfs_I2c_GetStatus+0x110>
     edc:	687b      	ldr	r3, [r7, #4]
     ede:	791b      	ldrb	r3, [r3, #4]
     ee0:	f3c3 1340 	ubfx	r3, r3, #5, #1
     ee4:	b2db      	uxtb	r3, r3
     ee6:	73fb      	strb	r3, [r7, #15]
     ee8:	e030      	b.n	f4c <Mfs_I2c_GetStatus+0x110>
     eea:	687b      	ldr	r3, [r7, #4]
     eec:	791b      	ldrb	r3, [r3, #4]
     eee:	f3c3 0340 	ubfx	r3, r3, #1, #1
     ef2:	b2db      	uxtb	r3, r3
     ef4:	73fb      	strb	r3, [r7, #15]
     ef6:	e029      	b.n	f4c <Mfs_I2c_GetStatus+0x110>
     ef8:	687b      	ldr	r3, [r7, #4]
     efa:	791b      	ldrb	r3, [r3, #4]
     efc:	f3c3 0300 	ubfx	r3, r3, #0, #1
     f00:	b2db      	uxtb	r3, r3
     f02:	73fb      	strb	r3, [r7, #15]
     f04:	e022      	b.n	f4c <Mfs_I2c_GetStatus+0x110>
     f06:	687b      	ldr	r3, [r7, #4]
     f08:	785b      	ldrb	r3, [r3, #1]
     f0a:	f3c3 0340 	ubfx	r3, r3, #1, #1
     f0e:	b2db      	uxtb	r3, r3
     f10:	73fb      	strb	r3, [r7, #15]
     f12:	e01b      	b.n	f4c <Mfs_I2c_GetStatus+0x110>
     f14:	687b      	ldr	r3, [r7, #4]
     f16:	785b      	ldrb	r3, [r3, #1]
     f18:	f3c3 0300 	ubfx	r3, r3, #0, #1
     f1c:	b2db      	uxtb	r3, r3
     f1e:	73fb      	strb	r3, [r7, #15]
     f20:	e014      	b.n	f4c <Mfs_I2c_GetStatus+0x110>
     f22:	687b      	ldr	r3, [r7, #4]
     f24:	785b      	ldrb	r3, [r3, #1]
     f26:	f3c3 13c0 	ubfx	r3, r3, #7, #1
     f2a:	b2db      	uxtb	r3, r3
     f2c:	2b00      	cmp	r3, #0
     f2e:	d109      	bne.n	f44 <Mfs_I2c_GetStatus+0x108>
     f30:	687b      	ldr	r3, [r7, #4]
     f32:	785b      	ldrb	r3, [r3, #1]
     f34:	f3c3 1380 	ubfx	r3, r3, #6, #1
     f38:	b2db      	uxtb	r3, r3
     f3a:	2b01      	cmp	r3, #1
     f3c:	d102      	bne.n	f44 <Mfs_I2c_GetStatus+0x108>
     f3e:	2301      	movs	r3, #1
     f40:	73fb      	strb	r3, [r7, #15]
     f42:	e003      	b.n	f4c <Mfs_I2c_GetStatus+0x110>
     f44:	2300      	movs	r3, #0
     f46:	73fb      	strb	r3, [r7, #15]
     f48:	e000      	b.n	f4c <Mfs_I2c_GetStatus+0x110>
     f4a:	bf00      	nop
     f4c:	7bfb      	ldrb	r3, [r7, #15]
     f4e:	4618      	mov	r0, r3
     f50:	3714      	adds	r7, #20
     f52:	46bd      	mov	sp, r7
     f54:	f85d 7b04 	ldr.w	r7, [sp], #4
     f58:	4770      	bx	lr
     f5a:	bf00      	nop

00000f5c <Mfs_I2c_ClrStatus>:
     f5c:	b480      	push	{r7}
     f5e:	b083      	sub	sp, #12
     f60:	af00      	add	r7, sp, #0
     f62:	6078      	str	r0, [r7, #4]
     f64:	460b      	mov	r3, r1
     f66:	70fb      	strb	r3, [r7, #3]
     f68:	687b      	ldr	r3, [r7, #4]
     f6a:	2b00      	cmp	r3, #0
     f6c:	d101      	bne.n	f72 <Mfs_I2c_ClrStatus+0x16>
     f6e:	2304      	movs	r3, #4
     f70:	e03d      	b.n	fee <Mfs_I2c_ClrStatus+0x92>
     f72:	78fb      	ldrb	r3, [r7, #3]
     f74:	2b0b      	cmp	r3, #11
     f76:	d836      	bhi.n	fe6 <Mfs_I2c_ClrStatus+0x8a>
     f78:	a201      	add	r2, pc, #4	@ (adr r2, f80 <Mfs_I2c_ClrStatus+0x24>)
     f7a:	f852 f023 	ldr.w	pc, [r2, r3, lsl #2]
     f7e:	bf00      	nop
     f80:	00000fb1 	.word	0x00000fb1
     f84:	00000feb 	.word	0x00000feb
     f88:	00000feb 	.word	0x00000feb
     f8c:	00000feb 	.word	0x00000feb
     f90:	00000fbd 	.word	0x00000fbd
     f94:	00000feb 	.word	0x00000feb
     f98:	00000feb 	.word	0x00000feb
     f9c:	00000fc9 	.word	0x00000fc9
     fa0:	00000feb 	.word	0x00000feb
     fa4:	00000feb 	.word	0x00000feb
     fa8:	00000fd5 	.word	0x00000fd5
     fac:	00000feb 	.word	0x00000feb
     fb0:	687a      	ldr	r2, [r7, #4]
     fb2:	7953      	ldrb	r3, [r2, #5]
     fb4:	f043 0380 	orr.w	r3, r3, #128	@ 0x80
     fb8:	7153      	strb	r3, [r2, #5]
     fba:	e017      	b.n	fec <Mfs_I2c_ClrStatus+0x90>
     fbc:	687a      	ldr	r2, [r7, #4]
     fbe:	8a93      	ldrh	r3, [r2, #20]
     fc0:	f423 6380 	bic.w	r3, r3, #1024	@ 0x400
     fc4:	8293      	strh	r3, [r2, #20]
     fc6:	e011      	b.n	fec <Mfs_I2c_ClrStatus+0x90>
     fc8:	687a      	ldr	r2, [r7, #4]
     fca:	7913      	ldrb	r3, [r2, #4]
     fcc:	f023 0302 	bic.w	r3, r3, #2
     fd0:	7113      	strb	r3, [r2, #4]
     fd2:	e00b      	b.n	fec <Mfs_I2c_ClrStatus+0x90>
     fd4:	687b      	ldr	r3, [r7, #4]
     fd6:	785b      	ldrb	r3, [r3, #1]
     fd8:	b2db      	uxtb	r3, r3
     fda:	f023 0341 	bic.w	r3, r3, #65	@ 0x41
     fde:	b2da      	uxtb	r2, r3
     fe0:	687b      	ldr	r3, [r7, #4]
     fe2:	705a      	strb	r2, [r3, #1]
     fe4:	e002      	b.n	fec <Mfs_I2c_ClrStatus+0x90>
     fe6:	2304      	movs	r3, #4
     fe8:	e001      	b.n	fee <Mfs_I2c_ClrStatus+0x92>
     fea:	bf00      	nop
     fec:	2300      	movs	r3, #0
     fee:	4618      	mov	r0, r3
     ff0:	370c      	adds	r7, #12
     ff2:	46bd      	mov	sp, r7
     ff4:	f85d 7b04 	ldr.w	r7, [sp], #4
     ff8:	4770      	bx	lr
     ffa:	bf00      	nop

00000ffc <Clk_PeripheralClockEnable>:
     ffc:	b480      	push	{r7}
     ffe:	b083      	sub	sp, #12
    1000:	af00      	add	r7, sp, #0
    1002:	4603      	mov	r3, r0
    1004:	71fb      	strb	r3, [r7, #7]
    1006:	79fb      	ldrb	r3, [r7, #7]
    1008:	2b32      	cmp	r3, #50	@ 0x32
    100a:	f200 8121 	bhi.w	1250 <__STACK_SIZE+0x250>
    100e:	a201      	add	r2, pc, #4	@ (adr r2, 1014 <__STACK_SIZE+0x14>)
    1010:	f852 f023 	ldr.w	pc, [r2, r3, lsl #2]
    1014:	000010e1 	.word	0x000010e1
    1018:	000011f1 	.word	0x000011f1
    101c:	000010e9 	.word	0x000010e9
    1020:	000010f1 	.word	0x000010f1
    1024:	000010f9 	.word	0x000010f9
    1028:	00001101 	.word	0x00001101
    102c:	00001109 	.word	0x00001109
    1030:	00001111 	.word	0x00001111
    1034:	00001119 	.word	0x00001119
    1038:	00001121 	.word	0x00001121
    103c:	00001129 	.word	0x00001129
    1040:	00001131 	.word	0x00001131
    1044:	00001139 	.word	0x00001139
    1048:	00001141 	.word	0x00001141
    104c:	00001149 	.word	0x00001149
    1050:	00001151 	.word	0x00001151
    1054:	00001159 	.word	0x00001159
    1058:	00001161 	.word	0x00001161
    105c:	00001169 	.word	0x00001169
    1060:	00001171 	.word	0x00001171
    1064:	00001179 	.word	0x00001179
    1068:	00001181 	.word	0x00001181
    106c:	00001189 	.word	0x00001189
    1070:	00001191 	.word	0x00001191
    1074:	00001199 	.word	0x00001199
    1078:	000011a1 	.word	0x000011a1
    107c:	000011a9 	.word	0x000011a9
    1080:	000011b1 	.word	0x000011b1
    1084:	000011b9 	.word	0x000011b9
    1088:	000011c1 	.word	0x000011c1
    108c:	000011c9 	.word	0x000011c9
    1090:	000011d1 	.word	0x000011d1
    1094:	000011d9 	.word	0x000011d9
    1098:	000011e1 	.word	0x000011e1
    109c:	000011e9 	.word	0x000011e9
    10a0:	00001255 	.word	0x00001255
    10a4:	00001241 	.word	0x00001241
    10a8:	00001249 	.word	0x00001249
    10ac:	00001239 	.word	0x00001239
    10b0:	00001229 	.word	0x00001229
    10b4:	00001231 	.word	0x00001231
    10b8:	00001221 	.word	0x00001221
    10bc:	00001209 	.word	0x00001209
    10c0:	00001211 	.word	0x00001211
    10c4:	00001219 	.word	0x00001219
    10c8:	000011f9 	.word	0x000011f9
    10cc:	00001201 	.word	0x00001201
    10d0:	00001255 	.word	0x00001255
    10d4:	00001255 	.word	0x00001255
    10d8:	00001255 	.word	0x00001255
    10dc:	00001255 	.word	0x00001255
    10e0:	4b60      	ldr	r3, [pc, #384]	@ (1264 <__STACK_SIZE+0x264>)
    10e2:	2201      	movs	r2, #1
    10e4:	701a      	strb	r2, [r3, #0]
    10e6:	e0b6      	b.n	1256 <__STACK_SIZE+0x256>
    10e8:	4b5f      	ldr	r3, [pc, #380]	@ (1268 <__STACK_SIZE+0x268>)
    10ea:	2201      	movs	r2, #1
    10ec:	701a      	strb	r2, [r3, #0]
    10ee:	e0b2      	b.n	1256 <__STACK_SIZE+0x256>
    10f0:	4b5e      	ldr	r3, [pc, #376]	@ (126c <__STACK_SIZE+0x26c>)
    10f2:	2201      	movs	r2, #1
    10f4:	701a      	strb	r2, [r3, #0]
    10f6:	e0ae      	b.n	1256 <__STACK_SIZE+0x256>
    10f8:	4b5d      	ldr	r3, [pc, #372]	@ (1270 <__STACK_SIZE+0x270>)
    10fa:	2201      	movs	r2, #1
    10fc:	701a      	strb	r2, [r3, #0]
    10fe:	e0aa      	b.n	1256 <__STACK_SIZE+0x256>
    1100:	4b5c      	ldr	r3, [pc, #368]	@ (1274 <__STACK_SIZE+0x274>)
    1102:	2201      	movs	r2, #1
    1104:	701a      	strb	r2, [r3, #0]
    1106:	e0a6      	b.n	1256 <__STACK_SIZE+0x256>
    1108:	4b5b      	ldr	r3, [pc, #364]	@ (1278 <__STACK_SIZE+0x278>)
    110a:	2201      	movs	r2, #1
    110c:	701a      	strb	r2, [r3, #0]
    110e:	e0a2      	b.n	1256 <__STACK_SIZE+0x256>
    1110:	4b5a      	ldr	r3, [pc, #360]	@ (127c <__STACK_SIZE+0x27c>)
    1112:	2201      	movs	r2, #1
    1114:	701a      	strb	r2, [r3, #0]
    1116:	e09e      	b.n	1256 <__STACK_SIZE+0x256>
    1118:	4b59      	ldr	r3, [pc, #356]	@ (1280 <__STACK_SIZE+0x280>)
    111a:	2201      	movs	r2, #1
    111c:	701a      	strb	r2, [r3, #0]
    111e:	e09a      	b.n	1256 <__STACK_SIZE+0x256>
    1120:	4b58      	ldr	r3, [pc, #352]	@ (1284 <__STACK_SIZE+0x284>)
    1122:	2201      	movs	r2, #1
    1124:	701a      	strb	r2, [r3, #0]
    1126:	e096      	b.n	1256 <__STACK_SIZE+0x256>
    1128:	4b57      	ldr	r3, [pc, #348]	@ (1288 <__STACK_SIZE+0x288>)
    112a:	2201      	movs	r2, #1
    112c:	701a      	strb	r2, [r3, #0]
    112e:	e092      	b.n	1256 <__STACK_SIZE+0x256>
    1130:	4b56      	ldr	r3, [pc, #344]	@ (128c <__STACK_SIZE+0x28c>)
    1132:	2201      	movs	r2, #1
    1134:	701a      	strb	r2, [r3, #0]
    1136:	e08e      	b.n	1256 <__STACK_SIZE+0x256>
    1138:	4b55      	ldr	r3, [pc, #340]	@ (1290 <__STACK_SIZE+0x290>)
    113a:	2201      	movs	r2, #1
    113c:	701a      	strb	r2, [r3, #0]
    113e:	e08a      	b.n	1256 <__STACK_SIZE+0x256>
    1140:	4b54      	ldr	r3, [pc, #336]	@ (1294 <__STACK_SIZE+0x294>)
    1142:	2201      	movs	r2, #1
    1144:	701a      	strb	r2, [r3, #0]
    1146:	e086      	b.n	1256 <__STACK_SIZE+0x256>
    1148:	4b53      	ldr	r3, [pc, #332]	@ (1298 <__STACK_SIZE+0x298>)
    114a:	2201      	movs	r2, #1
    114c:	701a      	strb	r2, [r3, #0]
    114e:	e082      	b.n	1256 <__STACK_SIZE+0x256>
    1150:	4b52      	ldr	r3, [pc, #328]	@ (129c <__STACK_SIZE+0x29c>)
    1152:	2201      	movs	r2, #1
    1154:	701a      	strb	r2, [r3, #0]
    1156:	e07e      	b.n	1256 <__STACK_SIZE+0x256>
    1158:	4b51      	ldr	r3, [pc, #324]	@ (12a0 <__STACK_SIZE+0x2a0>)
    115a:	2201      	movs	r2, #1
    115c:	701a      	strb	r2, [r3, #0]
    115e:	e07a      	b.n	1256 <__STACK_SIZE+0x256>
    1160:	4b50      	ldr	r3, [pc, #320]	@ (12a4 <__STACK_SIZE+0x2a4>)
    1162:	2201      	movs	r2, #1
    1164:	701a      	strb	r2, [r3, #0]
    1166:	e076      	b.n	1256 <__STACK_SIZE+0x256>
    1168:	4b4f      	ldr	r3, [pc, #316]	@ (12a8 <__STACK_SIZE+0x2a8>)
    116a:	2201      	movs	r2, #1
    116c:	701a      	strb	r2, [r3, #0]
    116e:	e072      	b.n	1256 <__STACK_SIZE+0x256>
    1170:	4b4e      	ldr	r3, [pc, #312]	@ (12ac <__STACK_SIZE+0x2ac>)
    1172:	2201      	movs	r2, #1
    1174:	701a      	strb	r2, [r3, #0]
    1176:	e06e      	b.n	1256 <__STACK_SIZE+0x256>
    1178:	4b4d      	ldr	r3, [pc, #308]	@ (12b0 <__STACK_SIZE+0x2b0>)
    117a:	2201      	movs	r2, #1
    117c:	701a      	strb	r2, [r3, #0]
    117e:	e06a      	b.n	1256 <__STACK_SIZE+0x256>
    1180:	4b4c      	ldr	r3, [pc, #304]	@ (12b4 <__STACK_SIZE+0x2b4>)
    1182:	2201      	movs	r2, #1
    1184:	701a      	strb	r2, [r3, #0]
    1186:	e066      	b.n	1256 <__STACK_SIZE+0x256>
    1188:	4b4b      	ldr	r3, [pc, #300]	@ (12b8 <__STACK_SIZE+0x2b8>)
    118a:	2201      	movs	r2, #1
    118c:	701a      	strb	r2, [r3, #0]
    118e:	e062      	b.n	1256 <__STACK_SIZE+0x256>
    1190:	4b4a      	ldr	r3, [pc, #296]	@ (12bc <__STACK_SIZE+0x2bc>)
    1192:	2201      	movs	r2, #1
    1194:	701a      	strb	r2, [r3, #0]
    1196:	e05e      	b.n	1256 <__STACK_SIZE+0x256>
    1198:	4b49      	ldr	r3, [pc, #292]	@ (12c0 <__STACK_SIZE+0x2c0>)
    119a:	2201      	movs	r2, #1
    119c:	701a      	strb	r2, [r3, #0]
    119e:	e05a      	b.n	1256 <__STACK_SIZE+0x256>
    11a0:	4b48      	ldr	r3, [pc, #288]	@ (12c4 <__STACK_SIZE+0x2c4>)
    11a2:	2201      	movs	r2, #1
    11a4:	701a      	strb	r2, [r3, #0]
    11a6:	e056      	b.n	1256 <__STACK_SIZE+0x256>
    11a8:	4b47      	ldr	r3, [pc, #284]	@ (12c8 <__STACK_SIZE+0x2c8>)
    11aa:	2201      	movs	r2, #1
    11ac:	701a      	strb	r2, [r3, #0]
    11ae:	e052      	b.n	1256 <__STACK_SIZE+0x256>
    11b0:	4b46      	ldr	r3, [pc, #280]	@ (12cc <__STACK_SIZE+0x2cc>)
    11b2:	2201      	movs	r2, #1
    11b4:	701a      	strb	r2, [r3, #0]
    11b6:	e04e      	b.n	1256 <__STACK_SIZE+0x256>
    11b8:	4b45      	ldr	r3, [pc, #276]	@ (12d0 <__STACK_SIZE+0x2d0>)
    11ba:	2201      	movs	r2, #1
    11bc:	701a      	strb	r2, [r3, #0]
    11be:	e04a      	b.n	1256 <__STACK_SIZE+0x256>
    11c0:	4b44      	ldr	r3, [pc, #272]	@ (12d4 <__STACK_SIZE+0x2d4>)
    11c2:	2201      	movs	r2, #1
    11c4:	701a      	strb	r2, [r3, #0]
    11c6:	e046      	b.n	1256 <__STACK_SIZE+0x256>
    11c8:	4b43      	ldr	r3, [pc, #268]	@ (12d8 <__STACK_SIZE+0x2d8>)
    11ca:	2201      	movs	r2, #1
    11cc:	701a      	strb	r2, [r3, #0]
    11ce:	e042      	b.n	1256 <__STACK_SIZE+0x256>
    11d0:	4b42      	ldr	r3, [pc, #264]	@ (12dc <__STACK_SIZE+0x2dc>)
    11d2:	2201      	movs	r2, #1
    11d4:	701a      	strb	r2, [r3, #0]
    11d6:	e03e      	b.n	1256 <__STACK_SIZE+0x256>
    11d8:	4b41      	ldr	r3, [pc, #260]	@ (12e0 <__STACK_SIZE+0x2e0>)
    11da:	2201      	movs	r2, #1
    11dc:	701a      	strb	r2, [r3, #0]
    11de:	e03a      	b.n	1256 <__STACK_SIZE+0x256>
    11e0:	4b40      	ldr	r3, [pc, #256]	@ (12e4 <__STACK_SIZE+0x2e4>)
    11e2:	2201      	movs	r2, #1
    11e4:	701a      	strb	r2, [r3, #0]
    11e6:	e036      	b.n	1256 <__STACK_SIZE+0x256>
    11e8:	4b3f      	ldr	r3, [pc, #252]	@ (12e8 <__STACK_SIZE+0x2e8>)
    11ea:	2201      	movs	r2, #1
    11ec:	701a      	strb	r2, [r3, #0]
    11ee:	e032      	b.n	1256 <__STACK_SIZE+0x256>
    11f0:	4b3e      	ldr	r3, [pc, #248]	@ (12ec <__STACK_SIZE+0x2ec>)
    11f2:	2201      	movs	r2, #1
    11f4:	701a      	strb	r2, [r3, #0]
    11f6:	e02e      	b.n	1256 <__STACK_SIZE+0x256>
    11f8:	4b3d      	ldr	r3, [pc, #244]	@ (12f0 <__STACK_SIZE+0x2f0>)
    11fa:	2201      	movs	r2, #1
    11fc:	701a      	strb	r2, [r3, #0]
    11fe:	e02a      	b.n	1256 <__STACK_SIZE+0x256>
    1200:	4b3c      	ldr	r3, [pc, #240]	@ (12f4 <__STACK_SIZE+0x2f4>)
    1202:	2201      	movs	r2, #1
    1204:	701a      	strb	r2, [r3, #0]
    1206:	e026      	b.n	1256 <__STACK_SIZE+0x256>
    1208:	4b3b      	ldr	r3, [pc, #236]	@ (12f8 <__STACK_SIZE+0x2f8>)
    120a:	2201      	movs	r2, #1
    120c:	701a      	strb	r2, [r3, #0]
    120e:	e022      	b.n	1256 <__STACK_SIZE+0x256>
    1210:	4b3a      	ldr	r3, [pc, #232]	@ (12fc <__STACK_SIZE+0x2fc>)
    1212:	2201      	movs	r2, #1
    1214:	701a      	strb	r2, [r3, #0]
    1216:	e01e      	b.n	1256 <__STACK_SIZE+0x256>
    1218:	4b39      	ldr	r3, [pc, #228]	@ (1300 <__STACK_SIZE+0x300>)
    121a:	2201      	movs	r2, #1
    121c:	701a      	strb	r2, [r3, #0]
    121e:	e01a      	b.n	1256 <__STACK_SIZE+0x256>
    1220:	4b38      	ldr	r3, [pc, #224]	@ (1304 <__STACK_SIZE+0x304>)
    1222:	2201      	movs	r2, #1
    1224:	701a      	strb	r2, [r3, #0]
    1226:	e016      	b.n	1256 <__STACK_SIZE+0x256>
    1228:	4b37      	ldr	r3, [pc, #220]	@ (1308 <__STACK_SIZE+0x308>)
    122a:	2201      	movs	r2, #1
    122c:	701a      	strb	r2, [r3, #0]
    122e:	e012      	b.n	1256 <__STACK_SIZE+0x256>
    1230:	4b36      	ldr	r3, [pc, #216]	@ (130c <__STACK_SIZE+0x30c>)
    1232:	2201      	movs	r2, #1
    1234:	701a      	strb	r2, [r3, #0]
    1236:	e00e      	b.n	1256 <__STACK_SIZE+0x256>
    1238:	4b35      	ldr	r3, [pc, #212]	@ (1310 <__STACK_SIZE+0x310>)
    123a:	2201      	movs	r2, #1
    123c:	701a      	strb	r2, [r3, #0]
    123e:	e00a      	b.n	1256 <__STACK_SIZE+0x256>
    1240:	4b34      	ldr	r3, [pc, #208]	@ (1314 <__STACK_SIZE+0x314>)
    1242:	2201      	movs	r2, #1
    1244:	701a      	strb	r2, [r3, #0]
    1246:	e006      	b.n	1256 <__STACK_SIZE+0x256>
    1248:	4b33      	ldr	r3, [pc, #204]	@ (1318 <__STACK_SIZE+0x318>)
    124a:	2201      	movs	r2, #1
    124c:	701a      	strb	r2, [r3, #0]
    124e:	e002      	b.n	1256 <__STACK_SIZE+0x256>
    1250:	2304      	movs	r3, #4
    1252:	e001      	b.n	1258 <__STACK_SIZE+0x258>
    1254:	bf00      	nop
    1256:	2300      	movs	r3, #0
    1258:	4618      	mov	r0, r3
    125a:	370c      	adds	r7, #12
    125c:	46bd      	mov	sp, r7
    125e:	f85d 7b04 	ldr.w	r7, [sp], #4
    1262:	4770      	bx	lr
    1264:	42782070 	.word	0x42782070
    1268:	42782060 	.word	0x42782060
    126c:	42782040 	.word	0x42782040
    1270:	42782044 	.word	0x42782044
    1274:	42782048 	.word	0x42782048
    1278:	4278204c 	.word	0x4278204c
    127c:	42782000 	.word	0x42782000
    1280:	42782004 	.word	0x42782004
    1284:	42782008 	.word	0x42782008
    1288:	4278200c 	.word	0x4278200c
    128c:	42782010 	.word	0x42782010
    1290:	42782014 	.word	0x42782014
    1294:	42782018 	.word	0x42782018
    1298:	4278201c 	.word	0x4278201c
    129c:	42782020 	.word	0x42782020
    12a0:	42782024 	.word	0x42782024
    12a4:	42782028 	.word	0x42782028
    12a8:	4278202c 	.word	0x4278202c
    12ac:	42782030 	.word	0x42782030
    12b0:	42782034 	.word	0x42782034
    12b4:	42782038 	.word	0x42782038
    12b8:	4278203c 	.word	0x4278203c
    12bc:	42782240 	.word	0x42782240
    12c0:	42782244 	.word	0x42782244
    12c4:	42782248 	.word	0x42782248
    12c8:	4278224c 	.word	0x4278224c
    12cc:	42782220 	.word	0x42782220
    12d0:	42782224 	.word	0x42782224
    12d4:	42782228 	.word	0x42782228
    12d8:	4278222c 	.word	0x4278222c
    12dc:	42782200 	.word	0x42782200
    12e0:	42782204 	.word	0x42782204
    12e4:	42782208 	.word	0x42782208
    12e8:	4278220c 	.word	0x4278220c
    12ec:	42782068 	.word	0x42782068
    12f0:	42782400 	.word	0x42782400
    12f4:	42782404 	.word	0x42782404
    12f8:	42782410 	.word	0x42782410
    12fc:	42782414 	.word	0x42782414
    1300:	42782418 	.word	0x42782418
    1304:	42782420 	.word	0x42782420
    1308:	42782440 	.word	0x42782440
    130c:	42782444 	.word	0x42782444
    1310:	42782450 	.word	0x42782450
    1314:	42782460 	.word	0x42782460
    1318:	42782464 	.word	0x42782464

0000131c <__NVIC_EnableIRQ>:
    131c:	b480      	push	{r7}
    131e:	b083      	sub	sp, #12
    1320:	af00      	add	r7, sp, #0
    1322:	4603      	mov	r3, r0
    1324:	71fb      	strb	r3, [r7, #7]
    1326:	f997 3007 	ldrsb.w	r3, [r7, #7]
    132a:	2b00      	cmp	r3, #0
    132c:	db0b      	blt.n	1346 <__NVIC_EnableIRQ+0x2a>
    132e:	79fb      	ldrb	r3, [r7, #7]
    1330:	f003 021f 	and.w	r2, r3, #31
    1334:	4907      	ldr	r1, [pc, #28]	@ (1354 <__NVIC_EnableIRQ+0x38>)
    1336:	f997 3007 	ldrsb.w	r3, [r7, #7]
    133a:	095b      	lsrs	r3, r3, #5
    133c:	2001      	movs	r0, #1
    133e:	fa00 f202 	lsl.w	r2, r0, r2
    1342:	f841 2023 	str.w	r2, [r1, r3, lsl #2]
    1346:	bf00      	nop
    1348:	370c      	adds	r7, #12
    134a:	46bd      	mov	sp, r7
    134c:	f85d 7b04 	ldr.w	r7, [sp], #4
    1350:	4770      	bx	lr
    1352:	bf00      	nop
    1354:	e000e100 	.word	0xe000e100

00001358 <__NVIC_ClearPendingIRQ>:
    1358:	b480      	push	{r7}
    135a:	b083      	sub	sp, #12
    135c:	af00      	add	r7, sp, #0
    135e:	4603      	mov	r3, r0
    1360:	71fb      	strb	r3, [r7, #7]
    1362:	f997 3007 	ldrsb.w	r3, [r7, #7]
    1366:	2b00      	cmp	r3, #0
    1368:	db0c      	blt.n	1384 <__NVIC_ClearPendingIRQ+0x2c>
    136a:	79fb      	ldrb	r3, [r7, #7]
    136c:	f003 021f 	and.w	r2, r3, #31
    1370:	4907      	ldr	r1, [pc, #28]	@ (1390 <__NVIC_ClearPendingIRQ+0x38>)
    1372:	f997 3007 	ldrsb.w	r3, [r7, #7]
    1376:	095b      	lsrs	r3, r3, #5
    1378:	2001      	movs	r0, #1
    137a:	fa00 f202 	lsl.w	r2, r0, r2
    137e:	3360      	adds	r3, #96	@ 0x60
    1380:	f841 2023 	str.w	r2, [r1, r3, lsl #2]
    1384:	bf00      	nop
    1386:	370c      	adds	r7, #12
    1388:	46bd      	mov	sp, r7
    138a:	f85d 7b04 	ldr.w	r7, [sp], #4
    138e:	4770      	bx	lr
    1390:	e000e100 	.word	0xe000e100

00001394 <__NVIC_SetPriority>:
    1394:	b480      	push	{r7}
    1396:	b083      	sub	sp, #12
    1398:	af00      	add	r7, sp, #0
    139a:	4603      	mov	r3, r0
    139c:	6039      	str	r1, [r7, #0]
    139e:	71fb      	strb	r3, [r7, #7]
    13a0:	f997 3007 	ldrsb.w	r3, [r7, #7]
    13a4:	2b00      	cmp	r3, #0
    13a6:	db0a      	blt.n	13be <__NVIC_SetPriority+0x2a>
    13a8:	683b      	ldr	r3, [r7, #0]
    13aa:	b2da      	uxtb	r2, r3
    13ac:	490c      	ldr	r1, [pc, #48]	@ (13e0 <__NVIC_SetPriority+0x4c>)
    13ae:	f997 3007 	ldrsb.w	r3, [r7, #7]
    13b2:	0112      	lsls	r2, r2, #4
    13b4:	b2d2      	uxtb	r2, r2
    13b6:	440b      	add	r3, r1
    13b8:	f883 2300 	strb.w	r2, [r3, #768]	@ 0x300
    13bc:	e00a      	b.n	13d4 <__NVIC_SetPriority+0x40>
    13be:	683b      	ldr	r3, [r7, #0]
    13c0:	b2da      	uxtb	r2, r3
    13c2:	4908      	ldr	r1, [pc, #32]	@ (13e4 <__NVIC_SetPriority+0x50>)
    13c4:	79fb      	ldrb	r3, [r7, #7]
    13c6:	f003 030f 	and.w	r3, r3, #15
    13ca:	3b04      	subs	r3, #4
    13cc:	0112      	lsls	r2, r2, #4
    13ce:	b2d2      	uxtb	r2, r2
    13d0:	440b      	add	r3, r1
    13d2:	761a      	strb	r2, [r3, #24]
    13d4:	bf00      	nop
    13d6:	370c      	adds	r7, #12
    13d8:	46bd      	mov	sp, r7
    13da:	f85d 7b04 	ldr.w	r7, [sp], #4
    13de:	4770      	bx	lr
    13e0:	e000e100 	.word	0xe000e100
    13e4:	e000ed00 	.word	0xe000ed00

000013e8 <Dstc_ReleaseStandBy>:
    13e8:	b580      	push	{r7, lr}
    13ea:	b082      	sub	sp, #8
    13ec:	af00      	add	r7, sp, #0
    13ee:	2000      	movs	r0, #0
    13f0:	f000 f91e 	bl	1630 <Dstc_SetCommand>
    13f4:	4b0e      	ldr	r3, [pc, #56]	@ (1430 <Dstc_ReleaseStandBy+0x48>)
    13f6:	607b      	str	r3, [r7, #4]
    13f8:	e002      	b.n	1400 <Dstc_ReleaseStandBy+0x18>
    13fa:	687b      	ldr	r3, [r7, #4]
    13fc:	3b01      	subs	r3, #1
    13fe:	607b      	str	r3, [r7, #4]
    1400:	4b0c      	ldr	r3, [pc, #48]	@ (1434 <Dstc_ReleaseStandBy+0x4c>)
    1402:	7a1b      	ldrb	r3, [r3, #8]
    1404:	b2db      	uxtb	r3, r3
    1406:	2b02      	cmp	r3, #2
    1408:	d102      	bne.n	1410 <Dstc_ReleaseStandBy+0x28>
    140a:	687b      	ldr	r3, [r7, #4]
    140c:	2b00      	cmp	r3, #0
    140e:	d1f4      	bne.n	13fa <Dstc_ReleaseStandBy+0x12>
    1410:	687b      	ldr	r3, [r7, #4]
    1412:	2b00      	cmp	r3, #0
    1414:	d004      	beq.n	1420 <Dstc_ReleaseStandBy+0x38>
    1416:	4b07      	ldr	r3, [pc, #28]	@ (1434 <Dstc_ReleaseStandBy+0x4c>)
    1418:	7a1b      	ldrb	r3, [r3, #8]
    141a:	b2db      	uxtb	r3, r3
    141c:	2b00      	cmp	r3, #0
    141e:	d001      	beq.n	1424 <Dstc_ReleaseStandBy+0x3c>
    1420:	230a      	movs	r3, #10
    1422:	e000      	b.n	1426 <Dstc_ReleaseStandBy+0x3e>
    1424:	2300      	movs	r3, #0
    1426:	4618      	mov	r0, r3
    1428:	3708      	adds	r7, #8
    142a:	46bd      	mov	sp, r7
    142c:	bd80      	pop	{r7, pc}
    142e:	bf00      	nop
    1430:	000186a0 	.word	0x000186a0
    1434:	40061000 	.word	0x40061000

00001438 <Dstc_Init>:
    1438:	b580      	push	{r7, lr}
    143a:	b084      	sub	sp, #16
    143c:	af00      	add	r7, sp, #0
    143e:	6078      	str	r0, [r7, #4]
    1440:	687b      	ldr	r3, [r7, #4]
    1442:	2b00      	cmp	r3, #0
    1444:	d101      	bne.n	144a <Dstc_Init+0x12>
    1446:	2304      	movs	r3, #4
    1448:	e0c6      	b.n	15d8 <Dstc_Init+0x1a0>
    144a:	687b      	ldr	r3, [r7, #4]
    144c:	681b      	ldr	r3, [r3, #0]
    144e:	f003 0303 	and.w	r3, r3, #3
    1452:	2b00      	cmp	r3, #0
    1454:	d001      	beq.n	145a <Dstc_Init+0x22>
    1456:	2302      	movs	r3, #2
    1458:	e0be      	b.n	15d8 <Dstc_Init+0x1a0>
    145a:	f7ff ffc5 	bl	13e8 <Dstc_ReleaseStandBy>
    145e:	4603      	mov	r3, r0
    1460:	2b00      	cmp	r3, #0
    1462:	d001      	beq.n	1468 <Dstc_Init+0x30>
    1464:	230a      	movs	r3, #10
    1466:	e0b7      	b.n	15d8 <Dstc_Init+0x1a0>
    1468:	687b      	ldr	r3, [r7, #4]
    146a:	68db      	ldr	r3, [r3, #12]
    146c:	4a5c      	ldr	r2, [pc, #368]	@ (15e0 <Dstc_Init+0x1a8>)
    146e:	6013      	str	r3, [r2, #0]
    1470:	687b      	ldr	r3, [r7, #4]
    1472:	691b      	ldr	r3, [r3, #16]
    1474:	4a5a      	ldr	r2, [pc, #360]	@ (15e0 <Dstc_Init+0x1a8>)
    1476:	6053      	str	r3, [r2, #4]
    1478:	687b      	ldr	r3, [r7, #4]
    147a:	699b      	ldr	r3, [r3, #24]
    147c:	4a58      	ldr	r2, [pc, #352]	@ (15e0 <Dstc_Init+0x1a8>)
    147e:	60d3      	str	r3, [r2, #12]
    1480:	687b      	ldr	r3, [r7, #4]
    1482:	695b      	ldr	r3, [r3, #20]
    1484:	4a56      	ldr	r2, [pc, #344]	@ (15e0 <Dstc_Init+0x1a8>)
    1486:	6093      	str	r3, [r2, #8]
    1488:	687b      	ldr	r3, [r7, #4]
    148a:	68db      	ldr	r3, [r3, #12]
    148c:	2b00      	cmp	r3, #0
    148e:	d103      	bne.n	1498 <Dstc_Init+0x60>
    1490:	687b      	ldr	r3, [r7, #4]
    1492:	691b      	ldr	r3, [r3, #16]
    1494:	2b00      	cmp	r3, #0
    1496:	d00d      	beq.n	14b4 <Dstc_Init+0x7c>
    1498:	687b      	ldr	r3, [r7, #4]
    149a:	7a5b      	ldrb	r3, [r3, #9]
    149c:	2b01      	cmp	r3, #1
    149e:	d109      	bne.n	14b4 <Dstc_Init+0x7c>
    14a0:	205b      	movs	r0, #91	@ 0x5b
    14a2:	f7ff ff59 	bl	1358 <__NVIC_ClearPendingIRQ>
    14a6:	205b      	movs	r0, #91	@ 0x5b
    14a8:	f7ff ff38 	bl	131c <__NVIC_EnableIRQ>
    14ac:	210f      	movs	r1, #15
    14ae:	205b      	movs	r0, #91	@ 0x5b
    14b0:	f7ff ff70 	bl	1394 <__NVIC_SetPriority>
    14b4:	687b      	ldr	r3, [r7, #4]
    14b6:	699b      	ldr	r3, [r3, #24]
    14b8:	2b00      	cmp	r3, #0
    14ba:	d103      	bne.n	14c4 <Dstc_Init+0x8c>
    14bc:	687b      	ldr	r3, [r7, #4]
    14be:	695b      	ldr	r3, [r3, #20]
    14c0:	2b00      	cmp	r3, #0
    14c2:	d00d      	beq.n	14e0 <Dstc_Init+0xa8>
    14c4:	687b      	ldr	r3, [r7, #4]
    14c6:	7a5b      	ldrb	r3, [r3, #9]
    14c8:	2b01      	cmp	r3, #1
    14ca:	d109      	bne.n	14e0 <Dstc_Init+0xa8>
    14cc:	2070      	movs	r0, #112	@ 0x70
    14ce:	f7ff ff43 	bl	1358 <__NVIC_ClearPendingIRQ>
    14d2:	2070      	movs	r0, #112	@ 0x70
    14d4:	f7ff ff22 	bl	131c <__NVIC_EnableIRQ>
    14d8:	210f      	movs	r1, #15
    14da:	2070      	movs	r0, #112	@ 0x70
    14dc:	f7ff ff5a 	bl	1394 <__NVIC_SetPriority>
    14e0:	4a40      	ldr	r2, [pc, #256]	@ (15e4 <Dstc_Init+0x1ac>)
    14e2:	687b      	ldr	r3, [r7, #4]
    14e4:	681b      	ldr	r3, [r3, #0]
    14e6:	6013      	str	r3, [r2, #0]
    14e8:	687b      	ldr	r3, [r7, #4]
    14ea:	791b      	ldrb	r3, [r3, #4]
    14ec:	2b01      	cmp	r3, #1
    14ee:	d101      	bne.n	14f4 <Dstc_Init+0xbc>
    14f0:	2201      	movs	r2, #1
    14f2:	e000      	b.n	14f6 <Dstc_Init+0xbe>
    14f4:	2200      	movs	r2, #0
    14f6:	7b3b      	ldrb	r3, [r7, #12]
    14f8:	f362 0300 	bfi	r3, r2, #0, #1
    14fc:	733b      	strb	r3, [r7, #12]
    14fe:	687b      	ldr	r3, [r7, #4]
    1500:	795b      	ldrb	r3, [r3, #5]
    1502:	2b01      	cmp	r3, #1
    1504:	d101      	bne.n	150a <Dstc_Init+0xd2>
    1506:	2201      	movs	r2, #1
    1508:	e000      	b.n	150c <Dstc_Init+0xd4>
    150a:	2200      	movs	r2, #0
    150c:	7b3b      	ldrb	r3, [r7, #12]
    150e:	f362 0341 	bfi	r3, r2, #1, #1
    1512:	733b      	strb	r3, [r7, #12]
    1514:	687b      	ldr	r3, [r7, #4]
    1516:	799b      	ldrb	r3, [r3, #6]
    1518:	2b01      	cmp	r3, #1
    151a:	d101      	bne.n	1520 <Dstc_Init+0xe8>
    151c:	2201      	movs	r2, #1
    151e:	e000      	b.n	1522 <Dstc_Init+0xea>
    1520:	2200      	movs	r2, #0
    1522:	7b3b      	ldrb	r3, [r7, #12]
    1524:	f362 0382 	bfi	r3, r2, #2, #1
    1528:	733b      	strb	r3, [r7, #12]
    152a:	687b      	ldr	r3, [r7, #4]
    152c:	79db      	ldrb	r3, [r3, #7]
    152e:	2b01      	cmp	r3, #1
    1530:	d101      	bne.n	1536 <Dstc_Init+0xfe>
    1532:	2201      	movs	r2, #1
    1534:	e000      	b.n	1538 <Dstc_Init+0x100>
    1536:	2200      	movs	r2, #0
    1538:	7b3b      	ldrb	r3, [r7, #12]
    153a:	f362 03c3 	bfi	r3, r2, #3, #1
    153e:	733b      	strb	r3, [r7, #12]
    1540:	687b      	ldr	r3, [r7, #4]
    1542:	7a1b      	ldrb	r3, [r3, #8]
    1544:	2b07      	cmp	r3, #7
    1546:	d841      	bhi.n	15cc <Dstc_Init+0x194>
    1548:	a201      	add	r2, pc, #4	@ (adr r2, 1550 <Dstc_Init+0x118>)
    154a:	f852 f023 	ldr.w	pc, [r2, r3, lsl #2]
    154e:	bf00      	nop
    1550:	00001571 	.word	0x00001571
    1554:	0000157b 	.word	0x0000157b
    1558:	00001587 	.word	0x00001587
    155c:	00001593 	.word	0x00001593
    1560:	0000159f 	.word	0x0000159f
    1564:	000015ab 	.word	0x000015ab
    1568:	000015b7 	.word	0x000015b7
    156c:	000015c3 	.word	0x000015c3
    1570:	7b3b      	ldrb	r3, [r7, #12]
    1572:	f023 0370 	bic.w	r3, r3, #112	@ 0x70
    1576:	733b      	strb	r3, [r7, #12]
    1578:	e02a      	b.n	15d0 <Dstc_Init+0x198>
    157a:	7b3b      	ldrb	r3, [r7, #12]
    157c:	2201      	movs	r2, #1
    157e:	f362 1306 	bfi	r3, r2, #4, #3
    1582:	733b      	strb	r3, [r7, #12]
    1584:	e024      	b.n	15d0 <Dstc_Init+0x198>
    1586:	7b3b      	ldrb	r3, [r7, #12]
    1588:	2202      	movs	r2, #2
    158a:	f362 1306 	bfi	r3, r2, #4, #3
    158e:	733b      	strb	r3, [r7, #12]
    1590:	e01e      	b.n	15d0 <Dstc_Init+0x198>
    1592:	7b3b      	ldrb	r3, [r7, #12]
    1594:	2203      	movs	r2, #3
    1596:	f362 1306 	bfi	r3, r2, #4, #3
    159a:	733b      	strb	r3, [r7, #12]
    159c:	e018      	b.n	15d0 <Dstc_Init+0x198>
    159e:	7b3b      	ldrb	r3, [r7, #12]
    15a0:	2204      	movs	r2, #4
    15a2:	f362 1306 	bfi	r3, r2, #4, #3
    15a6:	733b      	strb	r3, [r7, #12]
    15a8:	e012      	b.n	15d0 <Dstc_Init+0x198>
    15aa:	7b3b      	ldrb	r3, [r7, #12]
    15ac:	2205      	movs	r2, #5
    15ae:	f362 1306 	bfi	r3, r2, #4, #3
    15b2:	733b      	strb	r3, [r7, #12]
    15b4:	e00c      	b.n	15d0 <Dstc_Init+0x198>
    15b6:	7b3b      	ldrb	r3, [r7, #12]
    15b8:	2206      	movs	r2, #6
    15ba:	f362 1306 	bfi	r3, r2, #4, #3
    15be:	733b      	strb	r3, [r7, #12]
    15c0:	e006      	b.n	15d0 <Dstc_Init+0x198>
    15c2:	7b3b      	ldrb	r3, [r7, #12]
    15c4:	f043 0370 	orr.w	r3, r3, #112	@ 0x70
    15c8:	733b      	strb	r3, [r7, #12]
    15ca:	e001      	b.n	15d0 <Dstc_Init+0x198>
    15cc:	2304      	movs	r3, #4
    15ce:	e003      	b.n	15d8 <Dstc_Init+0x1a0>
    15d0:	4a04      	ldr	r2, [pc, #16]	@ (15e4 <Dstc_Init+0x1ac>)
    15d2:	7b3b      	ldrb	r3, [r7, #12]
    15d4:	7253      	strb	r3, [r2, #9]
    15d6:	2300      	movs	r3, #0
    15d8:	4618      	mov	r0, r3
    15da:	3710      	adds	r7, #16
    15dc:	46bd      	mov	sp, r7
    15de:	bd80      	pop	{r7, pc}
    15e0:	1ffd0b98 	.word	0x1ffd0b98
    15e4:	40061000 	.word	0x40061000

000015e8 <Dstc_SetHwdesp>:
    15e8:	b480      	push	{r7}
    15ea:	b083      	sub	sp, #12
    15ec:	af00      	add	r7, sp, #0
    15ee:	4603      	mov	r3, r0
    15f0:	460a      	mov	r2, r1
    15f2:	71fb      	strb	r3, [r7, #7]
    15f4:	4613      	mov	r3, r2
    15f6:	80bb      	strh	r3, [r7, #4]
    15f8:	88bb      	ldrh	r3, [r7, #4]
    15fa:	f5b3 4f80 	cmp.w	r3, #16384	@ 0x4000
    15fe:	d301      	bcc.n	1604 <Dstc_SetHwdesp+0x1c>
    1600:	2304      	movs	r3, #4
    1602:	e00d      	b.n	1620 <Dstc_SetHwdesp+0x38>
    1604:	88bb      	ldrh	r3, [r7, #4]
    1606:	f003 0303 	and.w	r3, r3, #3
    160a:	2b00      	cmp	r3, #0
    160c:	d001      	beq.n	1612 <Dstc_SetHwdesp+0x2a>
    160e:	2302      	movs	r3, #2
    1610:	e006      	b.n	1620 <Dstc_SetHwdesp+0x38>
    1612:	79fa      	ldrb	r2, [r7, #7]
    1614:	88bb      	ldrh	r3, [r7, #4]
    1616:	041b      	lsls	r3, r3, #16
    1618:	4904      	ldr	r1, [pc, #16]	@ (162c <Dstc_SetHwdesp+0x44>)
    161a:	4313      	orrs	r3, r2
    161c:	604b      	str	r3, [r1, #4]
    161e:	2300      	movs	r3, #0
    1620:	4618      	mov	r0, r3
    1622:	370c      	adds	r7, #12
    1624:	46bd      	mov	sp, r7
    1626:	f85d 7b04 	ldr.w	r7, [sp], #4
    162a:	4770      	bx	lr
    162c:	40061000 	.word	0x40061000

00001630 <Dstc_SetCommand>:
    1630:	b480      	push	{r7}
    1632:	b083      	sub	sp, #12
    1634:	af00      	add	r7, sp, #0
    1636:	4603      	mov	r3, r0
    1638:	71fb      	strb	r3, [r7, #7]
    163a:	79fb      	ldrb	r3, [r7, #7]
    163c:	2b05      	cmp	r3, #5
    163e:	d827      	bhi.n	1690 <Dstc_SetCommand+0x60>
    1640:	a201      	add	r2, pc, #4	@ (adr r2, 1648 <Dstc_SetCommand+0x18>)
    1642:	f852 f023 	ldr.w	pc, [r2, r3, lsl #2]
    1646:	bf00      	nop
    1648:	00001661 	.word	0x00001661
    164c:	00001669 	.word	0x00001669
    1650:	00001671 	.word	0x00001671
    1654:	00001679 	.word	0x00001679
    1658:	00001681 	.word	0x00001681
    165c:	00001689 	.word	0x00001689
    1660:	4b10      	ldr	r3, [pc, #64]	@ (16a4 <Dstc_SetCommand+0x74>)
    1662:	2204      	movs	r2, #4
    1664:	721a      	strb	r2, [r3, #8]
    1666:	e015      	b.n	1694 <Dstc_SetCommand+0x64>
    1668:	4b0e      	ldr	r3, [pc, #56]	@ (16a4 <Dstc_SetCommand+0x74>)
    166a:	2208      	movs	r2, #8
    166c:	721a      	strb	r2, [r3, #8]
    166e:	e011      	b.n	1694 <Dstc_SetCommand+0x64>
    1670:	4b0c      	ldr	r3, [pc, #48]	@ (16a4 <Dstc_SetCommand+0x74>)
    1672:	2210      	movs	r2, #16
    1674:	721a      	strb	r2, [r3, #8]
    1676:	e00d      	b.n	1694 <Dstc_SetCommand+0x64>
    1678:	4b0a      	ldr	r3, [pc, #40]	@ (16a4 <Dstc_SetCommand+0x74>)
    167a:	2220      	movs	r2, #32
    167c:	721a      	strb	r2, [r3, #8]
    167e:	e009      	b.n	1694 <Dstc_SetCommand+0x64>
    1680:	4b08      	ldr	r3, [pc, #32]	@ (16a4 <Dstc_SetCommand+0x74>)
    1682:	2240      	movs	r2, #64	@ 0x40
    1684:	721a      	strb	r2, [r3, #8]
    1686:	e005      	b.n	1694 <Dstc_SetCommand+0x64>
    1688:	4b06      	ldr	r3, [pc, #24]	@ (16a4 <Dstc_SetCommand+0x74>)
    168a:	2280      	movs	r2, #128	@ 0x80
    168c:	721a      	strb	r2, [r3, #8]
    168e:	e001      	b.n	1694 <Dstc_SetCommand+0x64>
    1690:	2304      	movs	r3, #4
    1692:	e000      	b.n	1696 <Dstc_SetCommand+0x66>
    1694:	2300      	movs	r3, #0
    1696:	4618      	mov	r0, r3
    1698:	370c      	adds	r7, #12
    169a:	46bd      	mov	sp, r7
    169c:	f85d 7b04 	ldr.w	r7, [sp], #4
    16a0:	4770      	bx	lr
    16a2:	bf00      	nop
    16a4:	40061000 	.word	0x40061000

000016a8 <Dstc_SetDreqenbBit>:
    16a8:	b480      	push	{r7}
    16aa:	b087      	sub	sp, #28
    16ac:	af00      	add	r7, sp, #0
    16ae:	4603      	mov	r3, r0
    16b0:	71fb      	strb	r3, [r7, #7]
    16b2:	79fb      	ldrb	r3, [r7, #7]
    16b4:	f003 031f 	and.w	r3, r3, #31
    16b8:	75fb      	strb	r3, [r7, #23]
    16ba:	7dfb      	ldrb	r3, [r7, #23]
    16bc:	2201      	movs	r2, #1
    16be:	fa02 f303 	lsl.w	r3, r2, r3
    16c2:	613b      	str	r3, [r7, #16]
    16c4:	79fb      	ldrb	r3, [r7, #7]
    16c6:	095b      	lsrs	r3, r3, #5
    16c8:	73fb      	strb	r3, [r7, #15]
    16ca:	7bfa      	ldrb	r2, [r7, #15]
    16cc:	4b09      	ldr	r3, [pc, #36]	@ (16f4 <Dstc_SetDreqenbBit+0x4c>)
    16ce:	4413      	add	r3, r2
    16d0:	009b      	lsls	r3, r3, #2
    16d2:	681a      	ldr	r2, [r3, #0]
    16d4:	7bf9      	ldrb	r1, [r7, #15]
    16d6:	4b07      	ldr	r3, [pc, #28]	@ (16f4 <Dstc_SetDreqenbBit+0x4c>)
    16d8:	440b      	add	r3, r1
    16da:	009b      	lsls	r3, r3, #2
    16dc:	4619      	mov	r1, r3
    16de:	693b      	ldr	r3, [r7, #16]
    16e0:	4313      	orrs	r3, r2
    16e2:	600b      	str	r3, [r1, #0]
    16e4:	2300      	movs	r3, #0
    16e6:	4618      	mov	r0, r3
    16e8:	371c      	adds	r7, #28
    16ea:	46bd      	mov	sp, r7
    16ec:	f85d 7b04 	ldr.w	r7, [sp], #4
    16f0:	4770      	bx	lr
    16f2:	bf00      	nop
    16f4:	10018404 	.word	0x10018404

000016f8 <Dstc_ReadHwintBit>:
    16f8:	b480      	push	{r7}
    16fa:	b087      	sub	sp, #28
    16fc:	af00      	add	r7, sp, #0
    16fe:	4603      	mov	r3, r0
    1700:	71fb      	strb	r3, [r7, #7]
    1702:	79fb      	ldrb	r3, [r7, #7]
    1704:	f003 031f 	and.w	r3, r3, #31
    1708:	75fb      	strb	r3, [r7, #23]
    170a:	7dfb      	ldrb	r3, [r7, #23]
    170c:	2201      	movs	r2, #1
    170e:	fa02 f303 	lsl.w	r3, r2, r3
    1712:	613b      	str	r3, [r7, #16]
    1714:	79fb      	ldrb	r3, [r7, #7]
    1716:	095b      	lsrs	r3, r3, #5
    1718:	73fb      	strb	r3, [r7, #15]
    171a:	7bfa      	ldrb	r2, [r7, #15]
    171c:	4b08      	ldr	r3, [pc, #32]	@ (1740 <Dstc_ReadHwintBit+0x48>)
    171e:	4413      	add	r3, r2
    1720:	009b      	lsls	r3, r3, #2
    1722:	681a      	ldr	r2, [r3, #0]
    1724:	693b      	ldr	r3, [r7, #16]
    1726:	4013      	ands	r3, r2
    1728:	693a      	ldr	r2, [r7, #16]
    172a:	429a      	cmp	r2, r3
    172c:	d101      	bne.n	1732 <Dstc_ReadHwintBit+0x3a>
    172e:	2301      	movs	r3, #1
    1730:	e000      	b.n	1734 <Dstc_ReadHwintBit+0x3c>
    1732:	2300      	movs	r3, #0
    1734:	4618      	mov	r0, r3
    1736:	371c      	adds	r7, #28
    1738:	46bd      	mov	sp, r7
    173a:	f85d 7b04 	ldr.w	r7, [sp], #4
    173e:	4770      	bx	lr
    1740:	1001840c 	.word	0x1001840c

00001744 <Dstc_SetHwintclrBit>:
    1744:	b480      	push	{r7}
    1746:	b087      	sub	sp, #28
    1748:	af00      	add	r7, sp, #0
    174a:	4603      	mov	r3, r0
    174c:	71fb      	strb	r3, [r7, #7]
    174e:	79fb      	ldrb	r3, [r7, #7]
    1750:	f003 031f 	and.w	r3, r3, #31
    1754:	75fb      	strb	r3, [r7, #23]
    1756:	7dfb      	ldrb	r3, [r7, #23]
    1758:	2201      	movs	r2, #1
    175a:	fa02 f303 	lsl.w	r3, r2, r3
    175e:	613b      	str	r3, [r7, #16]
    1760:	79fb      	ldrb	r3, [r7, #7]
    1762:	095b      	lsrs	r3, r3, #5
    1764:	73fb      	strb	r3, [r7, #15]
    1766:	7bfa      	ldrb	r2, [r7, #15]
    1768:	4b06      	ldr	r3, [pc, #24]	@ (1784 <Dstc_SetHwintclrBit+0x40>)
    176a:	4413      	add	r3, r2
    176c:	009b      	lsls	r3, r3, #2
    176e:	461a      	mov	r2, r3
    1770:	693b      	ldr	r3, [r7, #16]
    1772:	6013      	str	r3, [r2, #0]
    1774:	2300      	movs	r3, #0
    1776:	4618      	mov	r0, r3
    1778:	371c      	adds	r7, #28
    177a:	46bd      	mov	sp, r7
    177c:	f85d 7b04 	ldr.w	r7, [sp], #4
    1780:	4770      	bx	lr
    1782:	bf00      	nop
    1784:	10018414 	.word	0x10018414

00001788 <Dstc_SetDqmskclrBit>:
    1788:	b480      	push	{r7}
    178a:	b087      	sub	sp, #28
    178c:	af00      	add	r7, sp, #0
    178e:	4603      	mov	r3, r0
    1790:	71fb      	strb	r3, [r7, #7]
    1792:	79fb      	ldrb	r3, [r7, #7]
    1794:	f003 031f 	and.w	r3, r3, #31
    1798:	75fb      	strb	r3, [r7, #23]
    179a:	7dfb      	ldrb	r3, [r7, #23]
    179c:	2201      	movs	r2, #1
    179e:	fa02 f303 	lsl.w	r3, r2, r3
    17a2:	613b      	str	r3, [r7, #16]
    17a4:	79fb      	ldrb	r3, [r7, #7]
    17a6:	095b      	lsrs	r3, r3, #5
    17a8:	73fb      	strb	r3, [r7, #15]
    17aa:	7bfa      	ldrb	r2, [r7, #15]
    17ac:	4b0a      	ldr	r3, [pc, #40]	@ (17d8 <Dstc_SetDqmskclrBit+0x50>)
    17ae:	4413      	add	r3, r2
    17b0:	009b      	lsls	r3, r3, #2
    17b2:	6819      	ldr	r1, [r3, #0]
    17b4:	693b      	ldr	r3, [r7, #16]
    17b6:	43da      	mvns	r2, r3
    17b8:	7bf8      	ldrb	r0, [r7, #15]
    17ba:	4b07      	ldr	r3, [pc, #28]	@ (17d8 <Dstc_SetDqmskclrBit+0x50>)
    17bc:	4403      	add	r3, r0
    17be:	009b      	lsls	r3, r3, #2
    17c0:	4618      	mov	r0, r3
    17c2:	ea01 0302 	and.w	r3, r1, r2
    17c6:	6003      	str	r3, [r0, #0]
    17c8:	2300      	movs	r3, #0
    17ca:	4618      	mov	r0, r3
    17cc:	371c      	adds	r7, #28
    17ce:	46bd      	mov	sp, r7
    17d0:	f85d 7b04 	ldr.w	r7, [sp], #4
    17d4:	4770      	bx	lr
    17d6:	bf00      	nop
    17d8:	10018424 	.word	0x10018424

000017dc <Dstc_I2sIrqHandler>:
    17dc:	b580      	push	{r7, lr}
    17de:	b084      	sub	sp, #16
    17e0:	af00      	add	r7, sp, #0
    17e2:	4603      	mov	r3, r0
    17e4:	71fb      	strb	r3, [r7, #7]
    17e6:	79fb      	ldrb	r3, [r7, #7]
    17e8:	2bda      	cmp	r3, #218	@ 0xda
    17ea:	d005      	beq.n	17f8 <Dstc_I2sIrqHandler+0x1c>
    17ec:	2bdb      	cmp	r3, #219	@ 0xdb
    17ee:	d107      	bne.n	1800 <Dstc_I2sIrqHandler+0x24>
    17f0:	4b0f      	ldr	r3, [pc, #60]	@ (1830 <Dstc_I2sIrqHandler+0x54>)
    17f2:	68db      	ldr	r3, [r3, #12]
    17f4:	60fb      	str	r3, [r7, #12]
    17f6:	e006      	b.n	1806 <Dstc_I2sIrqHandler+0x2a>
    17f8:	4b0d      	ldr	r3, [pc, #52]	@ (1830 <Dstc_I2sIrqHandler+0x54>)
    17fa:	689b      	ldr	r3, [r3, #8]
    17fc:	60fb      	str	r3, [r7, #12]
    17fe:	e002      	b.n	1806 <Dstc_I2sIrqHandler+0x2a>
    1800:	2300      	movs	r3, #0
    1802:	60fb      	str	r3, [r7, #12]
    1804:	bf00      	nop
    1806:	79fb      	ldrb	r3, [r7, #7]
    1808:	4618      	mov	r0, r3
    180a:	f7ff ff75 	bl	16f8 <Dstc_ReadHwintBit>
    180e:	4603      	mov	r3, r0
    1810:	2b01      	cmp	r3, #1
    1812:	d108      	bne.n	1826 <Dstc_I2sIrqHandler+0x4a>
    1814:	79fb      	ldrb	r3, [r7, #7]
    1816:	4618      	mov	r0, r3
    1818:	f7ff ff94 	bl	1744 <Dstc_SetHwintclrBit>
    181c:	68fb      	ldr	r3, [r7, #12]
    181e:	2b00      	cmp	r3, #0
    1820:	d001      	beq.n	1826 <Dstc_I2sIrqHandler+0x4a>
    1822:	68fb      	ldr	r3, [r7, #12]
    1824:	4798      	blx	r3
    1826:	bf00      	nop
    1828:	3710      	adds	r7, #16
    182a:	46bd      	mov	sp, r7
    182c:	bd80      	pop	{r7, pc}
    182e:	bf00      	nop
    1830:	1ffd0b98 	.word	0x1ffd0b98

00001834 <__NVIC_EnableIRQ>:
    1834:	b480      	push	{r7}
    1836:	b083      	sub	sp, #12
    1838:	af00      	add	r7, sp, #0
    183a:	4603      	mov	r3, r0
    183c:	71fb      	strb	r3, [r7, #7]
    183e:	f997 3007 	ldrsb.w	r3, [r7, #7]
    1842:	2b00      	cmp	r3, #0
    1844:	db0b      	blt.n	185e <__NVIC_EnableIRQ+0x2a>
    1846:	79fb      	ldrb	r3, [r7, #7]
    1848:	f003 021f 	and.w	r2, r3, #31
    184c:	4907      	ldr	r1, [pc, #28]	@ (186c <__NVIC_EnableIRQ+0x38>)
    184e:	f997 3007 	ldrsb.w	r3, [r7, #7]
    1852:	095b      	lsrs	r3, r3, #5
    1854:	2001      	movs	r0, #1
    1856:	fa00 f202 	lsl.w	r2, r0, r2
    185a:	f841 2023 	str.w	r2, [r1, r3, lsl #2]
    185e:	bf00      	nop
    1860:	370c      	adds	r7, #12
    1862:	46bd      	mov	sp, r7
    1864:	f85d 7b04 	ldr.w	r7, [sp], #4
    1868:	4770      	bx	lr
    186a:	bf00      	nop
    186c:	e000e100 	.word	0xe000e100

00001870 <__NVIC_ClearPendingIRQ>:
    1870:	b480      	push	{r7}
    1872:	b083      	sub	sp, #12
    1874:	af00      	add	r7, sp, #0
    1876:	4603      	mov	r3, r0
    1878:	71fb      	strb	r3, [r7, #7]
    187a:	f997 3007 	ldrsb.w	r3, [r7, #7]
    187e:	2b00      	cmp	r3, #0
    1880:	db0c      	blt.n	189c <__NVIC_ClearPendingIRQ+0x2c>
    1882:	79fb      	ldrb	r3, [r7, #7]
    1884:	f003 021f 	and.w	r2, r3, #31
    1888:	4907      	ldr	r1, [pc, #28]	@ (18a8 <__NVIC_ClearPendingIRQ+0x38>)
    188a:	f997 3007 	ldrsb.w	r3, [r7, #7]
    188e:	095b      	lsrs	r3, r3, #5
    1890:	2001      	movs	r0, #1
    1892:	fa00 f202 	lsl.w	r2, r0, r2
    1896:	3360      	adds	r3, #96	@ 0x60
    1898:	f841 2023 	str.w	r2, [r1, r3, lsl #2]
    189c:	bf00      	nop
    189e:	370c      	adds	r7, #12
    18a0:	46bd      	mov	sp, r7
    18a2:	f85d 7b04 	ldr.w	r7, [sp], #4
    18a6:	4770      	bx	lr
    18a8:	e000e100 	.word	0xe000e100

000018ac <__NVIC_SetPriority>:
    18ac:	b480      	push	{r7}
    18ae:	b083      	sub	sp, #12
    18b0:	af00      	add	r7, sp, #0
    18b2:	4603      	mov	r3, r0
    18b4:	6039      	str	r1, [r7, #0]
    18b6:	71fb      	strb	r3, [r7, #7]
    18b8:	f997 3007 	ldrsb.w	r3, [r7, #7]
    18bc:	2b00      	cmp	r3, #0
    18be:	db0a      	blt.n	18d6 <__NVIC_SetPriority+0x2a>
    18c0:	683b      	ldr	r3, [r7, #0]
    18c2:	b2da      	uxtb	r2, r3
    18c4:	490c      	ldr	r1, [pc, #48]	@ (18f8 <__NVIC_SetPriority+0x4c>)
    18c6:	f997 3007 	ldrsb.w	r3, [r7, #7]
    18ca:	0112      	lsls	r2, r2, #4
    18cc:	b2d2      	uxtb	r2, r2
    18ce:	440b      	add	r3, r1
    18d0:	f883 2300 	strb.w	r2, [r3, #768]	@ 0x300
    18d4:	e00a      	b.n	18ec <__NVIC_SetPriority+0x40>
    18d6:	683b      	ldr	r3, [r7, #0]
    18d8:	b2da      	uxtb	r2, r3
    18da:	4908      	ldr	r1, [pc, #32]	@ (18fc <__NVIC_SetPriority+0x50>)
    18dc:	79fb      	ldrb	r3, [r7, #7]
    18de:	f003 030f 	and.w	r3, r3, #15
    18e2:	3b04      	subs	r3, #4
    18e4:	0112      	lsls	r2, r2, #4
    18e6:	b2d2      	uxtb	r2, r2
    18e8:	440b      	add	r3, r1
    18ea:	761a      	strb	r2, [r3, #24]
    18ec:	bf00      	nop
    18ee:	370c      	adds	r7, #12
    18f0:	46bd      	mov	sp, r7
    18f2:	f85d 7b04 	ldr.w	r7, [sp], #4
    18f6:	4770      	bx	lr
    18f8:	e000e100 	.word	0xe000e100
    18fc:	e000ed00 	.word	0xe000ed00

00001900 <I2sGetInternDataPtr>:
    1900:	b480      	push	{r7}
    1902:	b085      	sub	sp, #20
    1904:	af00      	add	r7, sp, #0
    1906:	6078      	str	r0, [r7, #4]
    1908:	2300      	movs	r3, #0
    190a:	73fb      	strb	r3, [r7, #15]
    190c:	e016      	b.n	193c <I2sGetInternDataPtr+0x3c>
    190e:	7bfa      	ldrb	r2, [r7, #15]
    1910:	490f      	ldr	r1, [pc, #60]	@ (1950 <I2sGetInternDataPtr+0x50>)
    1912:	4613      	mov	r3, r2
    1914:	005b      	lsls	r3, r3, #1
    1916:	4413      	add	r3, r2
    1918:	011b      	lsls	r3, r3, #4
    191a:	440b      	add	r3, r1
    191c:	681b      	ldr	r3, [r3, #0]
    191e:	687a      	ldr	r2, [r7, #4]
    1920:	429a      	cmp	r2, r3
    1922:	d108      	bne.n	1936 <I2sGetInternDataPtr+0x36>
    1924:	7bfa      	ldrb	r2, [r7, #15]
    1926:	4613      	mov	r3, r2
    1928:	005b      	lsls	r3, r3, #1
    192a:	4413      	add	r3, r2
    192c:	011b      	lsls	r3, r3, #4
    192e:	4a08      	ldr	r2, [pc, #32]	@ (1950 <I2sGetInternDataPtr+0x50>)
    1930:	4413      	add	r3, r2
    1932:	3304      	adds	r3, #4
    1934:	e006      	b.n	1944 <I2sGetInternDataPtr+0x44>
    1936:	7bfb      	ldrb	r3, [r7, #15]
    1938:	3301      	adds	r3, #1
    193a:	73fb      	strb	r3, [r7, #15]
    193c:	7bfb      	ldrb	r3, [r7, #15]
    193e:	2b00      	cmp	r3, #0
    1940:	d0e5      	beq.n	190e <I2sGetInternDataPtr+0xe>
    1942:	2300      	movs	r3, #0
    1944:	4618      	mov	r0, r3
    1946:	3714      	adds	r7, #20
    1948:	46bd      	mov	sp, r7
    194a:	f85d 7b04 	ldr.w	r7, [sp], #4
    194e:	4770      	bx	lr
    1950:	1ffd004c 	.word	0x1ffd004c

00001954 <I2sIrqHandler>:
    1954:	b580      	push	{r7, lr}
    1956:	b082      	sub	sp, #8
    1958:	af00      	add	r7, sp, #0
    195a:	6078      	str	r0, [r7, #4]
    195c:	6039      	str	r1, [r7, #0]
    195e:	687b      	ldr	r3, [r7, #4]
    1960:	6a5b      	ldr	r3, [r3, #36]	@ 0x24
    1962:	f3c3 73c0 	ubfx	r3, r3, #31, #1
    1966:	b2db      	uxtb	r3, r3
    1968:	2b01      	cmp	r3, #1
    196a:	d10b      	bne.n	1984 <I2sIrqHandler+0x30>
    196c:	687a      	ldr	r2, [r7, #4]
    196e:	6a53      	ldr	r3, [r2, #36]	@ 0x24
    1970:	f023 4300 	bic.w	r3, r3, #2147483648	@ 0x80000000
    1974:	6253      	str	r3, [r2, #36]	@ 0x24
    1976:	683b      	ldr	r3, [r7, #0]
    1978:	689b      	ldr	r3, [r3, #8]
    197a:	2b00      	cmp	r3, #0
    197c:	d002      	beq.n	1984 <I2sIrqHandler+0x30>
    197e:	683b      	ldr	r3, [r7, #0]
    1980:	689b      	ldr	r3, [r3, #8]
    1982:	4798      	blx	r3
    1984:	687b      	ldr	r3, [r7, #4]
    1986:	6a5b      	ldr	r3, [r3, #36]	@ 0x24
    1988:	f3c3 7380 	ubfx	r3, r3, #30, #1
    198c:	b2db      	uxtb	r3, r3
    198e:	2b01      	cmp	r3, #1
    1990:	d10b      	bne.n	19aa <I2sIrqHandler+0x56>
    1992:	687a      	ldr	r2, [r7, #4]
    1994:	6a53      	ldr	r3, [r2, #36]	@ 0x24
    1996:	f023 4380 	bic.w	r3, r3, #1073741824	@ 0x40000000
    199a:	6253      	str	r3, [r2, #36]	@ 0x24
    199c:	683b      	ldr	r3, [r7, #0]
    199e:	699b      	ldr	r3, [r3, #24]
    19a0:	2b00      	cmp	r3, #0
    19a2:	d002      	beq.n	19aa <I2sIrqHandler+0x56>
    19a4:	683b      	ldr	r3, [r7, #0]
    19a6:	699b      	ldr	r3, [r3, #24]
    19a8:	4798      	blx	r3
    19aa:	687b      	ldr	r3, [r7, #4]
    19ac:	6a5b      	ldr	r3, [r3, #36]	@ 0x24
    19ae:	f3c3 7340 	ubfx	r3, r3, #29, #1
    19b2:	b2db      	uxtb	r3, r3
    19b4:	2b01      	cmp	r3, #1
    19b6:	d10b      	bne.n	19d0 <I2sIrqHandler+0x7c>
    19b8:	687a      	ldr	r2, [r7, #4]
    19ba:	6a53      	ldr	r3, [r2, #36]	@ 0x24
    19bc:	f023 5300 	bic.w	r3, r3, #536870912	@ 0x20000000
    19c0:	6253      	str	r3, [r2, #36]	@ 0x24
    19c2:	683b      	ldr	r3, [r7, #0]
    19c4:	68db      	ldr	r3, [r3, #12]
    19c6:	2b00      	cmp	r3, #0
    19c8:	d002      	beq.n	19d0 <I2sIrqHandler+0x7c>
    19ca:	683b      	ldr	r3, [r7, #0]
    19cc:	68db      	ldr	r3, [r3, #12]
    19ce:	4798      	blx	r3
    19d0:	687b      	ldr	r3, [r7, #4]
    19d2:	6a5b      	ldr	r3, [r3, #36]	@ 0x24
    19d4:	f3c3 7300 	ubfx	r3, r3, #28, #1
    19d8:	b2db      	uxtb	r3, r3
    19da:	2b01      	cmp	r3, #1
    19dc:	d10b      	bne.n	19f6 <I2sIrqHandler+0xa2>
    19de:	687a      	ldr	r2, [r7, #4]
    19e0:	6a53      	ldr	r3, [r2, #36]	@ 0x24
    19e2:	f023 5380 	bic.w	r3, r3, #268435456	@ 0x10000000
    19e6:	6253      	str	r3, [r2, #36]	@ 0x24
    19e8:	683b      	ldr	r3, [r7, #0]
    19ea:	685b      	ldr	r3, [r3, #4]
    19ec:	2b00      	cmp	r3, #0
    19ee:	d002      	beq.n	19f6 <I2sIrqHandler+0xa2>
    19f0:	683b      	ldr	r3, [r7, #0]
    19f2:	685b      	ldr	r3, [r3, #4]
    19f4:	4798      	blx	r3
    19f6:	687b      	ldr	r3, [r7, #4]
    19f8:	6a5b      	ldr	r3, [r3, #36]	@ 0x24
    19fa:	f3c3 63c0 	ubfx	r3, r3, #27, #1
    19fe:	b2db      	uxtb	r3, r3
    1a00:	2b01      	cmp	r3, #1
    1a02:	d10b      	bne.n	1a1c <I2sIrqHandler+0xc8>
    1a04:	687a      	ldr	r2, [r7, #4]
    1a06:	6a53      	ldr	r3, [r2, #36]	@ 0x24
    1a08:	f023 6300 	bic.w	r3, r3, #134217728	@ 0x8000000
    1a0c:	6253      	str	r3, [r2, #36]	@ 0x24
    1a0e:	683b      	ldr	r3, [r7, #0]
    1a10:	681b      	ldr	r3, [r3, #0]
    1a12:	2b00      	cmp	r3, #0
    1a14:	d002      	beq.n	1a1c <I2sIrqHandler+0xc8>
    1a16:	683b      	ldr	r3, [r7, #0]
    1a18:	681b      	ldr	r3, [r3, #0]
    1a1a:	4798      	blx	r3
    1a1c:	687b      	ldr	r3, [r7, #4]
    1a1e:	6a5b      	ldr	r3, [r3, #36]	@ 0x24
    1a20:	f3c3 6380 	ubfx	r3, r3, #26, #1
    1a24:	b2db      	uxtb	r3, r3
    1a26:	2b01      	cmp	r3, #1
    1a28:	d10b      	bne.n	1a42 <I2sIrqHandler+0xee>
    1a2a:	687a      	ldr	r2, [r7, #4]
    1a2c:	6a53      	ldr	r3, [r2, #36]	@ 0x24
    1a2e:	f023 6380 	bic.w	r3, r3, #67108864	@ 0x4000000
    1a32:	6253      	str	r3, [r2, #36]	@ 0x24
    1a34:	683b      	ldr	r3, [r7, #0]
    1a36:	691b      	ldr	r3, [r3, #16]
    1a38:	2b00      	cmp	r3, #0
    1a3a:	d002      	beq.n	1a42 <I2sIrqHandler+0xee>
    1a3c:	683b      	ldr	r3, [r7, #0]
    1a3e:	691b      	ldr	r3, [r3, #16]
    1a40:	4798      	blx	r3
    1a42:	687b      	ldr	r3, [r7, #4]
    1a44:	6a5b      	ldr	r3, [r3, #36]	@ 0x24
    1a46:	f3c3 6340 	ubfx	r3, r3, #25, #1
    1a4a:	b2db      	uxtb	r3, r3
    1a4c:	2b01      	cmp	r3, #1
    1a4e:	d10b      	bne.n	1a68 <I2sIrqHandler+0x114>
    1a50:	687a      	ldr	r2, [r7, #4]
    1a52:	6a53      	ldr	r3, [r2, #36]	@ 0x24
    1a54:	f023 7300 	bic.w	r3, r3, #33554432	@ 0x2000000
    1a58:	6253      	str	r3, [r2, #36]	@ 0x24
    1a5a:	683b      	ldr	r3, [r7, #0]
    1a5c:	69db      	ldr	r3, [r3, #28]
    1a5e:	2b00      	cmp	r3, #0
    1a60:	d002      	beq.n	1a68 <I2sIrqHandler+0x114>
    1a62:	683b      	ldr	r3, [r7, #0]
    1a64:	69db      	ldr	r3, [r3, #28]
    1a66:	4798      	blx	r3
    1a68:	687b      	ldr	r3, [r7, #4]
    1a6a:	6a5b      	ldr	r3, [r3, #36]	@ 0x24
    1a6c:	f3c3 6300 	ubfx	r3, r3, #24, #1
    1a70:	b2db      	uxtb	r3, r3
    1a72:	2b01      	cmp	r3, #1
    1a74:	d10b      	bne.n	1a8e <I2sIrqHandler+0x13a>
    1a76:	687a      	ldr	r2, [r7, #4]
    1a78:	6a53      	ldr	r3, [r2, #36]	@ 0x24
    1a7a:	f023 7380 	bic.w	r3, r3, #16777216	@ 0x1000000
    1a7e:	6253      	str	r3, [r2, #36]	@ 0x24
    1a80:	683b      	ldr	r3, [r7, #0]
    1a82:	6a1b      	ldr	r3, [r3, #32]
    1a84:	2b00      	cmp	r3, #0
    1a86:	d002      	beq.n	1a8e <I2sIrqHandler+0x13a>
    1a88:	683b      	ldr	r3, [r7, #0]
    1a8a:	6a1b      	ldr	r3, [r3, #32]
    1a8c:	4798      	blx	r3
    1a8e:	687b      	ldr	r3, [r7, #4]
    1a90:	6a5b      	ldr	r3, [r3, #36]	@ 0x24
    1a92:	f3c3 43c0 	ubfx	r3, r3, #19, #1
    1a96:	b2db      	uxtb	r3, r3
    1a98:	2b01      	cmp	r3, #1
    1a9a:	d10b      	bne.n	1ab4 <I2sIrqHandler+0x160>
    1a9c:	687a      	ldr	r2, [r7, #4]
    1a9e:	6a53      	ldr	r3, [r2, #36]	@ 0x24
    1aa0:	f423 2300 	bic.w	r3, r3, #524288	@ 0x80000
    1aa4:	6253      	str	r3, [r2, #36]	@ 0x24
    1aa6:	683b      	ldr	r3, [r7, #0]
    1aa8:	6a5b      	ldr	r3, [r3, #36]	@ 0x24
    1aaa:	2b00      	cmp	r3, #0
    1aac:	d002      	beq.n	1ab4 <I2sIrqHandler+0x160>
    1aae:	683b      	ldr	r3, [r7, #0]
    1ab0:	6a5b      	ldr	r3, [r3, #36]	@ 0x24
    1ab2:	4798      	blx	r3
    1ab4:	687b      	ldr	r3, [r7, #4]
    1ab6:	6a5b      	ldr	r3, [r3, #36]	@ 0x24
    1ab8:	f3c3 4300 	ubfx	r3, r3, #16, #1
    1abc:	b2db      	uxtb	r3, r3
    1abe:	2b01      	cmp	r3, #1
    1ac0:	d106      	bne.n	1ad0 <I2sIrqHandler+0x17c>
    1ac2:	683b      	ldr	r3, [r7, #0]
    1ac4:	6a9b      	ldr	r3, [r3, #40]	@ 0x28
    1ac6:	2b00      	cmp	r3, #0
    1ac8:	d002      	beq.n	1ad0 <I2sIrqHandler+0x17c>
    1aca:	683b      	ldr	r3, [r7, #0]
    1acc:	6a9b      	ldr	r3, [r3, #40]	@ 0x28
    1ace:	4798      	blx	r3
    1ad0:	687b      	ldr	r3, [r7, #4]
    1ad2:	6a5b      	ldr	r3, [r3, #36]	@ 0x24
    1ad4:	f3c3 4340 	ubfx	r3, r3, #17, #1
    1ad8:	b2db      	uxtb	r3, r3
    1ada:	2b01      	cmp	r3, #1
    1adc:	d107      	bne.n	1aee <I2sIrqHandler+0x19a>
    1ade:	683b      	ldr	r3, [r7, #0]
    1ae0:	695b      	ldr	r3, [r3, #20]
    1ae2:	2b00      	cmp	r3, #0
    1ae4:	d003      	beq.n	1aee <I2sIrqHandler+0x19a>
    1ae6:	683b      	ldr	r3, [r7, #0]
    1ae8:	695b      	ldr	r3, [r3, #20]
    1aea:	4798      	blx	r3
    1aec:	bf00      	nop
    1aee:	bf00      	nop
    1af0:	3708      	adds	r7, #8
    1af2:	46bd      	mov	sp, r7
    1af4:	bd80      	pop	{r7, pc}

00001af6 <I2sInitNvic>:
    1af6:	b580      	push	{r7, lr}
    1af8:	b082      	sub	sp, #8
    1afa:	af00      	add	r7, sp, #0
    1afc:	6078      	str	r0, [r7, #4]
    1afe:	2075      	movs	r0, #117	@ 0x75
    1b00:	f7ff feb6 	bl	1870 <__NVIC_ClearPendingIRQ>
    1b04:	2075      	movs	r0, #117	@ 0x75
    1b06:	f7ff fe95 	bl	1834 <__NVIC_EnableIRQ>
    1b0a:	210f      	movs	r1, #15
    1b0c:	2075      	movs	r0, #117	@ 0x75
    1b0e:	f7ff fecd 	bl	18ac <__NVIC_SetPriority>
    1b12:	bf00      	nop
    1b14:	3708      	adds	r7, #8
    1b16:	46bd      	mov	sp, r7
    1b18:	bd80      	pop	{r7, pc}
	...

00001b1c <I2s_DisablePll>:
    1b1c:	b480      	push	{r7}
    1b1e:	af00      	add	r7, sp, #0
    1b20:	4a05      	ldr	r2, [pc, #20]	@ (1b38 <I2s_DisablePll+0x1c>)
    1b22:	6853      	ldr	r3, [r2, #4]
    1b24:	f023 0301 	bic.w	r3, r3, #1
    1b28:	6053      	str	r3, [r2, #4]
    1b2a:	2300      	movs	r3, #0
    1b2c:	4618      	mov	r0, r3
    1b2e:	46bd      	mov	sp, r7
    1b30:	f85d 7b04 	ldr.w	r7, [sp], #4
    1b34:	4770      	bx	lr
    1b36:	bf00      	nop
    1b38:	4003d000 	.word	0x4003d000

00001b3c <I2s_StartClk>:
    1b3c:	b480      	push	{r7}
    1b3e:	b083      	sub	sp, #12
    1b40:	af00      	add	r7, sp, #0
    1b42:	6078      	str	r0, [r7, #4]
    1b44:	687b      	ldr	r3, [r7, #4]
    1b46:	4a07      	ldr	r2, [pc, #28]	@ (1b64 <I2s_StartClk+0x28>)
    1b48:	4293      	cmp	r3, r2
    1b4a:	d104      	bne.n	1b56 <I2s_StartClk+0x1a>
    1b4c:	4a06      	ldr	r2, [pc, #24]	@ (1b68 <I2s_StartClk+0x2c>)
    1b4e:	6813      	ldr	r3, [r2, #0]
    1b50:	f043 0301 	orr.w	r3, r3, #1
    1b54:	6013      	str	r3, [r2, #0]
    1b56:	bf00      	nop
    1b58:	370c      	adds	r7, #12
    1b5a:	46bd      	mov	sp, r7
    1b5c:	f85d 7b04 	ldr.w	r7, [sp], #4
    1b60:	4770      	bx	lr
    1b62:	bf00      	nop
    1b64:	4006c000 	.word	0x4006c000
    1b68:	4003d000 	.word	0x4003d000

00001b6c <I2s_StopClk>:
    1b6c:	b480      	push	{r7}
    1b6e:	b083      	sub	sp, #12
    1b70:	af00      	add	r7, sp, #0
    1b72:	6078      	str	r0, [r7, #4]
    1b74:	687b      	ldr	r3, [r7, #4]
    1b76:	4a07      	ldr	r2, [pc, #28]	@ (1b94 <I2s_StopClk+0x28>)
    1b78:	4293      	cmp	r3, r2
    1b7a:	d104      	bne.n	1b86 <I2s_StopClk+0x1a>
    1b7c:	4a06      	ldr	r2, [pc, #24]	@ (1b98 <I2s_StopClk+0x2c>)
    1b7e:	6813      	ldr	r3, [r2, #0]
    1b80:	f023 0301 	bic.w	r3, r3, #1
    1b84:	6013      	str	r3, [r2, #0]
    1b86:	bf00      	nop
    1b88:	370c      	adds	r7, #12
    1b8a:	46bd      	mov	sp, r7
    1b8c:	f85d 7b04 	ldr.w	r7, [sp], #4
    1b90:	4770      	bx	lr
    1b92:	bf00      	nop
    1b94:	4006c000 	.word	0x4006c000
    1b98:	4003d000 	.word	0x4003d000

00001b9c <I2s_Init>:
    1b9c:	b580      	push	{r7, lr}
    1b9e:	b084      	sub	sp, #16
    1ba0:	af00      	add	r7, sp, #0
    1ba2:	6078      	str	r0, [r7, #4]
    1ba4:	6039      	str	r1, [r7, #0]
    1ba6:	687b      	ldr	r3, [r7, #4]
    1ba8:	2b00      	cmp	r3, #0
    1baa:	d002      	beq.n	1bb2 <I2s_Init+0x16>
    1bac:	683b      	ldr	r3, [r7, #0]
    1bae:	2b00      	cmp	r3, #0
    1bb0:	d101      	bne.n	1bb6 <I2s_Init+0x1a>
    1bb2:	2304      	movs	r3, #4
    1bb4:	e27d      	b.n	20b2 <I2s_Init+0x516>
    1bb6:	6878      	ldr	r0, [r7, #4]
    1bb8:	f7ff fea2 	bl	1900 <I2sGetInternDataPtr>
    1bbc:	60f8      	str	r0, [r7, #12]
    1bbe:	68fb      	ldr	r3, [r7, #12]
    1bc0:	2b00      	cmp	r3, #0
    1bc2:	d101      	bne.n	1bc8 <I2s_Init+0x2c>
    1bc4:	2304      	movs	r3, #4
    1bc6:	e274      	b.n	20b2 <I2s_Init+0x516>
    1bc8:	687a      	ldr	r2, [r7, #4]
    1bca:	6993      	ldr	r3, [r2, #24]
    1bcc:	f023 0301 	bic.w	r3, r3, #1
    1bd0:	6193      	str	r3, [r2, #24]
    1bd2:	683b      	ldr	r3, [r7, #0]
    1bd4:	781b      	ldrb	r3, [r3, #0]
    1bd6:	f003 033f 	and.w	r3, r3, #63	@ 0x3f
    1bda:	b2d9      	uxtb	r1, r3
    1bdc:	687a      	ldr	r2, [r7, #4]
    1bde:	6893      	ldr	r3, [r2, #8]
    1be0:	f361 639f 	bfi	r3, r1, #26, #6
    1be4:	6093      	str	r3, [r2, #8]
    1be6:	683b      	ldr	r3, [r7, #0]
    1be8:	885b      	ldrh	r3, [r3, #2]
    1bea:	f3c3 0309 	ubfx	r3, r3, #0, #10
    1bee:	b299      	uxth	r1, r3
    1bf0:	687a      	ldr	r2, [r7, #4]
    1bf2:	6893      	ldr	r3, [r2, #8]
    1bf4:	f361 4319 	bfi	r3, r1, #16, #10
    1bf8:	6093      	str	r3, [r2, #8]
    1bfa:	683b      	ldr	r3, [r7, #0]
    1bfc:	791b      	ldrb	r3, [r3, #4]
    1bfe:	f003 0301 	and.w	r3, r3, #1
    1c02:	b2d9      	uxtb	r1, r3
    1c04:	687a      	ldr	r2, [r7, #4]
    1c06:	6893      	ldr	r3, [r2, #8]
    1c08:	f361 338e 	bfi	r3, r1, #14, #1
    1c0c:	6093      	str	r3, [r2, #8]
    1c0e:	683b      	ldr	r3, [r7, #0]
    1c10:	795b      	ldrb	r3, [r3, #5]
    1c12:	f003 0301 	and.w	r3, r3, #1
    1c16:	b2d9      	uxtb	r1, r3
    1c18:	687a      	ldr	r2, [r7, #4]
    1c1a:	6893      	ldr	r3, [r2, #8]
    1c1c:	f361 334d 	bfi	r3, r1, #13, #1
    1c20:	6093      	str	r3, [r2, #8]
    1c22:	683b      	ldr	r3, [r7, #0]
    1c24:	799b      	ldrb	r3, [r3, #6]
    1c26:	f003 0301 	and.w	r3, r3, #1
    1c2a:	b2d9      	uxtb	r1, r3
    1c2c:	687a      	ldr	r2, [r7, #4]
    1c2e:	6893      	ldr	r3, [r2, #8]
    1c30:	f361 330c 	bfi	r3, r1, #12, #1
    1c34:	6093      	str	r3, [r2, #8]
    1c36:	683b      	ldr	r3, [r7, #0]
    1c38:	79db      	ldrb	r3, [r3, #7]
    1c3a:	f003 0301 	and.w	r3, r3, #1
    1c3e:	b2d9      	uxtb	r1, r3
    1c40:	687a      	ldr	r2, [r7, #4]
    1c42:	6893      	ldr	r3, [r2, #8]
    1c44:	f361 23cb 	bfi	r3, r1, #11, #1
    1c48:	6093      	str	r3, [r2, #8]
    1c4a:	683b      	ldr	r3, [r7, #0]
    1c4c:	7a1b      	ldrb	r3, [r3, #8]
    1c4e:	f003 0301 	and.w	r3, r3, #1
    1c52:	b2d9      	uxtb	r1, r3
    1c54:	687a      	ldr	r2, [r7, #4]
    1c56:	6893      	ldr	r3, [r2, #8]
    1c58:	f361 238a 	bfi	r3, r1, #10, #1
    1c5c:	6093      	str	r3, [r2, #8]
    1c5e:	683b      	ldr	r3, [r7, #0]
    1c60:	7a5b      	ldrb	r3, [r3, #9]
    1c62:	f003 0301 	and.w	r3, r3, #1
    1c66:	b2d9      	uxtb	r1, r3
    1c68:	687a      	ldr	r2, [r7, #4]
    1c6a:	6893      	ldr	r3, [r2, #8]
    1c6c:	f361 2349 	bfi	r3, r1, #9, #1
    1c70:	6093      	str	r3, [r2, #8]
    1c72:	683b      	ldr	r3, [r7, #0]
    1c74:	7a9b      	ldrb	r3, [r3, #10]
    1c76:	f003 0301 	and.w	r3, r3, #1
    1c7a:	b2d9      	uxtb	r1, r3
    1c7c:	687a      	ldr	r2, [r7, #4]
    1c7e:	6893      	ldr	r3, [r2, #8]
    1c80:	f361 2308 	bfi	r3, r1, #8, #1
    1c84:	6093      	str	r3, [r2, #8]
    1c86:	683b      	ldr	r3, [r7, #0]
    1c88:	7adb      	ldrb	r3, [r3, #11]
    1c8a:	f003 0301 	and.w	r3, r3, #1
    1c8e:	b2d9      	uxtb	r1, r3
    1c90:	687a      	ldr	r2, [r7, #4]
    1c92:	6893      	ldr	r3, [r2, #8]
    1c94:	f361 13c7 	bfi	r3, r1, #7, #1
    1c98:	6093      	str	r3, [r2, #8]
    1c9a:	683b      	ldr	r3, [r7, #0]
    1c9c:	7b1b      	ldrb	r3, [r3, #12]
    1c9e:	f003 0301 	and.w	r3, r3, #1
    1ca2:	b2d9      	uxtb	r1, r3
    1ca4:	687a      	ldr	r2, [r7, #4]
    1ca6:	6893      	ldr	r3, [r2, #8]
    1ca8:	f361 1304 	bfi	r3, r1, #4, #1
    1cac:	6093      	str	r3, [r2, #8]
    1cae:	683b      	ldr	r3, [r7, #0]
    1cb0:	7b5b      	ldrb	r3, [r3, #13]
    1cb2:	f003 0301 	and.w	r3, r3, #1
    1cb6:	b2d9      	uxtb	r1, r3
    1cb8:	687a      	ldr	r2, [r7, #4]
    1cba:	6893      	ldr	r3, [r2, #8]
    1cbc:	f361 03c3 	bfi	r3, r1, #3, #1
    1cc0:	6093      	str	r3, [r2, #8]
    1cc2:	683b      	ldr	r3, [r7, #0]
    1cc4:	7b9b      	ldrb	r3, [r3, #14]
    1cc6:	f003 0301 	and.w	r3, r3, #1
    1cca:	b2d9      	uxtb	r1, r3
    1ccc:	687a      	ldr	r2, [r7, #4]
    1cce:	6893      	ldr	r3, [r2, #8]
    1cd0:	f361 0382 	bfi	r3, r1, #2, #1
    1cd4:	6093      	str	r3, [r2, #8]
    1cd6:	683b      	ldr	r3, [r7, #0]
    1cd8:	7bdb      	ldrb	r3, [r3, #15]
    1cda:	f003 0301 	and.w	r3, r3, #1
    1cde:	b2d9      	uxtb	r1, r3
    1ce0:	687a      	ldr	r2, [r7, #4]
    1ce2:	6893      	ldr	r3, [r2, #8]
    1ce4:	f361 0341 	bfi	r3, r1, #1, #1
    1ce8:	6093      	str	r3, [r2, #8]
    1cea:	683b      	ldr	r3, [r7, #0]
    1cec:	7c1b      	ldrb	r3, [r3, #16]
    1cee:	f003 0301 	and.w	r3, r3, #1
    1cf2:	b2d9      	uxtb	r1, r3
    1cf4:	687a      	ldr	r2, [r7, #4]
    1cf6:	6893      	ldr	r3, [r2, #8]
    1cf8:	f361 0300 	bfi	r3, r1, #0, #1
    1cfc:	6093      	str	r3, [r2, #8]
    1cfe:	683b      	ldr	r3, [r7, #0]
    1d00:	7c5b      	ldrb	r3, [r3, #17]
    1d02:	f003 031f 	and.w	r3, r3, #31
    1d06:	b2d9      	uxtb	r1, r3
    1d08:	687a      	ldr	r2, [r7, #4]
    1d0a:	68d3      	ldr	r3, [r2, #12]
    1d0c:	f361 238e 	bfi	r3, r1, #10, #5
    1d10:	60d3      	str	r3, [r2, #12]
    1d12:	683b      	ldr	r3, [r7, #0]
    1d14:	7c9b      	ldrb	r3, [r3, #18]
    1d16:	f003 031f 	and.w	r3, r3, #31
    1d1a:	b2d9      	uxtb	r1, r3
    1d1c:	687a      	ldr	r2, [r7, #4]
    1d1e:	68d3      	ldr	r3, [r2, #12]
    1d20:	f361 1349 	bfi	r3, r1, #5, #5
    1d24:	60d3      	str	r3, [r2, #12]
    1d26:	683b      	ldr	r3, [r7, #0]
    1d28:	7cdb      	ldrb	r3, [r3, #19]
    1d2a:	f003 031f 	and.w	r3, r3, #31
    1d2e:	b2d9      	uxtb	r1, r3
    1d30:	687a      	ldr	r2, [r7, #4]
    1d32:	68d3      	ldr	r3, [r2, #12]
    1d34:	f361 0304 	bfi	r3, r1, #0, #5
    1d38:	60d3      	str	r3, [r2, #12]
    1d3a:	683b      	ldr	r3, [r7, #0]
    1d3c:	7d1b      	ldrb	r3, [r3, #20]
    1d3e:	f003 031f 	and.w	r3, r3, #31
    1d42:	b2d9      	uxtb	r1, r3
    1d44:	687a      	ldr	r2, [r7, #4]
    1d46:	68d3      	ldr	r3, [r2, #12]
    1d48:	f361 639e 	bfi	r3, r1, #26, #5
    1d4c:	60d3      	str	r3, [r2, #12]
    1d4e:	683b      	ldr	r3, [r7, #0]
    1d50:	7d5b      	ldrb	r3, [r3, #21]
    1d52:	f003 031f 	and.w	r3, r3, #31
    1d56:	b2d9      	uxtb	r1, r3
    1d58:	687a      	ldr	r2, [r7, #4]
    1d5a:	68d3      	ldr	r3, [r2, #12]
    1d5c:	f361 5359 	bfi	r3, r1, #21, #5
    1d60:	60d3      	str	r3, [r2, #12]
    1d62:	683b      	ldr	r3, [r7, #0]
    1d64:	7d9b      	ldrb	r3, [r3, #22]
    1d66:	f003 031f 	and.w	r3, r3, #31
    1d6a:	b2d9      	uxtb	r1, r3
    1d6c:	687a      	ldr	r2, [r7, #4]
    1d6e:	68d3      	ldr	r3, [r2, #12]
    1d70:	f361 4314 	bfi	r3, r1, #16, #5
    1d74:	60d3      	str	r3, [r2, #12]
    1d76:	683b      	ldr	r3, [r7, #0]
    1d78:	699a      	ldr	r2, [r3, #24]
    1d7a:	687b      	ldr	r3, [r7, #4]
    1d7c:	611a      	str	r2, [r3, #16]
    1d7e:	683b      	ldr	r3, [r7, #0]
    1d80:	69da      	ldr	r2, [r3, #28]
    1d82:	687b      	ldr	r3, [r7, #4]
    1d84:	615a      	str	r2, [r3, #20]
    1d86:	683b      	ldr	r3, [r7, #0]
    1d88:	f893 3025 	ldrb.w	r3, [r3, #37]	@ 0x25
    1d8c:	2b01      	cmp	r3, #1
    1d8e:	bf14      	ite	ne
    1d90:	2301      	movne	r3, #1
    1d92:	2300      	moveq	r3, #0
    1d94:	b2db      	uxtb	r3, r3
    1d96:	f003 0301 	and.w	r3, r3, #1
    1d9a:	b2d9      	uxtb	r1, r3
    1d9c:	687a      	ldr	r2, [r7, #4]
    1d9e:	6a13      	ldr	r3, [r2, #32]
    1da0:	f361 6359 	bfi	r3, r1, #25, #1
    1da4:	6213      	str	r3, [r2, #32]
    1da6:	683b      	ldr	r3, [r7, #0]
    1da8:	f893 3026 	ldrb.w	r3, [r3, #38]	@ 0x26
    1dac:	2b01      	cmp	r3, #1
    1dae:	bf14      	ite	ne
    1db0:	2301      	movne	r3, #1
    1db2:	2300      	moveq	r3, #0
    1db4:	b2db      	uxtb	r3, r3
    1db6:	f003 0301 	and.w	r3, r3, #1
    1dba:	b2d9      	uxtb	r1, r3
    1dbc:	687a      	ldr	r2, [r7, #4]
    1dbe:	6a13      	ldr	r3, [r2, #32]
    1dc0:	f361 4351 	bfi	r3, r1, #17, #1
    1dc4:	6213      	str	r3, [r2, #32]
    1dc6:	683b      	ldr	r3, [r7, #0]
    1dc8:	f893 3020 	ldrb.w	r3, [r3, #32]
    1dcc:	f003 030f 	and.w	r3, r3, #15
    1dd0:	b2d9      	uxtb	r1, r3
    1dd2:	687a      	ldr	r2, [r7, #4]
    1dd4:	6a13      	ldr	r3, [r2, #32]
    1dd6:	f361 230b 	bfi	r3, r1, #8, #4
    1dda:	6213      	str	r3, [r2, #32]
    1ddc:	683b      	ldr	r3, [r7, #0]
    1dde:	f893 3021 	ldrb.w	r3, [r3, #33]	@ 0x21
    1de2:	f003 030f 	and.w	r3, r3, #15
    1de6:	b2d9      	uxtb	r1, r3
    1de8:	687a      	ldr	r2, [r7, #4]
    1dea:	6a13      	ldr	r3, [r2, #32]
    1dec:	f361 0303 	bfi	r3, r1, #0, #4
    1df0:	6213      	str	r3, [r2, #32]
    1df2:	683b      	ldr	r3, [r7, #0]
    1df4:	f893 3022 	ldrb.w	r3, [r3, #34]	@ 0x22
    1df8:	2b03      	cmp	r3, #3
    1dfa:	d825      	bhi.n	1e48 <I2s_Init+0x2ac>
    1dfc:	a201      	add	r2, pc, #4	@ (adr r2, 1e04 <I2s_Init+0x268>)
    1dfe:	f852 f023 	ldr.w	pc, [r2, r3, lsl #2]
    1e02:	bf00      	nop
    1e04:	00001e15 	.word	0x00001e15
    1e08:	00001e21 	.word	0x00001e21
    1e0c:	00001e2f 	.word	0x00001e2f
    1e10:	00001e3d 	.word	0x00001e3d
    1e14:	687a      	ldr	r2, [r7, #4]
    1e16:	6a13      	ldr	r3, [r2, #32]
    1e18:	f023 0330 	bic.w	r3, r3, #48	@ 0x30
    1e1c:	6213      	str	r3, [r2, #32]
    1e1e:	e015      	b.n	1e4c <I2s_Init+0x2b0>
    1e20:	687a      	ldr	r2, [r7, #4]
    1e22:	6a13      	ldr	r3, [r2, #32]
    1e24:	2101      	movs	r1, #1
    1e26:	f361 1305 	bfi	r3, r1, #4, #2
    1e2a:	6213      	str	r3, [r2, #32]
    1e2c:	e00e      	b.n	1e4c <I2s_Init+0x2b0>
    1e2e:	687a      	ldr	r2, [r7, #4]
    1e30:	6a13      	ldr	r3, [r2, #32]
    1e32:	2102      	movs	r1, #2
    1e34:	f361 1305 	bfi	r3, r1, #4, #2
    1e38:	6213      	str	r3, [r2, #32]
    1e3a:	e007      	b.n	1e4c <I2s_Init+0x2b0>
    1e3c:	687a      	ldr	r2, [r7, #4]
    1e3e:	6a13      	ldr	r3, [r2, #32]
    1e40:	f043 0330 	orr.w	r3, r3, #48	@ 0x30
    1e44:	6213      	str	r3, [r2, #32]
    1e46:	e001      	b.n	1e4c <I2s_Init+0x2b0>
    1e48:	2304      	movs	r3, #4
    1e4a:	e132      	b.n	20b2 <I2s_Init+0x516>
    1e4c:	683b      	ldr	r3, [r7, #0]
    1e4e:	6a9b      	ldr	r3, [r3, #40]	@ 0x28
    1e50:	2b00      	cmp	r3, #0
    1e52:	f000 80b0 	beq.w	1fb6 <I2s_Init+0x41a>
    1e56:	683b      	ldr	r3, [r7, #0]
    1e58:	6a9b      	ldr	r3, [r3, #40]	@ 0x28
    1e5a:	781b      	ldrb	r3, [r3, #0]
    1e5c:	2b01      	cmp	r3, #1
    1e5e:	bf14      	ite	ne
    1e60:	2301      	movne	r3, #1
    1e62:	2300      	moveq	r3, #0
    1e64:	b2db      	uxtb	r3, r3
    1e66:	f003 0301 	and.w	r3, r3, #1
    1e6a:	b2d9      	uxtb	r1, r3
    1e6c:	687a      	ldr	r2, [r7, #4]
    1e6e:	6a13      	ldr	r3, [r2, #32]
    1e70:	f361 63db 	bfi	r3, r1, #27, #1
    1e74:	6213      	str	r3, [r2, #32]
    1e76:	683b      	ldr	r3, [r7, #0]
    1e78:	6a9b      	ldr	r3, [r3, #40]	@ 0x28
    1e7a:	785b      	ldrb	r3, [r3, #1]
    1e7c:	2b01      	cmp	r3, #1
    1e7e:	bf14      	ite	ne
    1e80:	2301      	movne	r3, #1
    1e82:	2300      	moveq	r3, #0
    1e84:	b2db      	uxtb	r3, r3
    1e86:	f003 0301 	and.w	r3, r3, #1
    1e8a:	b2d9      	uxtb	r1, r3
    1e8c:	687a      	ldr	r2, [r7, #4]
    1e8e:	6a13      	ldr	r3, [r2, #32]
    1e90:	f361 739e 	bfi	r3, r1, #30, #1
    1e94:	6213      	str	r3, [r2, #32]
    1e96:	683b      	ldr	r3, [r7, #0]
    1e98:	6a9b      	ldr	r3, [r3, #40]	@ 0x28
    1e9a:	789b      	ldrb	r3, [r3, #2]
    1e9c:	2b01      	cmp	r3, #1
    1e9e:	bf14      	ite	ne
    1ea0:	2301      	movne	r3, #1
    1ea2:	2300      	moveq	r3, #0
    1ea4:	b2db      	uxtb	r3, r3
    1ea6:	f003 0301 	and.w	r3, r3, #1
    1eaa:	b2d9      	uxtb	r1, r3
    1eac:	687a      	ldr	r2, [r7, #4]
    1eae:	6a13      	ldr	r3, [r2, #32]
    1eb0:	f361 735d 	bfi	r3, r1, #29, #1
    1eb4:	6213      	str	r3, [r2, #32]
    1eb6:	683b      	ldr	r3, [r7, #0]
    1eb8:	6a9b      	ldr	r3, [r3, #40]	@ 0x28
    1eba:	78db      	ldrb	r3, [r3, #3]
    1ebc:	2b01      	cmp	r3, #1
    1ebe:	bf14      	ite	ne
    1ec0:	2301      	movne	r3, #1
    1ec2:	2300      	moveq	r3, #0
    1ec4:	b2db      	uxtb	r3, r3
    1ec6:	f003 0301 	and.w	r3, r3, #1
    1eca:	b2d9      	uxtb	r1, r3
    1ecc:	687a      	ldr	r2, [r7, #4]
    1ece:	6a13      	ldr	r3, [r2, #32]
    1ed0:	f361 731c 	bfi	r3, r1, #28, #1
    1ed4:	6213      	str	r3, [r2, #32]
    1ed6:	683b      	ldr	r3, [r7, #0]
    1ed8:	6a9b      	ldr	r3, [r3, #40]	@ 0x28
    1eda:	791b      	ldrb	r3, [r3, #4]
    1edc:	2b01      	cmp	r3, #1
    1ede:	bf14      	ite	ne
    1ee0:	2301      	movne	r3, #1
    1ee2:	2300      	moveq	r3, #0
    1ee4:	b2db      	uxtb	r3, r3
    1ee6:	f003 0301 	and.w	r3, r3, #1
    1eea:	b2d9      	uxtb	r1, r3
    1eec:	687a      	ldr	r2, [r7, #4]
    1eee:	6a13      	ldr	r3, [r2, #32]
    1ef0:	f361 639a 	bfi	r3, r1, #26, #1
    1ef4:	6213      	str	r3, [r2, #32]
    1ef6:	683b      	ldr	r3, [r7, #0]
    1ef8:	6a9b      	ldr	r3, [r3, #40]	@ 0x28
    1efa:	795b      	ldrb	r3, [r3, #5]
    1efc:	2b01      	cmp	r3, #1
    1efe:	bf14      	ite	ne
    1f00:	2301      	movne	r3, #1
    1f02:	2300      	moveq	r3, #0
    1f04:	b2db      	uxtb	r3, r3
    1f06:	f003 0301 	and.w	r3, r3, #1
    1f0a:	b2d9      	uxtb	r1, r3
    1f0c:	687a      	ldr	r2, [r7, #4]
    1f0e:	6a13      	ldr	r3, [r2, #32]
    1f10:	f361 6318 	bfi	r3, r1, #24, #1
    1f14:	6213      	str	r3, [r2, #32]
    1f16:	683b      	ldr	r3, [r7, #0]
    1f18:	6a9b      	ldr	r3, [r3, #40]	@ 0x28
    1f1a:	799b      	ldrb	r3, [r3, #6]
    1f1c:	2b01      	cmp	r3, #1
    1f1e:	bf14      	ite	ne
    1f20:	2301      	movne	r3, #1
    1f22:	2300      	moveq	r3, #0
    1f24:	b2db      	uxtb	r3, r3
    1f26:	f003 0301 	and.w	r3, r3, #1
    1f2a:	b2d9      	uxtb	r1, r3
    1f2c:	687a      	ldr	r2, [r7, #4]
    1f2e:	6a13      	ldr	r3, [r2, #32]
    1f30:	f361 5355 	bfi	r3, r1, #21, #1
    1f34:	6213      	str	r3, [r2, #32]
    1f36:	683b      	ldr	r3, [r7, #0]
    1f38:	6a9b      	ldr	r3, [r3, #40]	@ 0x28
    1f3a:	79db      	ldrb	r3, [r3, #7]
    1f3c:	2b01      	cmp	r3, #1
    1f3e:	bf14      	ite	ne
    1f40:	2301      	movne	r3, #1
    1f42:	2300      	moveq	r3, #0
    1f44:	b2db      	uxtb	r3, r3
    1f46:	f003 0301 	and.w	r3, r3, #1
    1f4a:	b2d9      	uxtb	r1, r3
    1f4c:	687a      	ldr	r2, [r7, #4]
    1f4e:	6a13      	ldr	r3, [r2, #32]
    1f50:	f361 5314 	bfi	r3, r1, #20, #1
    1f54:	6213      	str	r3, [r2, #32]
    1f56:	683b      	ldr	r3, [r7, #0]
    1f58:	6a9b      	ldr	r3, [r3, #40]	@ 0x28
    1f5a:	7a1b      	ldrb	r3, [r3, #8]
    1f5c:	2b01      	cmp	r3, #1
    1f5e:	bf14      	ite	ne
    1f60:	2301      	movne	r3, #1
    1f62:	2300      	moveq	r3, #0
    1f64:	b2db      	uxtb	r3, r3
    1f66:	f003 0301 	and.w	r3, r3, #1
    1f6a:	b2d9      	uxtb	r1, r3
    1f6c:	687a      	ldr	r2, [r7, #4]
    1f6e:	6a13      	ldr	r3, [r2, #32]
    1f70:	f361 43d3 	bfi	r3, r1, #19, #1
    1f74:	6213      	str	r3, [r2, #32]
    1f76:	683b      	ldr	r3, [r7, #0]
    1f78:	6a9b      	ldr	r3, [r3, #40]	@ 0x28
    1f7a:	7a5b      	ldrb	r3, [r3, #9]
    1f7c:	2b01      	cmp	r3, #1
    1f7e:	bf14      	ite	ne
    1f80:	2301      	movne	r3, #1
    1f82:	2300      	moveq	r3, #0
    1f84:	b2db      	uxtb	r3, r3
    1f86:	f003 0301 	and.w	r3, r3, #1
    1f8a:	b2d9      	uxtb	r1, r3
    1f8c:	687a      	ldr	r2, [r7, #4]
    1f8e:	6a13      	ldr	r3, [r2, #32]
    1f90:	f361 4392 	bfi	r3, r1, #18, #1
    1f94:	6213      	str	r3, [r2, #32]
    1f96:	683b      	ldr	r3, [r7, #0]
    1f98:	6a9b      	ldr	r3, [r3, #40]	@ 0x28
    1f9a:	7a9b      	ldrb	r3, [r3, #10]
    1f9c:	2b01      	cmp	r3, #1
    1f9e:	bf14      	ite	ne
    1fa0:	2301      	movne	r3, #1
    1fa2:	2300      	moveq	r3, #0
    1fa4:	b2db      	uxtb	r3, r3
    1fa6:	f003 0301 	and.w	r3, r3, #1
    1faa:	b2d9      	uxtb	r1, r3
    1fac:	687a      	ldr	r2, [r7, #4]
    1fae:	6a13      	ldr	r3, [r2, #32]
    1fb0:	f361 4310 	bfi	r3, r1, #16, #1
    1fb4:	6213      	str	r3, [r2, #32]
    1fb6:	683b      	ldr	r3, [r7, #0]
    1fb8:	6adb      	ldr	r3, [r3, #44]	@ 0x2c
    1fba:	2b00      	cmp	r3, #0
    1fbc:	d036      	beq.n	202c <I2s_Init+0x490>
    1fbe:	683b      	ldr	r3, [r7, #0]
    1fc0:	6adb      	ldr	r3, [r3, #44]	@ 0x2c
    1fc2:	681a      	ldr	r2, [r3, #0]
    1fc4:	68fb      	ldr	r3, [r7, #12]
    1fc6:	601a      	str	r2, [r3, #0]
    1fc8:	683b      	ldr	r3, [r7, #0]
    1fca:	6adb      	ldr	r3, [r3, #44]	@ 0x2c
    1fcc:	685a      	ldr	r2, [r3, #4]
    1fce:	68fb      	ldr	r3, [r7, #12]
    1fd0:	605a      	str	r2, [r3, #4]
    1fd2:	683b      	ldr	r3, [r7, #0]
    1fd4:	6adb      	ldr	r3, [r3, #44]	@ 0x2c
    1fd6:	689a      	ldr	r2, [r3, #8]
    1fd8:	68fb      	ldr	r3, [r7, #12]
    1fda:	609a      	str	r2, [r3, #8]
    1fdc:	683b      	ldr	r3, [r7, #0]
    1fde:	6adb      	ldr	r3, [r3, #44]	@ 0x2c
    1fe0:	68da      	ldr	r2, [r3, #12]
    1fe2:	68fb      	ldr	r3, [r7, #12]
    1fe4:	60da      	str	r2, [r3, #12]
    1fe6:	683b      	ldr	r3, [r7, #0]
    1fe8:	6adb      	ldr	r3, [r3, #44]	@ 0x2c
    1fea:	691a      	ldr	r2, [r3, #16]
    1fec:	68fb      	ldr	r3, [r7, #12]
    1fee:	611a      	str	r2, [r3, #16]
    1ff0:	683b      	ldr	r3, [r7, #0]
    1ff2:	6adb      	ldr	r3, [r3, #44]	@ 0x2c
    1ff4:	695a      	ldr	r2, [r3, #20]
    1ff6:	68fb      	ldr	r3, [r7, #12]
    1ff8:	615a      	str	r2, [r3, #20]
    1ffa:	683b      	ldr	r3, [r7, #0]
    1ffc:	6adb      	ldr	r3, [r3, #44]	@ 0x2c
    1ffe:	699a      	ldr	r2, [r3, #24]
    2000:	68fb      	ldr	r3, [r7, #12]
    2002:	619a      	str	r2, [r3, #24]
    2004:	683b      	ldr	r3, [r7, #0]
    2006:	6adb      	ldr	r3, [r3, #44]	@ 0x2c
    2008:	69da      	ldr	r2, [r3, #28]
    200a:	68fb      	ldr	r3, [r7, #12]
    200c:	61da      	str	r2, [r3, #28]
    200e:	683b      	ldr	r3, [r7, #0]
    2010:	6adb      	ldr	r3, [r3, #44]	@ 0x2c
    2012:	6a1a      	ldr	r2, [r3, #32]
    2014:	68fb      	ldr	r3, [r7, #12]
    2016:	621a      	str	r2, [r3, #32]
    2018:	683b      	ldr	r3, [r7, #0]
    201a:	6adb      	ldr	r3, [r3, #44]	@ 0x2c
    201c:	6a5a      	ldr	r2, [r3, #36]	@ 0x24
    201e:	68fb      	ldr	r3, [r7, #12]
    2020:	625a      	str	r2, [r3, #36]	@ 0x24
    2022:	683b      	ldr	r3, [r7, #0]
    2024:	6adb      	ldr	r3, [r3, #44]	@ 0x2c
    2026:	6a9a      	ldr	r2, [r3, #40]	@ 0x28
    2028:	68fb      	ldr	r3, [r7, #12]
    202a:	629a      	str	r2, [r3, #40]	@ 0x28
    202c:	683b      	ldr	r3, [r7, #0]
    202e:	f893 3030 	ldrb.w	r3, [r3, #48]	@ 0x30
    2032:	2b01      	cmp	r3, #1
    2034:	d102      	bne.n	203c <I2s_Init+0x4a0>
    2036:	6878      	ldr	r0, [r7, #4]
    2038:	f7ff fd5d 	bl	1af6 <I2sInitNvic>
    203c:	683b      	ldr	r3, [r7, #0]
    203e:	f893 3023 	ldrb.w	r3, [r3, #35]	@ 0x23
    2042:	2b00      	cmp	r3, #0
    2044:	bf14      	ite	ne
    2046:	2301      	movne	r3, #1
    2048:	2300      	moveq	r3, #0
    204a:	b2db      	uxtb	r3, r3
    204c:	f003 0301 	and.w	r3, r3, #1
    2050:	b2d9      	uxtb	r1, r3
    2052:	687a      	ldr	r2, [r7, #4]
    2054:	6993      	ldr	r3, [r2, #24]
    2056:	f361 4310 	bfi	r3, r1, #16, #1
    205a:	6193      	str	r3, [r2, #24]
    205c:	683b      	ldr	r3, [r7, #0]
    205e:	f893 3023 	ldrb.w	r3, [r3, #35]	@ 0x23
    2062:	2b00      	cmp	r3, #0
    2064:	d101      	bne.n	206a <I2s_Init+0x4ce>
    2066:	2101      	movs	r1, #1
    2068:	e000      	b.n	206c <I2s_Init+0x4d0>
    206a:	2100      	movs	r1, #0
    206c:	687a      	ldr	r2, [r7, #4]
    206e:	6893      	ldr	r3, [r2, #8]
    2070:	f361 1386 	bfi	r3, r1, #6, #1
    2074:	6093      	str	r3, [r2, #8]
    2076:	683b      	ldr	r3, [r7, #0]
    2078:	f893 3024 	ldrb.w	r3, [r3, #36]	@ 0x24
    207c:	2b00      	cmp	r3, #0
    207e:	bf14      	ite	ne
    2080:	2301      	movne	r3, #1
    2082:	2300      	moveq	r3, #0
    2084:	b2db      	uxtb	r3, r3
    2086:	f003 0301 	and.w	r3, r3, #1
    208a:	b2d9      	uxtb	r1, r3
    208c:	687a      	ldr	r2, [r7, #4]
    208e:	6993      	ldr	r3, [r2, #24]
    2090:	f361 6318 	bfi	r3, r1, #24, #1
    2094:	6193      	str	r3, [r2, #24]
    2096:	683b      	ldr	r3, [r7, #0]
    2098:	f893 3024 	ldrb.w	r3, [r3, #36]	@ 0x24
    209c:	2b00      	cmp	r3, #0
    209e:	d101      	bne.n	20a4 <I2s_Init+0x508>
    20a0:	2101      	movs	r1, #1
    20a2:	e000      	b.n	20a6 <I2s_Init+0x50a>
    20a4:	2100      	movs	r1, #0
    20a6:	687a      	ldr	r2, [r7, #4]
    20a8:	6893      	ldr	r3, [r2, #8]
    20aa:	f361 1345 	bfi	r3, r1, #5, #1
    20ae:	6093      	str	r3, [r2, #8]
    20b0:	2300      	movs	r3, #0
    20b2:	4618      	mov	r0, r3
    20b4:	3710      	adds	r7, #16
    20b6:	46bd      	mov	sp, r7
    20b8:	bd80      	pop	{r7, pc}
    20ba:	bf00      	nop

000020bc <I2s_Start>:
    20bc:	b480      	push	{r7}
    20be:	b083      	sub	sp, #12
    20c0:	af00      	add	r7, sp, #0
    20c2:	6078      	str	r0, [r7, #4]
    20c4:	687a      	ldr	r2, [r7, #4]
    20c6:	6993      	ldr	r3, [r2, #24]
    20c8:	f043 0301 	orr.w	r3, r3, #1
    20cc:	6193      	str	r3, [r2, #24]
    20ce:	2300      	movs	r3, #0
    20d0:	4618      	mov	r0, r3
    20d2:	370c      	adds	r7, #12
    20d4:	46bd      	mov	sp, r7
    20d6:	f85d 7b04 	ldr.w	r7, [sp], #4
    20da:	4770      	bx	lr

000020dc <I2s_EnableTx>:
    20dc:	b480      	push	{r7}
    20de:	b083      	sub	sp, #12
    20e0:	af00      	add	r7, sp, #0
    20e2:	6078      	str	r0, [r7, #4]
    20e4:	687a      	ldr	r2, [r7, #4]
    20e6:	6993      	ldr	r3, [r2, #24]
    20e8:	f443 3380 	orr.w	r3, r3, #65536	@ 0x10000
    20ec:	6193      	str	r3, [r2, #24]
    20ee:	687a      	ldr	r2, [r7, #4]
    20f0:	6893      	ldr	r3, [r2, #8]
    20f2:	f023 0340 	bic.w	r3, r3, #64	@ 0x40
    20f6:	6093      	str	r3, [r2, #8]
    20f8:	2300      	movs	r3, #0
    20fa:	4618      	mov	r0, r3
    20fc:	370c      	adds	r7, #12
    20fe:	46bd      	mov	sp, r7
    2100:	f85d 7b04 	ldr.w	r7, [sp], #4
    2104:	4770      	bx	lr

00002106 <I2s_EnableRx>:
    2106:	b480      	push	{r7}
    2108:	b083      	sub	sp, #12
    210a:	af00      	add	r7, sp, #0
    210c:	6078      	str	r0, [r7, #4]
    210e:	687a      	ldr	r2, [r7, #4]
    2110:	6993      	ldr	r3, [r2, #24]
    2112:	f043 7380 	orr.w	r3, r3, #16777216	@ 0x1000000
    2116:	6193      	str	r3, [r2, #24]
    2118:	687a      	ldr	r2, [r7, #4]
    211a:	6893      	ldr	r3, [r2, #8]
    211c:	f023 0320 	bic.w	r3, r3, #32
    2120:	6093      	str	r3, [r2, #8]
    2122:	2300      	movs	r3, #0
    2124:	4618      	mov	r0, r3
    2126:	370c      	adds	r7, #12
    2128:	46bd      	mov	sp, r7
    212a:	f85d 7b04 	ldr.w	r7, [sp], #4
    212e:	4770      	bx	lr

00002130 <PCRC_I2S0_1_IRQHandler>:
    2130:	b580      	push	{r7, lr}
    2132:	b082      	sub	sp, #8
    2134:	af00      	add	r7, sp, #0
    2136:	4b08      	ldr	r3, [pc, #32]	@ (2158 <PCRC_I2S0_1_IRQHandler+0x28>)
    2138:	f8d3 33d8 	ldr.w	r3, [r3, #984]	@ 0x3d8
    213c:	607b      	str	r3, [r7, #4]
    213e:	687b      	ldr	r3, [r7, #4]
    2140:	f003 0301 	and.w	r3, r3, #1
    2144:	2b00      	cmp	r3, #0
    2146:	d003      	beq.n	2150 <PCRC_I2S0_1_IRQHandler+0x20>
    2148:	4904      	ldr	r1, [pc, #16]	@ (215c <PCRC_I2S0_1_IRQHandler+0x2c>)
    214a:	4805      	ldr	r0, [pc, #20]	@ (2160 <PCRC_I2S0_1_IRQHandler+0x30>)
    214c:	f7ff fc02 	bl	1954 <I2sIrqHandler>
    2150:	bf00      	nop
    2152:	3708      	adds	r7, #8
    2154:	46bd      	mov	sp, r7
    2156:	bd80      	pop	{r7, pc}
    2158:	40031000 	.word	0x40031000
    215c:	1ffd0050 	.word	0x1ffd0050
    2160:	4006c000 	.word	0x4006c000

00002164 <DSTC_HW_IRQHandler>:
    2164:	b580      	push	{r7, lr}
    2166:	af00      	add	r7, sp, #0
    2168:	20da      	movs	r0, #218	@ 0xda
    216a:	f7ff fac5 	bl	16f8 <Dstc_ReadHwintBit>
    216e:	4603      	mov	r3, r0
    2170:	2b01      	cmp	r3, #1
    2172:	d102      	bne.n	217a <DSTC_HW_IRQHandler+0x16>
    2174:	20da      	movs	r0, #218	@ 0xda
    2176:	f7ff fb31 	bl	17dc <Dstc_I2sIrqHandler>
    217a:	20db      	movs	r0, #219	@ 0xdb
    217c:	f7ff fabc 	bl	16f8 <Dstc_ReadHwintBit>
    2180:	4603      	mov	r3, r0
    2182:	2b01      	cmp	r3, #1
    2184:	d102      	bne.n	218c <DSTC_HW_IRQHandler+0x28>
    2186:	20db      	movs	r0, #219	@ 0xdb
    2188:	f7ff fb28 	bl	17dc <Dstc_I2sIrqHandler>
    218c:	bf00      	nop
    218e:	bd80      	pop	{r7, pc}

00002190 <I2cCheckErrorStatus>:
    2190:	b580      	push	{r7, lr}
    2192:	af00      	add	r7, sp, #0
    2194:	4b0c      	ldr	r3, [pc, #48]	@ (21c8 <I2cCheckErrorStatus+0x38>)
    2196:	681b      	ldr	r3, [r3, #0]
    2198:	2109      	movs	r1, #9
    219a:	4618      	mov	r0, r3
    219c:	f7fe fe4e 	bl	e3c <Mfs_I2c_GetStatus>
    21a0:	4603      	mov	r3, r0
    21a2:	2b01      	cmp	r3, #1
    21a4:	d101      	bne.n	21aa <I2cCheckErrorStatus+0x1a>
    21a6:	2301      	movs	r3, #1
    21a8:	e00b      	b.n	21c2 <I2cCheckErrorStatus+0x32>
    21aa:	4b07      	ldr	r3, [pc, #28]	@ (21c8 <I2cCheckErrorStatus+0x38>)
    21ac:	681b      	ldr	r3, [r3, #0]
    21ae:	2100      	movs	r1, #0
    21b0:	4618      	mov	r0, r3
    21b2:	f7fe fe43 	bl	e3c <Mfs_I2c_GetStatus>
    21b6:	4603      	mov	r3, r0
    21b8:	2b01      	cmp	r3, #1
    21ba:	d101      	bne.n	21c0 <I2cCheckErrorStatus+0x30>
    21bc:	2301      	movs	r3, #1
    21be:	e000      	b.n	21c2 <I2cCheckErrorStatus+0x32>
    21c0:	2300      	movs	r3, #0
    21c2:	4618      	mov	r0, r3
    21c4:	bd80      	pop	{r7, pc}
    21c6:	bf00      	nop
    21c8:	1ffd0ba8 	.word	0x1ffd0ba8

000021cc <I2cStart>:
    21cc:	b580      	push	{r7, lr}
    21ce:	b082      	sub	sp, #8
    21d0:	af00      	add	r7, sp, #0
    21d2:	4603      	mov	r3, r0
    21d4:	71fb      	strb	r3, [r7, #7]
    21d6:	4b1c      	ldr	r3, [pc, #112]	@ (2248 <I2cStart+0x7c>)
    21d8:	681b      	ldr	r3, [r3, #0]
    21da:	79fa      	ldrb	r2, [r7, #7]
    21dc:	4611      	mov	r1, r2
    21de:	4618      	mov	r0, r3
    21e0:	f7fe fdda 	bl	d98 <Mfs_I2c_SendData>
    21e4:	4b18      	ldr	r3, [pc, #96]	@ (2248 <I2cStart+0x7c>)
    21e6:	681b      	ldr	r3, [r3, #0]
    21e8:	2100      	movs	r1, #0
    21ea:	4618      	mov	r0, r3
    21ec:	f7fe fdea 	bl	dc4 <Mfs_I2c_ConfigAck>
    21f0:	4b15      	ldr	r3, [pc, #84]	@ (2248 <I2cStart+0x7c>)
    21f2:	681b      	ldr	r3, [r3, #0]
    21f4:	4618      	mov	r0, r3
    21f6:	f7fe fd6d 	bl	cd4 <Mfs_I2c_GenerateStart>
    21fa:	4603      	mov	r3, r0
    21fc:	2b00      	cmp	r3, #0
    21fe:	d001      	beq.n	2204 <I2cStart+0x38>
    2200:	2309      	movs	r3, #9
    2202:	e01c      	b.n	223e <I2cStart+0x72>
    2204:	4b10      	ldr	r3, [pc, #64]	@ (2248 <I2cStart+0x7c>)
    2206:	681b      	ldr	r3, [r3, #0]
    2208:	210a      	movs	r1, #10
    220a:	4618      	mov	r0, r3
    220c:	f7fe fe16 	bl	e3c <Mfs_I2c_GetStatus>
    2210:	4603      	mov	r3, r0
    2212:	2b01      	cmp	r3, #1
    2214:	d100      	bne.n	2218 <I2cStart+0x4c>
    2216:	e7f5      	b.n	2204 <I2cStart+0x38>
    2218:	bf00      	nop
    221a:	4b0b      	ldr	r3, [pc, #44]	@ (2248 <I2cStart+0x7c>)
    221c:	681b      	ldr	r3, [r3, #0]
    221e:	4618      	mov	r0, r3
    2220:	f7fe fdfa 	bl	e18 <Mfs_I2c_GetAck>
    2224:	4603      	mov	r3, r0
    2226:	2b01      	cmp	r3, #1
    2228:	d101      	bne.n	222e <I2cStart+0x62>
    222a:	2301      	movs	r3, #1
    222c:	e007      	b.n	223e <I2cStart+0x72>
    222e:	f7ff ffaf 	bl	2190 <I2cCheckErrorStatus>
    2232:	4603      	mov	r3, r0
    2234:	2b01      	cmp	r3, #1
    2236:	d101      	bne.n	223c <I2cStart+0x70>
    2238:	2301      	movs	r3, #1
    223a:	e000      	b.n	223e <I2cStart+0x72>
    223c:	2300      	movs	r3, #0
    223e:	4618      	mov	r0, r3
    2240:	3708      	adds	r7, #8
    2242:	46bd      	mov	sp, r7
    2244:	bd80      	pop	{r7, pc}
    2246:	bf00      	nop
    2248:	1ffd0ba8 	.word	0x1ffd0ba8

0000224c <I2cSendData>:
    224c:	b580      	push	{r7, lr}
    224e:	b084      	sub	sp, #16
    2250:	af00      	add	r7, sp, #0
    2252:	6078      	str	r0, [r7, #4]
    2254:	460b      	mov	r3, r1
    2256:	70fb      	strb	r3, [r7, #3]
    2258:	2300      	movs	r3, #0
    225a:	73fb      	strb	r3, [r7, #15]
    225c:	2300      	movs	r3, #0
    225e:	73fb      	strb	r3, [r7, #15]
    2260:	e038      	b.n	22d4 <I2cSendData+0x88>
    2262:	4b21      	ldr	r3, [pc, #132]	@ (22e8 <I2cSendData+0x9c>)
    2264:	681b      	ldr	r3, [r3, #0]
    2266:	210a      	movs	r1, #10
    2268:	4618      	mov	r0, r3
    226a:	f7fe fde7 	bl	e3c <Mfs_I2c_GetStatus>
    226e:	4603      	mov	r3, r0
    2270:	2b01      	cmp	r3, #1
    2272:	d000      	beq.n	2276 <I2cSendData+0x2a>
    2274:	e7f5      	b.n	2262 <I2cSendData+0x16>
    2276:	bf00      	nop
    2278:	4b1b      	ldr	r3, [pc, #108]	@ (22e8 <I2cSendData+0x9c>)
    227a:	6818      	ldr	r0, [r3, #0]
    227c:	7bfb      	ldrb	r3, [r7, #15]
    227e:	687a      	ldr	r2, [r7, #4]
    2280:	4413      	add	r3, r2
    2282:	781b      	ldrb	r3, [r3, #0]
    2284:	4619      	mov	r1, r3
    2286:	f7fe fd87 	bl	d98 <Mfs_I2c_SendData>
    228a:	4b17      	ldr	r3, [pc, #92]	@ (22e8 <I2cSendData+0x9c>)
    228c:	681b      	ldr	r3, [r3, #0]
    228e:	210a      	movs	r1, #10
    2290:	4618      	mov	r0, r3
    2292:	f7fe fe63 	bl	f5c <Mfs_I2c_ClrStatus>
    2296:	4b14      	ldr	r3, [pc, #80]	@ (22e8 <I2cSendData+0x9c>)
    2298:	681b      	ldr	r3, [r3, #0]
    229a:	2102      	movs	r1, #2
    229c:	4618      	mov	r0, r3
    229e:	f7fe fdcd 	bl	e3c <Mfs_I2c_GetStatus>
    22a2:	4603      	mov	r3, r0
    22a4:	2b01      	cmp	r3, #1
    22a6:	d000      	beq.n	22aa <I2cSendData+0x5e>
    22a8:	e7f5      	b.n	2296 <I2cSendData+0x4a>
    22aa:	bf00      	nop
    22ac:	4b0e      	ldr	r3, [pc, #56]	@ (22e8 <I2cSendData+0x9c>)
    22ae:	681b      	ldr	r3, [r3, #0]
    22b0:	4618      	mov	r0, r3
    22b2:	f7fe fdb1 	bl	e18 <Mfs_I2c_GetAck>
    22b6:	4603      	mov	r3, r0
    22b8:	2b01      	cmp	r3, #1
    22ba:	d101      	bne.n	22c0 <I2cSendData+0x74>
    22bc:	2301      	movs	r3, #1
    22be:	e00e      	b.n	22de <I2cSendData+0x92>
    22c0:	f7ff ff66 	bl	2190 <I2cCheckErrorStatus>
    22c4:	4603      	mov	r3, r0
    22c6:	2b01      	cmp	r3, #1
    22c8:	d101      	bne.n	22ce <I2cSendData+0x82>
    22ca:	2301      	movs	r3, #1
    22cc:	e007      	b.n	22de <I2cSendData+0x92>
    22ce:	7bfb      	ldrb	r3, [r7, #15]
    22d0:	3301      	adds	r3, #1
    22d2:	73fb      	strb	r3, [r7, #15]
    22d4:	7bfa      	ldrb	r2, [r7, #15]
    22d6:	78fb      	ldrb	r3, [r7, #3]
    22d8:	429a      	cmp	r2, r3
    22da:	d3c2      	bcc.n	2262 <I2cSendData+0x16>
    22dc:	2300      	movs	r3, #0
    22de:	4618      	mov	r0, r3
    22e0:	3710      	adds	r7, #16
    22e2:	46bd      	mov	sp, r7
    22e4:	bd80      	pop	{r7, pc}
    22e6:	bf00      	nop
    22e8:	1ffd0ba8 	.word	0x1ffd0ba8

000022ec <I2cStop>:
    22ec:	b580      	push	{r7, lr}
    22ee:	af00      	add	r7, sp, #0
    22f0:	4b17      	ldr	r3, [pc, #92]	@ (2350 <I2cStop+0x64>)
    22f2:	681b      	ldr	r3, [r3, #0]
    22f4:	4618      	mov	r0, r3
    22f6:	f7fe fd1d 	bl	d34 <Mfs_I2c_GenerateStop>
    22fa:	4603      	mov	r3, r0
    22fc:	2b00      	cmp	r3, #0
    22fe:	d001      	beq.n	2304 <I2cStop+0x18>
    2300:	2309      	movs	r3, #9
    2302:	e022      	b.n	234a <I2cStop+0x5e>
    2304:	4b12      	ldr	r3, [pc, #72]	@ (2350 <I2cStop+0x64>)
    2306:	681b      	ldr	r3, [r3, #0]
    2308:	2107      	movs	r1, #7
    230a:	4618      	mov	r0, r3
    230c:	f7fe fd96 	bl	e3c <Mfs_I2c_GetStatus>
    2310:	4603      	mov	r3, r0
    2312:	2b01      	cmp	r3, #1
    2314:	d000      	beq.n	2318 <I2cStop+0x2c>
    2316:	e7f5      	b.n	2304 <I2cStop+0x18>
    2318:	bf00      	nop
    231a:	4b0d      	ldr	r3, [pc, #52]	@ (2350 <I2cStop+0x64>)
    231c:	681b      	ldr	r3, [r3, #0]
    231e:	2109      	movs	r1, #9
    2320:	4618      	mov	r0, r3
    2322:	f7fe fd8b 	bl	e3c <Mfs_I2c_GetStatus>
    2326:	4603      	mov	r3, r0
    2328:	2b01      	cmp	r3, #1
    232a:	d101      	bne.n	2330 <I2cStop+0x44>
    232c:	2301      	movs	r3, #1
    232e:	e00c      	b.n	234a <I2cStop+0x5e>
    2330:	4b07      	ldr	r3, [pc, #28]	@ (2350 <I2cStop+0x64>)
    2332:	681b      	ldr	r3, [r3, #0]
    2334:	2107      	movs	r1, #7
    2336:	4618      	mov	r0, r3
    2338:	f7fe fe10 	bl	f5c <Mfs_I2c_ClrStatus>
    233c:	4b04      	ldr	r3, [pc, #16]	@ (2350 <I2cStop+0x64>)
    233e:	681b      	ldr	r3, [r3, #0]
    2340:	210a      	movs	r1, #10
    2342:	4618      	mov	r0, r3
    2344:	f7fe fe0a 	bl	f5c <Mfs_I2c_ClrStatus>
    2348:	2300      	movs	r3, #0
    234a:	4618      	mov	r0, r3
    234c:	bd80      	pop	{r7, pc}
    234e:	bf00      	nop
    2350:	1ffd0ba8 	.word	0x1ffd0ba8

00002354 <Wm8731_SendCmd>:
    2354:	b580      	push	{r7, lr}
    2356:	b084      	sub	sp, #16
    2358:	af00      	add	r7, sp, #0
    235a:	4603      	mov	r3, r0
    235c:	460a      	mov	r2, r1
    235e:	71fb      	strb	r3, [r7, #7]
    2360:	4613      	mov	r3, r2
    2362:	80bb      	strh	r3, [r7, #4]
    2364:	f997 3007 	ldrsb.w	r3, [r7, #7]
    2368:	005b      	lsls	r3, r3, #1
    236a:	b25a      	sxtb	r2, r3
    236c:	88bb      	ldrh	r3, [r7, #4]
    236e:	0a1b      	lsrs	r3, r3, #8
    2370:	b29b      	uxth	r3, r3
    2372:	b25b      	sxtb	r3, r3
    2374:	f003 0301 	and.w	r3, r3, #1
    2378:	b25b      	sxtb	r3, r3
    237a:	4313      	orrs	r3, r2
    237c:	b25b      	sxtb	r3, r3
    237e:	b2db      	uxtb	r3, r3
    2380:	733b      	strb	r3, [r7, #12]
    2382:	88bb      	ldrh	r3, [r7, #4]
    2384:	b2db      	uxtb	r3, r3
    2386:	737b      	strb	r3, [r7, #13]
    2388:	2034      	movs	r0, #52	@ 0x34
    238a:	f7ff ff1f 	bl	21cc <I2cStart>
    238e:	f107 030c 	add.w	r3, r7, #12
    2392:	2102      	movs	r1, #2
    2394:	4618      	mov	r0, r3
    2396:	f7ff ff59 	bl	224c <I2cSendData>
    239a:	f7ff ffa7 	bl	22ec <I2cStop>
    239e:	bf00      	nop
    23a0:	3710      	adds	r7, #16
    23a2:	46bd      	mov	sp, r7
    23a4:	bd80      	pop	{r7, pc}
	...

000023a8 <Wm8731_Init>:
    23a8:	b580      	push	{r7, lr}
    23aa:	b086      	sub	sp, #24
    23ac:	af00      	add	r7, sp, #0
    23ae:	6078      	str	r0, [r7, #4]
    23b0:	6039      	str	r1, [r7, #0]
    23b2:	687b      	ldr	r3, [r7, #4]
    23b4:	2b00      	cmp	r3, #0
    23b6:	d002      	beq.n	23be <Wm8731_Init+0x16>
    23b8:	683b      	ldr	r3, [r7, #0]
    23ba:	2b00      	cmp	r3, #0
    23bc:	d101      	bne.n	23c2 <Wm8731_Init+0x1a>
    23be:	2304      	movs	r3, #4
    23c0:	e07b      	b.n	24ba <Wm8731_Init+0x112>
    23c2:	f107 0308 	add.w	r3, r7, #8
    23c6:	2110      	movs	r1, #16
    23c8:	4618      	mov	r0, r3
    23ca:	f7fd ff95 	bl	2f8 <pdl_memclr>
    23ce:	4a3d      	ldr	r2, [pc, #244]	@ (24c4 <Wm8731_Init+0x11c>)
    23d0:	687b      	ldr	r3, [r7, #4]
    23d2:	6013      	str	r3, [r2, #0]
    23d4:	2300      	movs	r3, #0
    23d6:	723b      	strb	r3, [r7, #8]
    23d8:	4b3b      	ldr	r3, [pc, #236]	@ (24c8 <Wm8731_Init+0x120>)
    23da:	60fb      	str	r3, [r7, #12]
    23dc:	2300      	movs	r3, #0
    23de:	74bb      	strb	r3, [r7, #18]
    23e0:	2300      	movs	r3, #0
    23e2:	74fb      	strb	r3, [r7, #19]
    23e4:	2300      	movs	r3, #0
    23e6:	617b      	str	r3, [r7, #20]
    23e8:	4b36      	ldr	r3, [pc, #216]	@ (24c4 <Wm8731_Init+0x11c>)
    23ea:	681b      	ldr	r3, [r3, #0]
    23ec:	f107 0208 	add.w	r2, r7, #8
    23f0:	4611      	mov	r1, r2
    23f2:	4618      	mov	r0, r3
    23f4:	f7fe fb56 	bl	aa4 <Mfs_I2c_Init>
    23f8:	4603      	mov	r3, r0
    23fa:	2b00      	cmp	r3, #0
    23fc:	d001      	beq.n	2402 <Wm8731_Init+0x5a>
    23fe:	2301      	movs	r3, #1
    2400:	e05b      	b.n	24ba <Wm8731_Init+0x112>
    2402:	683b      	ldr	r3, [r7, #0]
    2404:	8a9b      	ldrh	r3, [r3, #20]
    2406:	b29b      	uxth	r3, r3
    2408:	4619      	mov	r1, r3
    240a:	200f      	movs	r0, #15
    240c:	f7ff ffa2 	bl	2354 <Wm8731_SendCmd>
    2410:	2112      	movs	r1, #18
    2412:	2006      	movs	r0, #6
    2414:	f7ff ff9e 	bl	2354 <Wm8731_SendCmd>
    2418:	683b      	ldr	r3, [r7, #0]
    241a:	881b      	ldrh	r3, [r3, #0]
    241c:	b29b      	uxth	r3, r3
    241e:	4619      	mov	r1, r3
    2420:	2000      	movs	r0, #0
    2422:	f7ff ff97 	bl	2354 <Wm8731_SendCmd>
    2426:	683b      	ldr	r3, [r7, #0]
    2428:	885b      	ldrh	r3, [r3, #2]
    242a:	b29b      	uxth	r3, r3
    242c:	4619      	mov	r1, r3
    242e:	2001      	movs	r0, #1
    2430:	f7ff ff90 	bl	2354 <Wm8731_SendCmd>
    2434:	683b      	ldr	r3, [r7, #0]
    2436:	889b      	ldrh	r3, [r3, #4]
    2438:	b29b      	uxth	r3, r3
    243a:	4619      	mov	r1, r3
    243c:	2002      	movs	r0, #2
    243e:	f7ff ff89 	bl	2354 <Wm8731_SendCmd>
    2442:	683b      	ldr	r3, [r7, #0]
    2444:	88db      	ldrh	r3, [r3, #6]
    2446:	b29b      	uxth	r3, r3
    2448:	4619      	mov	r1, r3
    244a:	2003      	movs	r0, #3
    244c:	f7ff ff82 	bl	2354 <Wm8731_SendCmd>
    2450:	683b      	ldr	r3, [r7, #0]
    2452:	891b      	ldrh	r3, [r3, #8]
    2454:	b29b      	uxth	r3, r3
    2456:	4619      	mov	r1, r3
    2458:	2004      	movs	r0, #4
    245a:	f7ff ff7b 	bl	2354 <Wm8731_SendCmd>
    245e:	683b      	ldr	r3, [r7, #0]
    2460:	895b      	ldrh	r3, [r3, #10]
    2462:	b29b      	uxth	r3, r3
    2464:	4619      	mov	r1, r3
    2466:	2005      	movs	r0, #5
    2468:	f7ff ff74 	bl	2354 <Wm8731_SendCmd>
    246c:	683b      	ldr	r3, [r7, #0]
    246e:	89db      	ldrh	r3, [r3, #14]
    2470:	b29b      	uxth	r3, r3
    2472:	4619      	mov	r1, r3
    2474:	2007      	movs	r0, #7
    2476:	f7ff ff6d 	bl	2354 <Wm8731_SendCmd>
    247a:	683b      	ldr	r3, [r7, #0]
    247c:	8a1b      	ldrh	r3, [r3, #16]
    247e:	b29b      	uxth	r3, r3
    2480:	4619      	mov	r1, r3
    2482:	2008      	movs	r0, #8
    2484:	f7ff ff66 	bl	2354 <Wm8731_SendCmd>
    2488:	683b      	ldr	r3, [r7, #0]
    248a:	8a5b      	ldrh	r3, [r3, #18]
    248c:	b29b      	uxth	r3, r3
    248e:	4619      	mov	r1, r3
    2490:	2009      	movs	r0, #9
    2492:	f7ff ff5f 	bl	2354 <Wm8731_SendCmd>
    2496:	683b      	ldr	r3, [r7, #0]
    2498:	899b      	ldrh	r3, [r3, #12]
    249a:	b29b      	uxth	r3, r3
    249c:	4619      	mov	r1, r3
    249e:	2006      	movs	r0, #6
    24a0:	f7ff ff58 	bl	2354 <Wm8731_SendCmd>
    24a4:	683b      	ldr	r3, [r7, #0]
    24a6:	889b      	ldrh	r3, [r3, #4]
    24a8:	b29a      	uxth	r2, r3
    24aa:	4b08      	ldr	r3, [pc, #32]	@ (24cc <Wm8731_Init+0x124>)
    24ac:	801a      	strh	r2, [r3, #0]
    24ae:	683b      	ldr	r3, [r7, #0]
    24b0:	88db      	ldrh	r3, [r3, #6]
    24b2:	b29a      	uxth	r2, r3
    24b4:	4b06      	ldr	r3, [pc, #24]	@ (24d0 <Wm8731_Init+0x128>)
    24b6:	801a      	strh	r2, [r3, #0]
    24b8:	2300      	movs	r3, #0
    24ba:	4618      	mov	r0, r3
    24bc:	3718      	adds	r7, #24
    24be:	46bd      	mov	sp, r7
    24c0:	bd80      	pop	{r7, pc}
    24c2:	bf00      	nop
    24c4:	1ffd0ba8 	.word	0x1ffd0ba8
    24c8:	00061a80 	.word	0x00061a80
    24cc:	1ffd0bac 	.word	0x1ffd0bac
    24d0:	1ffd0bae 	.word	0x1ffd0bae

000024d4 <_close>:
    24d4:	b480      	push	{r7}
    24d6:	b083      	sub	sp, #12
    24d8:	af00      	add	r7, sp, #0
    24da:	6078      	str	r0, [r7, #4]
    24dc:	f04f 33ff 	mov.w	r3, #4294967295
    24e0:	4618      	mov	r0, r3
    24e2:	370c      	adds	r7, #12
    24e4:	46bd      	mov	sp, r7
    24e6:	f85d 7b04 	ldr.w	r7, [sp], #4
    24ea:	4770      	bx	lr

000024ec <_fstat>:
    24ec:	b480      	push	{r7}
    24ee:	b083      	sub	sp, #12
    24f0:	af00      	add	r7, sp, #0
    24f2:	6078      	str	r0, [r7, #4]
    24f4:	6039      	str	r1, [r7, #0]
    24f6:	683b      	ldr	r3, [r7, #0]
    24f8:	f44f 5200 	mov.w	r2, #8192	@ 0x2000
    24fc:	605a      	str	r2, [r3, #4]
    24fe:	2300      	movs	r3, #0
    2500:	4618      	mov	r0, r3
    2502:	370c      	adds	r7, #12
    2504:	46bd      	mov	sp, r7
    2506:	f85d 7b04 	ldr.w	r7, [sp], #4
    250a:	4770      	bx	lr

0000250c <_getpid>:
    250c:	b480      	push	{r7}
    250e:	af00      	add	r7, sp, #0
    2510:	2301      	movs	r3, #1
    2512:	4618      	mov	r0, r3
    2514:	46bd      	mov	sp, r7
    2516:	f85d 7b04 	ldr.w	r7, [sp], #4
    251a:	4770      	bx	lr

0000251c <_isatty>:
    251c:	b480      	push	{r7}
    251e:	b083      	sub	sp, #12
    2520:	af00      	add	r7, sp, #0
    2522:	6078      	str	r0, [r7, #4]
    2524:	2301      	movs	r3, #1
    2526:	4618      	mov	r0, r3
    2528:	370c      	adds	r7, #12
    252a:	46bd      	mov	sp, r7
    252c:	f85d 7b04 	ldr.w	r7, [sp], #4
    2530:	4770      	bx	lr

00002532 <_kill>:
    2532:	b580      	push	{r7, lr}
    2534:	b082      	sub	sp, #8
    2536:	af00      	add	r7, sp, #0
    2538:	6078      	str	r0, [r7, #4]
    253a:	6039      	str	r1, [r7, #0]
    253c:	f005 ffd8 	bl	84f0 <__errno>
    2540:	4603      	mov	r3, r0
    2542:	2216      	movs	r2, #22
    2544:	601a      	str	r2, [r3, #0]
    2546:	f04f 33ff 	mov.w	r3, #4294967295
    254a:	4618      	mov	r0, r3
    254c:	3708      	adds	r7, #8
    254e:	46bd      	mov	sp, r7
    2550:	bd80      	pop	{r7, pc}

00002552 <_lseek>:
    2552:	b480      	push	{r7}
    2554:	b085      	sub	sp, #20
    2556:	af00      	add	r7, sp, #0
    2558:	60f8      	str	r0, [r7, #12]
    255a:	60b9      	str	r1, [r7, #8]
    255c:	607a      	str	r2, [r7, #4]
    255e:	f04f 33ff 	mov.w	r3, #4294967295
    2562:	4618      	mov	r0, r3
    2564:	3714      	adds	r7, #20
    2566:	46bd      	mov	sp, r7
    2568:	f85d 7b04 	ldr.w	r7, [sp], #4
    256c:	4770      	bx	lr

0000256e <_read>:
    256e:	b480      	push	{r7}
    2570:	b085      	sub	sp, #20
    2572:	af00      	add	r7, sp, #0
    2574:	60f8      	str	r0, [r7, #12]
    2576:	60b9      	str	r1, [r7, #8]
    2578:	607a      	str	r2, [r7, #4]
    257a:	f04f 33ff 	mov.w	r3, #4294967295
    257e:	4618      	mov	r0, r3
    2580:	3714      	adds	r7, #20
    2582:	46bd      	mov	sp, r7
    2584:	f85d 7b04 	ldr.w	r7, [sp], #4
    2588:	4770      	bx	lr

0000258a <_write>:
    258a:	b480      	push	{r7}
    258c:	b085      	sub	sp, #20
    258e:	af00      	add	r7, sp, #0
    2590:	60f8      	str	r0, [r7, #12]
    2592:	60b9      	str	r1, [r7, #8]
    2594:	607a      	str	r2, [r7, #4]
    2596:	f04f 33ff 	mov.w	r3, #4294967295
    259a:	4618      	mov	r0, r3
    259c:	3714      	adds	r7, #20
    259e:	46bd      	mov	sp, r7
    25a0:	f85d 7b04 	ldr.w	r7, [sp], #4
    25a4:	4770      	bx	lr

000025a6 <init_platform(unsigned long, sampling_rate, audio_input)>:
    25a6:	b580      	push	{r7, lr}
    25a8:	b082      	sub	sp, #8
    25aa:	af00      	add	r7, sp, #0
    25ac:	6078      	str	r0, [r7, #4]
    25ae:	460b      	mov	r3, r1
    25b0:	70fb      	strb	r3, [r7, #3]
    25b2:	4613      	mov	r3, r2
    25b4:	70bb      	strb	r3, [r7, #2]
    25b6:	f000 fb8b 	bl	2cd0 <init_gpio()>
    25ba:	6878      	ldr	r0, [r7, #4]
    25bc:	f000 fb26 	bl	2c0c <init_uart0(unsigned long)>
    25c0:	78ba      	ldrb	r2, [r7, #2]
    25c2:	78fb      	ldrb	r3, [r7, #3]
    25c4:	4611      	mov	r1, r2
    25c6:	4618      	mov	r0, r3
    25c8:	f000 f81c 	bl	2604 <init_codec(sampling_rate, audio_input)>
    25cc:	78fb      	ldrb	r3, [r7, #3]
    25ce:	4618      	mov	r0, r3
    25d0:	f000 fa08 	bl	29e4 <init_I2S0(sampling_rate)>
    25d4:	f000 f868 	bl	26a8 <init_dstc()>
    25d8:	bf00      	nop
    25da:	3708      	adds	r7, #8
    25dc:	46bd      	mov	sp, r7
    25de:	bd80      	pop	{r7, pc}

000025e0 <platform_start()>:
    25e0:	b580      	push	{r7, lr}
    25e2:	af00      	add	r7, sp, #0
    25e4:	4806      	ldr	r0, [pc, #24]	@ (2600 <platform_start()+0x20>)
    25e6:	f7ff faa9 	bl	1b3c <I2s_StartClk>
    25ea:	4805      	ldr	r0, [pc, #20]	@ (2600 <platform_start()+0x20>)
    25ec:	f7ff fd76 	bl	20dc <I2s_EnableTx>
    25f0:	4803      	ldr	r0, [pc, #12]	@ (2600 <platform_start()+0x20>)
    25f2:	f7ff fd88 	bl	2106 <I2s_EnableRx>
    25f6:	4802      	ldr	r0, [pc, #8]	@ (2600 <platform_start()+0x20>)
    25f8:	f7ff fd60 	bl	20bc <I2s_Start>
    25fc:	bf00      	nop
    25fe:	bd80      	pop	{r7, pc}
    2600:	4006c000 	.word	0x4006c000

00002604 <init_codec(sampling_rate, audio_input)>:
    2604:	b580      	push	{r7, lr}
    2606:	b088      	sub	sp, #32
    2608:	af00      	add	r7, sp, #0
    260a:	4603      	mov	r3, r0
    260c:	460a      	mov	r2, r1
    260e:	71fb      	strb	r3, [r7, #7]
    2610:	4613      	mov	r3, r2
    2612:	71bb      	strb	r3, [r7, #6]
    2614:	4b20      	ldr	r3, [pc, #128]	@ (2698 <init_codec(sampling_rate, audio_input)+0x94>)
    2616:	f8d3 361c 	ldr.w	r3, [r3, #1564]	@ 0x61c
    261a:	f423 2340 	bic.w	r3, r3, #786432	@ 0xc0000
    261e:	4a1e      	ldr	r2, [pc, #120]	@ (2698 <init_codec(sampling_rate, audio_input)+0x94>)
    2620:	f443 2300 	orr.w	r3, r3, #524288	@ 0x80000
    2624:	f8c2 361c 	str.w	r3, [r2, #1564]	@ 0x61c
    2628:	4b1c      	ldr	r3, [pc, #112]	@ (269c <init_codec(sampling_rate, audio_input)+0x98>)
    262a:	2201      	movs	r2, #1
    262c:	701a      	strb	r2, [r3, #0]
    262e:	4b1a      	ldr	r3, [pc, #104]	@ (2698 <init_codec(sampling_rate, audio_input)+0x94>)
    2630:	f8d3 361c 	ldr.w	r3, [r3, #1564]	@ 0x61c
    2634:	f423 1340 	bic.w	r3, r3, #3145728	@ 0x300000
    2638:	4a17      	ldr	r2, [pc, #92]	@ (2698 <init_codec(sampling_rate, audio_input)+0x94>)
    263a:	f443 1300 	orr.w	r3, r3, #2097152	@ 0x200000
    263e:	f8c2 361c 	str.w	r3, [r2, #1564]	@ 0x61c
    2642:	4b17      	ldr	r3, [pc, #92]	@ (26a0 <init_codec(sampling_rate, audio_input)+0x9c>)
    2644:	2201      	movs	r2, #1
    2646:	701a      	strb	r2, [r3, #0]
    2648:	f107 0308 	add.w	r3, r7, #8
    264c:	2116      	movs	r1, #22
    264e:	4618      	mov	r0, r3
    2650:	f7fd fe52 	bl	2f8 <pdl_memclr>
    2654:	2300      	movs	r3, #0
    2656:	83bb      	strh	r3, [r7, #28]
    2658:	2317      	movs	r3, #23
    265a:	813b      	strh	r3, [r7, #8]
    265c:	2317      	movs	r3, #23
    265e:	817b      	strh	r3, [r7, #10]
    2660:	2378      	movs	r3, #120	@ 0x78
    2662:	81bb      	strh	r3, [r7, #12]
    2664:	2378      	movs	r3, #120	@ 0x78
    2666:	81fb      	strh	r3, [r7, #14]
    2668:	79bb      	ldrb	r3, [r7, #6]
    266a:	b29b      	uxth	r3, r3
    266c:	823b      	strh	r3, [r7, #16]
    266e:	2300      	movs	r3, #0
    2670:	827b      	strh	r3, [r7, #18]
    2672:	2353      	movs	r3, #83	@ 0x53
    2674:	82fb      	strh	r3, [r7, #22]
    2676:	79fb      	ldrb	r3, [r7, #7]
    2678:	b29b      	uxth	r3, r3
    267a:	833b      	strh	r3, [r7, #24]
    267c:	2301      	movs	r3, #1
    267e:	837b      	strh	r3, [r7, #26]
    2680:	2302      	movs	r3, #2
    2682:	82bb      	strh	r3, [r7, #20]
    2684:	f107 0308 	add.w	r3, r7, #8
    2688:	4619      	mov	r1, r3
    268a:	4806      	ldr	r0, [pc, #24]	@ (26a4 <init_codec(sampling_rate, audio_input)+0xa0>)
    268c:	f7ff fe8c 	bl	23a8 <Wm8731_Init>
    2690:	bf00      	nop
    2692:	3720      	adds	r7, #32
    2694:	46bd      	mov	sp, r7
    2696:	bd80      	pop	{r7, pc}
    2698:	4006f000 	.word	0x4006f000
    269c:	42de01a8 	.word	0x42de01a8
    26a0:	42de01ac 	.word	0x42de01ac
    26a4:	40038200 	.word	0x40038200

000026a8 <init_dstc()>:
    26a8:	b580      	push	{r7, lr}
    26aa:	b088      	sub	sp, #32
    26ac:	af00      	add	r7, sp, #0
    26ae:	1d3b      	adds	r3, r7, #4
    26b0:	211c      	movs	r1, #28
    26b2:	4618      	mov	r0, r3
    26b4:	f7fd fe20 	bl	2f8 <pdl_memclr>
    26b8:	211c      	movs	r1, #28
    26ba:	48ac      	ldr	r0, [pc, #688]	@ (296c <init_dstc()+0x2c4>)
    26bc:	f7fd fe1c 	bl	2f8 <pdl_memclr>
    26c0:	211c      	movs	r1, #28
    26c2:	48ab      	ldr	r0, [pc, #684]	@ (2970 <init_dstc()+0x2c8>)
    26c4:	f7fd fe18 	bl	2f8 <pdl_memclr>
    26c8:	bf00      	nop
    26ca:	f7fe fe8d 	bl	13e8 <Dstc_ReleaseStandBy>
    26ce:	4603      	mov	r3, r0
    26d0:	2b00      	cmp	r3, #0
    26d2:	bf14      	ite	ne
    26d4:	2301      	movne	r3, #1
    26d6:	2300      	moveq	r3, #0
    26d8:	b2db      	uxtb	r3, r3
    26da:	2b00      	cmp	r3, #0
    26dc:	d1f5      	bne.n	26ca <init_dstc()+0x22>
    26de:	4aa3      	ldr	r2, [pc, #652]	@ (296c <init_dstc()+0x2c4>)
    26e0:	7813      	ldrb	r3, [r2, #0]
    26e2:	f043 0303 	orr.w	r3, r3, #3
    26e6:	7013      	strb	r3, [r2, #0]
    26e8:	4aa0      	ldr	r2, [pc, #640]	@ (296c <init_dstc()+0x2c4>)
    26ea:	7813      	ldrb	r3, [r2, #0]
    26ec:	f023 030c 	bic.w	r3, r3, #12
    26f0:	7013      	strb	r3, [r2, #0]
    26f2:	4a9e      	ldr	r2, [pc, #632]	@ (296c <init_dstc()+0x2c4>)
    26f4:	7813      	ldrb	r3, [r2, #0]
    26f6:	f043 0310 	orr.w	r3, r3, #16
    26fa:	7013      	strb	r3, [r2, #0]
    26fc:	4a9b      	ldr	r2, [pc, #620]	@ (296c <init_dstc()+0x2c4>)
    26fe:	7813      	ldrb	r3, [r2, #0]
    2700:	2103      	movs	r1, #3
    2702:	f361 1347 	bfi	r3, r1, #5, #3
    2706:	7013      	strb	r3, [r2, #0]
    2708:	4a98      	ldr	r2, [pc, #608]	@ (296c <init_dstc()+0x2c4>)
    270a:	7853      	ldrb	r3, [r2, #1]
    270c:	2102      	movs	r1, #2
    270e:	f361 0301 	bfi	r3, r1, #0, #2
    2712:	7053      	strb	r3, [r2, #1]
    2714:	4a95      	ldr	r2, [pc, #596]	@ (296c <init_dstc()+0x2c4>)
    2716:	7853      	ldrb	r3, [r2, #1]
    2718:	f023 031c 	bic.w	r3, r3, #28
    271c:	7053      	strb	r3, [r2, #1]
    271e:	4a93      	ldr	r2, [pc, #588]	@ (296c <init_dstc()+0x2c4>)
    2720:	7853      	ldrb	r3, [r2, #1]
    2722:	2105      	movs	r1, #5
    2724:	f361 1347 	bfi	r3, r1, #5, #3
    2728:	7053      	strb	r3, [r2, #1]
    272a:	4a90      	ldr	r2, [pc, #576]	@ (296c <init_dstc()+0x2c4>)
    272c:	7893      	ldrb	r3, [r2, #2]
    272e:	2110      	movs	r1, #16
    2730:	f361 0305 	bfi	r3, r1, #0, #6
    2734:	7093      	strb	r3, [r2, #2]
    2736:	4a8d      	ldr	r2, [pc, #564]	@ (296c <init_dstc()+0x2c4>)
    2738:	7893      	ldrb	r3, [r2, #2]
    273a:	f043 0340 	orr.w	r3, r3, #64	@ 0x40
    273e:	7093      	strb	r3, [r2, #2]
    2740:	4a8a      	ldr	r2, [pc, #552]	@ (296c <init_dstc()+0x2c4>)
    2742:	7893      	ldrb	r3, [r2, #2]
    2744:	f023 0380 	bic.w	r3, r3, #128	@ 0x80
    2748:	7093      	strb	r3, [r2, #2]
    274a:	4a88      	ldr	r2, [pc, #544]	@ (296c <init_dstc()+0x2c4>)
    274c:	78d3      	ldrb	r3, [r2, #3]
    274e:	2101      	movs	r1, #1
    2750:	f361 0301 	bfi	r3, r1, #0, #2
    2754:	70d3      	strb	r3, [r2, #3]
    2756:	4a85      	ldr	r2, [pc, #532]	@ (296c <init_dstc()+0x2c4>)
    2758:	78d3      	ldrb	r3, [r2, #3]
    275a:	f023 030c 	bic.w	r3, r3, #12
    275e:	70d3      	strb	r3, [r2, #3]
    2760:	4b82      	ldr	r3, [pc, #520]	@ (296c <init_dstc()+0x2c4>)
    2762:	681b      	ldr	r3, [r3, #0]
    2764:	0e1b      	lsrs	r3, r3, #24
    2766:	b2da      	uxtb	r2, r3
    2768:	4b80      	ldr	r3, [pc, #512]	@ (296c <init_dstc()+0x2c4>)
    276a:	681b      	ldr	r3, [r3, #0]
    276c:	0d1b      	lsrs	r3, r3, #20
    276e:	b2db      	uxtb	r3, r3
    2770:	4053      	eors	r3, r2
    2772:	b2da      	uxtb	r2, r3
    2774:	4b7d      	ldr	r3, [pc, #500]	@ (296c <init_dstc()+0x2c4>)
    2776:	681b      	ldr	r3, [r3, #0]
    2778:	0c1b      	lsrs	r3, r3, #16
    277a:	b2db      	uxtb	r3, r3
    277c:	4053      	eors	r3, r2
    277e:	b2da      	uxtb	r2, r3
    2780:	4b7a      	ldr	r3, [pc, #488]	@ (296c <init_dstc()+0x2c4>)
    2782:	681b      	ldr	r3, [r3, #0]
    2784:	0b1b      	lsrs	r3, r3, #12
    2786:	b2db      	uxtb	r3, r3
    2788:	4053      	eors	r3, r2
    278a:	b2da      	uxtb	r2, r3
    278c:	4b77      	ldr	r3, [pc, #476]	@ (296c <init_dstc()+0x2c4>)
    278e:	681b      	ldr	r3, [r3, #0]
    2790:	0a1b      	lsrs	r3, r3, #8
    2792:	b2db      	uxtb	r3, r3
    2794:	4053      	eors	r3, r2
    2796:	b2da      	uxtb	r2, r3
    2798:	4b74      	ldr	r3, [pc, #464]	@ (296c <init_dstc()+0x2c4>)
    279a:	681b      	ldr	r3, [r3, #0]
    279c:	091b      	lsrs	r3, r3, #4
    279e:	b2db      	uxtb	r3, r3
    27a0:	4053      	eors	r3, r2
    27a2:	b2db      	uxtb	r3, r3
    27a4:	f003 030f 	and.w	r3, r3, #15
    27a8:	b2d9      	uxtb	r1, r3
    27aa:	4a70      	ldr	r2, [pc, #448]	@ (296c <init_dstc()+0x2c4>)
    27ac:	78d3      	ldrb	r3, [r2, #3]
    27ae:	f361 1307 	bfi	r3, r1, #4, #4
    27b2:	70d3      	strb	r3, [r2, #3]
    27b4:	4b6d      	ldr	r3, [pc, #436]	@ (296c <init_dstc()+0x2c4>)
    27b6:	2201      	movs	r2, #1
    27b8:	80da      	strh	r2, [r3, #6]
    27ba:	4b6c      	ldr	r3, [pc, #432]	@ (296c <init_dstc()+0x2c4>)
    27bc:	2200      	movs	r2, #0
    27be:	711a      	strb	r2, [r3, #4]
    27c0:	4b6a      	ldr	r3, [pc, #424]	@ (296c <init_dstc()+0x2c4>)
    27c2:	791a      	ldrb	r2, [r3, #4]
    27c4:	4b69      	ldr	r3, [pc, #420]	@ (296c <init_dstc()+0x2c4>)
    27c6:	715a      	strb	r2, [r3, #5]
    27c8:	f001 ff3a 	bl	4640 <get_new_tx_buffer_ptr()>
    27cc:	4603      	mov	r3, r0
    27ce:	461a      	mov	r2, r3
    27d0:	4b66      	ldr	r3, [pc, #408]	@ (296c <init_dstc()+0x2c4>)
    27d2:	609a      	str	r2, [r3, #8]
    27d4:	4b65      	ldr	r3, [pc, #404]	@ (296c <init_dstc()+0x2c4>)
    27d6:	4a67      	ldr	r2, [pc, #412]	@ (2974 <init_dstc()+0x2cc>)
    27d8:	60da      	str	r2, [r3, #12]
    27da:	4a64      	ldr	r2, [pc, #400]	@ (296c <init_dstc()+0x2c4>)
    27dc:	4b63      	ldr	r3, [pc, #396]	@ (296c <init_dstc()+0x2c4>)
    27de:	685b      	ldr	r3, [r3, #4]
    27e0:	6113      	str	r3, [r2, #16]
    27e2:	4b62      	ldr	r3, [pc, #392]	@ (296c <init_dstc()+0x2c4>)
    27e4:	689b      	ldr	r3, [r3, #8]
    27e6:	4a61      	ldr	r2, [pc, #388]	@ (296c <init_dstc()+0x2c4>)
    27e8:	6153      	str	r3, [r2, #20]
    27ea:	2100      	movs	r1, #0
    27ec:	20db      	movs	r0, #219	@ 0xdb
    27ee:	f7fe fefb 	bl	15e8 <Dstc_SetHwdesp>
    27f2:	4a5e      	ldr	r2, [pc, #376]	@ (296c <init_dstc()+0x2c4>)
    27f4:	7f13      	ldrb	r3, [r2, #28]
    27f6:	f043 0303 	orr.w	r3, r3, #3
    27fa:	7713      	strb	r3, [r2, #28]
    27fc:	4a5b      	ldr	r2, [pc, #364]	@ (296c <init_dstc()+0x2c4>)
    27fe:	7f13      	ldrb	r3, [r2, #28]
    2800:	f023 030c 	bic.w	r3, r3, #12
    2804:	7713      	strb	r3, [r2, #28]
    2806:	4a59      	ldr	r2, [pc, #356]	@ (296c <init_dstc()+0x2c4>)
    2808:	7f13      	ldrb	r3, [r2, #28]
    280a:	f043 0310 	orr.w	r3, r3, #16
    280e:	7713      	strb	r3, [r2, #28]
    2810:	4a56      	ldr	r2, [pc, #344]	@ (296c <init_dstc()+0x2c4>)
    2812:	7f13      	ldrb	r3, [r2, #28]
    2814:	2105      	movs	r1, #5
    2816:	f361 1347 	bfi	r3, r1, #5, #3
    281a:	7713      	strb	r3, [r2, #28]
    281c:	4a53      	ldr	r2, [pc, #332]	@ (296c <init_dstc()+0x2c4>)
    281e:	7f53      	ldrb	r3, [r2, #29]
    2820:	2102      	movs	r1, #2
    2822:	f361 0301 	bfi	r3, r1, #0, #2
    2826:	7753      	strb	r3, [r2, #29]
    2828:	4a50      	ldr	r2, [pc, #320]	@ (296c <init_dstc()+0x2c4>)
    282a:	7f53      	ldrb	r3, [r2, #29]
    282c:	2105      	movs	r1, #5
    282e:	f361 0384 	bfi	r3, r1, #2, #3
    2832:	7753      	strb	r3, [r2, #29]
    2834:	4a4d      	ldr	r2, [pc, #308]	@ (296c <init_dstc()+0x2c4>)
    2836:	7f53      	ldrb	r3, [r2, #29]
    2838:	f023 03e0 	bic.w	r3, r3, #224	@ 0xe0
    283c:	7753      	strb	r3, [r2, #29]
    283e:	4a4b      	ldr	r2, [pc, #300]	@ (296c <init_dstc()+0x2c4>)
    2840:	7f93      	ldrb	r3, [r2, #30]
    2842:	2110      	movs	r1, #16
    2844:	f361 0305 	bfi	r3, r1, #0, #6
    2848:	7793      	strb	r3, [r2, #30]
    284a:	4a48      	ldr	r2, [pc, #288]	@ (296c <init_dstc()+0x2c4>)
    284c:	7f93      	ldrb	r3, [r2, #30]
    284e:	f043 0340 	orr.w	r3, r3, #64	@ 0x40
    2852:	7793      	strb	r3, [r2, #30]
    2854:	4a45      	ldr	r2, [pc, #276]	@ (296c <init_dstc()+0x2c4>)
    2856:	7f93      	ldrb	r3, [r2, #30]
    2858:	f023 0380 	bic.w	r3, r3, #128	@ 0x80
    285c:	7793      	strb	r3, [r2, #30]
    285e:	4a43      	ldr	r2, [pc, #268]	@ (296c <init_dstc()+0x2c4>)
    2860:	7fd3      	ldrb	r3, [r2, #31]
    2862:	2101      	movs	r1, #1
    2864:	f361 0301 	bfi	r3, r1, #0, #2
    2868:	77d3      	strb	r3, [r2, #31]
    286a:	4a40      	ldr	r2, [pc, #256]	@ (296c <init_dstc()+0x2c4>)
    286c:	7fd3      	ldrb	r3, [r2, #31]
    286e:	f023 030c 	bic.w	r3, r3, #12
    2872:	77d3      	strb	r3, [r2, #31]
    2874:	4b3d      	ldr	r3, [pc, #244]	@ (296c <init_dstc()+0x2c4>)
    2876:	69db      	ldr	r3, [r3, #28]
    2878:	0e1b      	lsrs	r3, r3, #24
    287a:	b2da      	uxtb	r2, r3
    287c:	4b3b      	ldr	r3, [pc, #236]	@ (296c <init_dstc()+0x2c4>)
    287e:	69db      	ldr	r3, [r3, #28]
    2880:	0d1b      	lsrs	r3, r3, #20
    2882:	b2db      	uxtb	r3, r3
    2884:	4053      	eors	r3, r2
    2886:	b2da      	uxtb	r2, r3
    2888:	4b38      	ldr	r3, [pc, #224]	@ (296c <init_dstc()+0x2c4>)
    288a:	69db      	ldr	r3, [r3, #28]
    288c:	0c1b      	lsrs	r3, r3, #16
    288e:	b2db      	uxtb	r3, r3
    2890:	4053      	eors	r3, r2
    2892:	b2da      	uxtb	r2, r3
    2894:	4b35      	ldr	r3, [pc, #212]	@ (296c <init_dstc()+0x2c4>)
    2896:	69db      	ldr	r3, [r3, #28]
    2898:	0b1b      	lsrs	r3, r3, #12
    289a:	b2db      	uxtb	r3, r3
    289c:	4053      	eors	r3, r2
    289e:	b2da      	uxtb	r2, r3
    28a0:	4b32      	ldr	r3, [pc, #200]	@ (296c <init_dstc()+0x2c4>)
    28a2:	69db      	ldr	r3, [r3, #28]
    28a4:	0a1b      	lsrs	r3, r3, #8
    28a6:	b2db      	uxtb	r3, r3
    28a8:	4053      	eors	r3, r2
    28aa:	b2da      	uxtb	r2, r3
    28ac:	4b2f      	ldr	r3, [pc, #188]	@ (296c <init_dstc()+0x2c4>)
    28ae:	69db      	ldr	r3, [r3, #28]
    28b0:	091b      	lsrs	r3, r3, #4
    28b2:	b2db      	uxtb	r3, r3
    28b4:	4053      	eors	r3, r2
    28b6:	b2db      	uxtb	r3, r3
    28b8:	f003 030f 	and.w	r3, r3, #15
    28bc:	b2d9      	uxtb	r1, r3
    28be:	4a2b      	ldr	r2, [pc, #172]	@ (296c <init_dstc()+0x2c4>)
    28c0:	7fd3      	ldrb	r3, [r2, #31]
    28c2:	f361 1307 	bfi	r3, r1, #4, #4
    28c6:	77d3      	strb	r3, [r2, #31]
    28c8:	4b28      	ldr	r3, [pc, #160]	@ (296c <init_dstc()+0x2c4>)
    28ca:	2201      	movs	r2, #1
    28cc:	845a      	strh	r2, [r3, #34]	@ 0x22
    28ce:	4b27      	ldr	r3, [pc, #156]	@ (296c <init_dstc()+0x2c4>)
    28d0:	2200      	movs	r2, #0
    28d2:	f883 2020 	strb.w	r2, [r3, #32]
    28d6:	4b25      	ldr	r3, [pc, #148]	@ (296c <init_dstc()+0x2c4>)
    28d8:	f893 2020 	ldrb.w	r2, [r3, #32]
    28dc:	4b23      	ldr	r3, [pc, #140]	@ (296c <init_dstc()+0x2c4>)
    28de:	f883 2021 	strb.w	r2, [r3, #33]	@ 0x21
    28e2:	4b22      	ldr	r3, [pc, #136]	@ (296c <init_dstc()+0x2c4>)
    28e4:	4a24      	ldr	r2, [pc, #144]	@ (2978 <init_dstc()+0x2d0>)
    28e6:	625a      	str	r2, [r3, #36]	@ 0x24
    28e8:	f001 febe 	bl	4668 <get_new_rx_buffer_ptr()>
    28ec:	4603      	mov	r3, r0
    28ee:	461a      	mov	r2, r3
    28f0:	4b1e      	ldr	r3, [pc, #120]	@ (296c <init_dstc()+0x2c4>)
    28f2:	629a      	str	r2, [r3, #40]	@ 0x28
    28f4:	4a1d      	ldr	r2, [pc, #116]	@ (296c <init_dstc()+0x2c4>)
    28f6:	4b1d      	ldr	r3, [pc, #116]	@ (296c <init_dstc()+0x2c4>)
    28f8:	6a1b      	ldr	r3, [r3, #32]
    28fa:	62d3      	str	r3, [r2, #44]	@ 0x2c
    28fc:	4b1b      	ldr	r3, [pc, #108]	@ (296c <init_dstc()+0x2c4>)
    28fe:	6a9b      	ldr	r3, [r3, #40]	@ 0x28
    2900:	4a1a      	ldr	r2, [pc, #104]	@ (296c <init_dstc()+0x2c4>)
    2902:	6353      	str	r3, [r2, #52]	@ 0x34
    2904:	211c      	movs	r1, #28
    2906:	20da      	movs	r0, #218	@ 0xda
    2908:	f7fe fe6e 	bl	15e8 <Dstc_SetHwdesp>
    290c:	4b17      	ldr	r3, [pc, #92]	@ (296c <init_dstc()+0x2c4>)
    290e:	607b      	str	r3, [r7, #4]
    2910:	2300      	movs	r3, #0
    2912:	723b      	strb	r3, [r7, #8]
    2914:	2300      	movs	r3, #0
    2916:	727b      	strb	r3, [r7, #9]
    2918:	2300      	movs	r3, #0
    291a:	72bb      	strb	r3, [r7, #10]
    291c:	2300      	movs	r3, #0
    291e:	72fb      	strb	r3, [r7, #11]
    2920:	2307      	movs	r3, #7
    2922:	733b      	strb	r3, [r7, #12]
    2924:	2301      	movs	r3, #1
    2926:	737b      	strb	r3, [r7, #13]
    2928:	4b14      	ldr	r3, [pc, #80]	@ (297c <init_dstc()+0x2d4>)
    292a:	61fb      	str	r3, [r7, #28]
    292c:	4b14      	ldr	r3, [pc, #80]	@ (2980 <init_dstc()+0x2d8>)
    292e:	61bb      	str	r3, [r7, #24]
    2930:	1d3b      	adds	r3, r7, #4
    2932:	4618      	mov	r0, r3
    2934:	f7fe fd80 	bl	1438 <Dstc_Init>
    2938:	2002      	movs	r0, #2
    293a:	f7fe fe79 	bl	1630 <Dstc_SetCommand>
    293e:	2003      	movs	r0, #3
    2940:	f7fe fe76 	bl	1630 <Dstc_SetCommand>
    2944:	2005      	movs	r0, #5
    2946:	f7fe fe73 	bl	1630 <Dstc_SetCommand>
    294a:	20db      	movs	r0, #219	@ 0xdb
    294c:	f7fe feac 	bl	16a8 <Dstc_SetDreqenbBit>
    2950:	20db      	movs	r0, #219	@ 0xdb
    2952:	f7fe fef7 	bl	1744 <Dstc_SetHwintclrBit>
    2956:	20da      	movs	r0, #218	@ 0xda
    2958:	f7fe fea6 	bl	16a8 <Dstc_SetDreqenbBit>
    295c:	20da      	movs	r0, #218	@ 0xda
    295e:	f7fe fef1 	bl	1744 <Dstc_SetHwintclrBit>
    2962:	bf00      	nop
    2964:	3720      	adds	r7, #32
    2966:	46bd      	mov	sp, r7
    2968:	bd80      	pop	{r7, pc}
    296a:	bf00      	nop
    296c:	1ffd0bb0 	.word	0x1ffd0bb0
    2970:	1ffd0bcc 	.word	0x1ffd0bcc
    2974:	4006c004 	.word	0x4006c004
    2978:	4006c000 	.word	0x4006c000
    297c:	00002985 	.word	0x00002985
    2980:	000029b5 	.word	0x000029b5

00002984 <isr_tx()>:
    2984:	b580      	push	{r7, lr}
    2986:	b082      	sub	sp, #8
    2988:	af00      	add	r7, sp, #0
    298a:	f001 fe59 	bl	4640 <get_new_tx_buffer_ptr()>
    298e:	6078      	str	r0, [r7, #4]
    2990:	687b      	ldr	r3, [r7, #4]
    2992:	2b00      	cmp	r3, #0
    2994:	d101      	bne.n	299a <isr_tx()+0x16>
    2996:	f000 fa97 	bl	2ec8 <fatal_error()>
    299a:	687b      	ldr	r3, [r7, #4]
    299c:	4a04      	ldr	r2, [pc, #16]	@ (29b0 <isr_tx()+0x2c>)
    299e:	6093      	str	r3, [r2, #8]
    29a0:	20db      	movs	r0, #219	@ 0xdb
    29a2:	f7fe fef1 	bl	1788 <Dstc_SetDqmskclrBit>
    29a6:	bf00      	nop
    29a8:	3708      	adds	r7, #8
    29aa:	46bd      	mov	sp, r7
    29ac:	bd80      	pop	{r7, pc}
    29ae:	bf00      	nop
    29b0:	1ffd0bb0 	.word	0x1ffd0bb0

000029b4 <isr_rx()>:
    29b4:	b580      	push	{r7, lr}
    29b6:	b082      	sub	sp, #8
    29b8:	af00      	add	r7, sp, #0
    29ba:	f001 fe55 	bl	4668 <get_new_rx_buffer_ptr()>
    29be:	6078      	str	r0, [r7, #4]
    29c0:	687b      	ldr	r3, [r7, #4]
    29c2:	2b00      	cmp	r3, #0
    29c4:	d101      	bne.n	29ca <isr_rx()+0x16>
    29c6:	f000 fa7f 	bl	2ec8 <fatal_error()>
    29ca:	687b      	ldr	r3, [r7, #4]
    29cc:	4a04      	ldr	r2, [pc, #16]	@ (29e0 <isr_rx()+0x2c>)
    29ce:	6293      	str	r3, [r2, #40]	@ 0x28
    29d0:	20da      	movs	r0, #218	@ 0xda
    29d2:	f7fe fed9 	bl	1788 <Dstc_SetDqmskclrBit>
    29d6:	bf00      	nop
    29d8:	3708      	adds	r7, #8
    29da:	46bd      	mov	sp, r7
    29dc:	bd80      	pop	{r7, pc}
    29de:	bf00      	nop
    29e0:	1ffd0bb0 	.word	0x1ffd0bb0

000029e4 <init_I2S0(sampling_rate)>:
    29e4:	b580      	push	{r7, lr}
    29e6:	b09e      	sub	sp, #120	@ 0x78
    29e8:	af00      	add	r7, sp, #0
    29ea:	4603      	mov	r3, r0
    29ec:	71fb      	strb	r3, [r7, #7]
    29ee:	f107 036c 	add.w	r3, r7, #108	@ 0x6c
    29f2:	210b      	movs	r1, #11
    29f4:	4618      	mov	r0, r3
    29f6:	f7fd fc7f 	bl	2f8 <pdl_memclr>
    29fa:	f107 0338 	add.w	r3, r7, #56	@ 0x38
    29fe:	2134      	movs	r1, #52	@ 0x34
    2a00:	4618      	mov	r0, r3
    2a02:	f7fd fc79 	bl	2f8 <pdl_memclr>
    2a06:	f107 030c 	add.w	r3, r7, #12
    2a0a:	212c      	movs	r1, #44	@ 0x2c
    2a0c:	4618      	mov	r0, r3
    2a0e:	f7fd fc73 	bl	2f8 <pdl_memclr>
    2a12:	2027      	movs	r0, #39	@ 0x27
    2a14:	f7fe faf2 	bl	ffc <Clk_PeripheralClockEnable>
    2a18:	4b72      	ldr	r3, [pc, #456]	@ (2be4 <init_I2S0(sampling_rate)+0x200>)
    2a1a:	f8d3 3660 	ldr.w	r3, [r3, #1632]	@ 0x660
    2a1e:	f023 0303 	bic.w	r3, r3, #3
    2a22:	4a70      	ldr	r2, [pc, #448]	@ (2be4 <init_I2S0(sampling_rate)+0x200>)
    2a24:	f043 0301 	orr.w	r3, r3, #1
    2a28:	f8c2 3660 	str.w	r3, [r2, #1632]	@ 0x660
    2a2c:	4b6e      	ldr	r3, [pc, #440]	@ (2be8 <init_I2S0(sampling_rate)+0x204>)
    2a2e:	2201      	movs	r2, #1
    2a30:	701a      	strb	r2, [r3, #0]
    2a32:	4b6c      	ldr	r3, [pc, #432]	@ (2be4 <init_I2S0(sampling_rate)+0x200>)
    2a34:	f8d3 3660 	ldr.w	r3, [r3, #1632]	@ 0x660
    2a38:	f423 6340 	bic.w	r3, r3, #3072	@ 0xc00
    2a3c:	4a69      	ldr	r2, [pc, #420]	@ (2be4 <init_I2S0(sampling_rate)+0x200>)
    2a3e:	f443 6380 	orr.w	r3, r3, #1024	@ 0x400
    2a42:	f8c2 3660 	str.w	r3, [r2, #1632]	@ 0x660
    2a46:	4b69      	ldr	r3, [pc, #420]	@ (2bec <init_I2S0(sampling_rate)+0x208>)
    2a48:	2201      	movs	r2, #1
    2a4a:	701a      	strb	r2, [r3, #0]
    2a4c:	4b65      	ldr	r3, [pc, #404]	@ (2be4 <init_I2S0(sampling_rate)+0x200>)
    2a4e:	f8d3 3660 	ldr.w	r3, [r3, #1632]	@ 0x660
    2a52:	f423 7340 	bic.w	r3, r3, #768	@ 0x300
    2a56:	4a63      	ldr	r2, [pc, #396]	@ (2be4 <init_I2S0(sampling_rate)+0x200>)
    2a58:	f443 7380 	orr.w	r3, r3, #256	@ 0x100
    2a5c:	f8c2 3660 	str.w	r3, [r2, #1632]	@ 0x660
    2a60:	4b63      	ldr	r3, [pc, #396]	@ (2bf0 <init_I2S0(sampling_rate)+0x20c>)
    2a62:	2201      	movs	r2, #1
    2a64:	701a      	strb	r2, [r3, #0]
    2a66:	4b5f      	ldr	r3, [pc, #380]	@ (2be4 <init_I2S0(sampling_rate)+0x200>)
    2a68:	f8d3 3660 	ldr.w	r3, [r3, #1632]	@ 0x660
    2a6c:	f023 0330 	bic.w	r3, r3, #48	@ 0x30
    2a70:	4a5c      	ldr	r2, [pc, #368]	@ (2be4 <init_I2S0(sampling_rate)+0x200>)
    2a72:	f043 0310 	orr.w	r3, r3, #16
    2a76:	f8c2 3660 	str.w	r3, [r2, #1632]	@ 0x660
    2a7a:	4b5e      	ldr	r3, [pc, #376]	@ (2bf4 <init_I2S0(sampling_rate)+0x210>)
    2a7c:	2201      	movs	r2, #1
    2a7e:	701a      	strb	r2, [r3, #0]
    2a80:	4b58      	ldr	r3, [pc, #352]	@ (2be4 <init_I2S0(sampling_rate)+0x200>)
    2a82:	f8d3 3660 	ldr.w	r3, [r3, #1632]	@ 0x660
    2a86:	f023 03c0 	bic.w	r3, r3, #192	@ 0xc0
    2a8a:	4a56      	ldr	r2, [pc, #344]	@ (2be4 <init_I2S0(sampling_rate)+0x200>)
    2a8c:	f043 0340 	orr.w	r3, r3, #64	@ 0x40
    2a90:	f8c2 3660 	str.w	r3, [r2, #1632]	@ 0x660
    2a94:	4b58      	ldr	r3, [pc, #352]	@ (2bf8 <init_I2S0(sampling_rate)+0x214>)
    2a96:	2201      	movs	r2, #1
    2a98:	701a      	strb	r2, [r3, #0]
    2a9a:	4858      	ldr	r0, [pc, #352]	@ (2bfc <init_I2S0(sampling_rate)+0x218>)
    2a9c:	f7ff f866 	bl	1b6c <I2s_StopClk>
    2aa0:	f7ff f83c 	bl	1b1c <I2s_DisablePll>
    2aa4:	4a56      	ldr	r2, [pc, #344]	@ (2c00 <init_I2S0(sampling_rate)+0x21c>)
    2aa6:	6813      	ldr	r3, [r2, #0]
    2aa8:	f043 0302 	orr.w	r3, r3, #2
    2aac:	6013      	str	r3, [r2, #0]
    2aae:	2300      	movs	r3, #0
    2ab0:	637b      	str	r3, [r7, #52]	@ 0x34
    2ab2:	2300      	movs	r3, #0
    2ab4:	f887 306c 	strb.w	r3, [r7, #108]	@ 0x6c
    2ab8:	2300      	movs	r3, #0
    2aba:	f887 306d 	strb.w	r3, [r7, #109]	@ 0x6d
    2abe:	2300      	movs	r3, #0
    2ac0:	f887 306e 	strb.w	r3, [r7, #110]	@ 0x6e
    2ac4:	2300      	movs	r3, #0
    2ac6:	f887 306f 	strb.w	r3, [r7, #111]	@ 0x6f
    2aca:	2300      	movs	r3, #0
    2acc:	f887 3070 	strb.w	r3, [r7, #112]	@ 0x70
    2ad0:	2300      	movs	r3, #0
    2ad2:	f887 3071 	strb.w	r3, [r7, #113]	@ 0x71
    2ad6:	2300      	movs	r3, #0
    2ad8:	f887 3072 	strb.w	r3, [r7, #114]	@ 0x72
    2adc:	2300      	movs	r3, #0
    2ade:	f887 3073 	strb.w	r3, [r7, #115]	@ 0x73
    2ae2:	2300      	movs	r3, #0
    2ae4:	f887 3074 	strb.w	r3, [r7, #116]	@ 0x74
    2ae8:	2300      	movs	r3, #0
    2aea:	f887 3075 	strb.w	r3, [r7, #117]	@ 0x75
    2aee:	2300      	movs	r3, #0
    2af0:	f887 3076 	strb.w	r3, [r7, #118]	@ 0x76
    2af4:	2300      	movs	r3, #0
    2af6:	f887 3038 	strb.w	r3, [r7, #56]	@ 0x38
    2afa:	79fb      	ldrb	r3, [r7, #7]
    2afc:	2b0c      	cmp	r3, #12
    2afe:	d102      	bne.n	2b06 <init_I2S0(sampling_rate)+0x122>
    2b00:	f44f 73b0 	mov.w	r3, #352	@ 0x160
    2b04:	877b      	strh	r3, [r7, #58]	@ 0x3a
    2b06:	79fb      	ldrb	r3, [r7, #7]
    2b08:	2b18      	cmp	r3, #24
    2b0a:	d101      	bne.n	2b10 <init_I2S0(sampling_rate)+0x12c>
    2b0c:	2340      	movs	r3, #64	@ 0x40
    2b0e:	877b      	strh	r3, [r7, #58]	@ 0x3a
    2b10:	79fb      	ldrb	r3, [r7, #7]
    2b12:	2b00      	cmp	r3, #0
    2b14:	d101      	bne.n	2b1a <init_I2S0(sampling_rate)+0x136>
    2b16:	2320      	movs	r3, #32
    2b18:	877b      	strh	r3, [r7, #58]	@ 0x3a
    2b1a:	79fb      	ldrb	r3, [r7, #7]
    2b1c:	2b1c      	cmp	r3, #28
    2b1e:	d101      	bne.n	2b24 <init_I2S0(sampling_rate)+0x140>
    2b20:	2360      	movs	r3, #96	@ 0x60
    2b22:	877b      	strh	r3, [r7, #58]	@ 0x3a
    2b24:	2300      	movs	r3, #0
    2b26:	f887 303c 	strb.w	r3, [r7, #60]	@ 0x3c
    2b2a:	2300      	movs	r3, #0
    2b2c:	f887 303d 	strb.w	r3, [r7, #61]	@ 0x3d
    2b30:	2300      	movs	r3, #0
    2b32:	f887 303e 	strb.w	r3, [r7, #62]	@ 0x3e
    2b36:	2301      	movs	r3, #1
    2b38:	f887 303f 	strb.w	r3, [r7, #63]	@ 0x3f
    2b3c:	2300      	movs	r3, #0
    2b3e:	f887 3040 	strb.w	r3, [r7, #64]	@ 0x40
    2b42:	2300      	movs	r3, #0
    2b44:	f887 3041 	strb.w	r3, [r7, #65]	@ 0x41
    2b48:	2300      	movs	r3, #0
    2b4a:	f887 3042 	strb.w	r3, [r7, #66]	@ 0x42
    2b4e:	2300      	movs	r3, #0
    2b50:	f887 3043 	strb.w	r3, [r7, #67]	@ 0x43
    2b54:	2300      	movs	r3, #0
    2b56:	f887 3044 	strb.w	r3, [r7, #68]	@ 0x44
    2b5a:	2301      	movs	r3, #1
    2b5c:	f887 3045 	strb.w	r3, [r7, #69]	@ 0x45
    2b60:	2300      	movs	r3, #0
    2b62:	f887 3046 	strb.w	r3, [r7, #70]	@ 0x46
    2b66:	2300      	movs	r3, #0
    2b68:	f887 3047 	strb.w	r3, [r7, #71]	@ 0x47
    2b6c:	2300      	movs	r3, #0
    2b6e:	f887 3048 	strb.w	r3, [r7, #72]	@ 0x48
    2b72:	2301      	movs	r3, #1
    2b74:	f887 3049 	strb.w	r3, [r7, #73]	@ 0x49
    2b78:	230f      	movs	r3, #15
    2b7a:	f887 304a 	strb.w	r3, [r7, #74]	@ 0x4a
    2b7e:	230f      	movs	r3, #15
    2b80:	f887 304b 	strb.w	r3, [r7, #75]	@ 0x4b
    2b84:	2303      	movs	r3, #3
    2b86:	653b      	str	r3, [r7, #80]	@ 0x50
    2b88:	2304      	movs	r3, #4
    2b8a:	f887 3058 	strb.w	r3, [r7, #88]	@ 0x58
    2b8e:	2304      	movs	r3, #4
    2b90:	f887 3059 	strb.w	r3, [r7, #89]	@ 0x59
    2b94:	2300      	movs	r3, #0
    2b96:	f887 305a 	strb.w	r3, [r7, #90]	@ 0x5a
    2b9a:	2300      	movs	r3, #0
    2b9c:	f887 305b 	strb.w	r3, [r7, #91]	@ 0x5b
    2ba0:	2300      	movs	r3, #0
    2ba2:	f887 305c 	strb.w	r3, [r7, #92]	@ 0x5c
    2ba6:	2301      	movs	r3, #1
    2ba8:	f887 305d 	strb.w	r3, [r7, #93]	@ 0x5d
    2bac:	2301      	movs	r3, #1
    2bae:	f887 305e 	strb.w	r3, [r7, #94]	@ 0x5e
    2bb2:	4b14      	ldr	r3, [pc, #80]	@ (2c04 <init_I2S0(sampling_rate)+0x220>)
    2bb4:	2201      	movs	r2, #1
    2bb6:	701a      	strb	r2, [r3, #0]
    2bb8:	4b13      	ldr	r3, [pc, #76]	@ (2c08 <init_I2S0(sampling_rate)+0x224>)
    2bba:	2201      	movs	r2, #1
    2bbc:	701a      	strb	r2, [r3, #0]
    2bbe:	f107 036c 	add.w	r3, r7, #108	@ 0x6c
    2bc2:	663b      	str	r3, [r7, #96]	@ 0x60
    2bc4:	f107 030c 	add.w	r3, r7, #12
    2bc8:	667b      	str	r3, [r7, #100]	@ 0x64
    2bca:	2301      	movs	r3, #1
    2bcc:	f887 3068 	strb.w	r3, [r7, #104]	@ 0x68
    2bd0:	f107 0338 	add.w	r3, r7, #56	@ 0x38
    2bd4:	4619      	mov	r1, r3
    2bd6:	4809      	ldr	r0, [pc, #36]	@ (2bfc <init_I2S0(sampling_rate)+0x218>)
    2bd8:	f7fe ffe0 	bl	1b9c <I2s_Init>
    2bdc:	bf00      	nop
    2bde:	3778      	adds	r7, #120	@ 0x78
    2be0:	46bd      	mov	sp, r7
    2be2:	bd80      	pop	{r7, pc}
    2be4:	4006f000 	.word	0x4006f000
    2be8:	42de02b4 	.word	0x42de02b4
    2bec:	42de02b8 	.word	0x42de02b8
    2bf0:	42de0180 	.word	0x42de0180
    2bf4:	42de0184 	.word	0x42de0184
    2bf8:	42de02bc 	.word	0x42de02bc
    2bfc:	4006c000 	.word	0x4006c000
    2c00:	4003d000 	.word	0x4003d000
    2c04:	42d80520 	.word	0x42d80520
    2c08:	42d80560 	.word	0x42d80560

00002c0c <init_uart0(unsigned long)>:
    2c0c:	b580      	push	{r7, lr}
    2c0e:	b088      	sub	sp, #32
    2c10:	af00      	add	r7, sp, #0
    2c12:	6078      	str	r0, [r7, #4]
    2c14:	f107 030c 	add.w	r3, r7, #12
    2c18:	2114      	movs	r1, #20
    2c1a:	4618      	mov	r0, r3
    2c1c:	f7fd fb6c 	bl	2f8 <pdl_memclr>
    2c20:	2300      	movs	r3, #0
    2c22:	733b      	strb	r3, [r7, #12]
    2c24:	687b      	ldr	r3, [r7, #4]
    2c26:	613b      	str	r3, [r7, #16]
    2c28:	2300      	movs	r3, #0
    2c2a:	753b      	strb	r3, [r7, #20]
    2c2c:	2300      	movs	r3, #0
    2c2e:	757b      	strb	r3, [r7, #21]
    2c30:	2300      	movs	r3, #0
    2c32:	75bb      	strb	r3, [r7, #22]
    2c34:	2300      	movs	r3, #0
    2c36:	75fb      	strb	r3, [r7, #23]
    2c38:	2300      	movs	r3, #0
    2c3a:	763b      	strb	r3, [r7, #24]
    2c3c:	2300      	movs	r3, #0
    2c3e:	767b      	strb	r3, [r7, #25]
    2c40:	2300      	movs	r3, #0
    2c42:	76bb      	strb	r3, [r7, #26]
    2c44:	2300      	movs	r3, #0
    2c46:	61fb      	str	r3, [r7, #28]
    2c48:	4b1c      	ldr	r3, [pc, #112]	@ (2cbc <init_uart0(unsigned long)+0xb0>)
    2c4a:	f8d3 361c 	ldr.w	r3, [r3, #1564]	@ 0x61c
    2c4e:	f023 0330 	bic.w	r3, r3, #48	@ 0x30
    2c52:	4a1a      	ldr	r2, [pc, #104]	@ (2cbc <init_uart0(unsigned long)+0xb0>)
    2c54:	f043 0310 	orr.w	r3, r3, #16
    2c58:	f8c2 361c 	str.w	r3, [r2, #1564]	@ 0x61c
    2c5c:	4b18      	ldr	r3, [pc, #96]	@ (2cc0 <init_uart0(unsigned long)+0xb4>)
    2c5e:	2201      	movs	r2, #1
    2c60:	701a      	strb	r2, [r3, #0]
    2c62:	4b18      	ldr	r3, [pc, #96]	@ (2cc4 <init_uart0(unsigned long)+0xb8>)
    2c64:	2200      	movs	r2, #0
    2c66:	701a      	strb	r2, [r3, #0]
    2c68:	4b14      	ldr	r3, [pc, #80]	@ (2cbc <init_uart0(unsigned long)+0xb0>)
    2c6a:	f8d3 361c 	ldr.w	r3, [r3, #1564]	@ 0x61c
    2c6e:	f023 03c0 	bic.w	r3, r3, #192	@ 0xc0
    2c72:	4a12      	ldr	r2, [pc, #72]	@ (2cbc <init_uart0(unsigned long)+0xb0>)
    2c74:	f043 0340 	orr.w	r3, r3, #64	@ 0x40
    2c78:	f8c2 361c 	str.w	r3, [r2, #1564]	@ 0x61c
    2c7c:	4b12      	ldr	r3, [pc, #72]	@ (2cc8 <init_uart0(unsigned long)+0xbc>)
    2c7e:	2201      	movs	r2, #1
    2c80:	701a      	strb	r2, [r3, #0]
    2c82:	f107 030c 	add.w	r3, r7, #12
    2c86:	4619      	mov	r1, r3
    2c88:	4810      	ldr	r0, [pc, #64]	@ (2ccc <init_uart0(unsigned long)+0xc0>)
    2c8a:	f7fd fcaf 	bl	5ec <Mfs_Uart_Init>
    2c8e:	4603      	mov	r3, r0
    2c90:	2b00      	cmp	r3, #0
    2c92:	bf14      	ite	ne
    2c94:	2301      	movne	r3, #1
    2c96:	2300      	moveq	r3, #0
    2c98:	b2db      	uxtb	r3, r3
    2c9a:	2b00      	cmp	r3, #0
    2c9c:	d001      	beq.n	2ca2 <init_uart0(unsigned long)+0x96>
    2c9e:	bf00      	nop
    2ca0:	e7fd      	b.n	2c9e <init_uart0(unsigned long)+0x92>
    2ca2:	2100      	movs	r1, #0
    2ca4:	4809      	ldr	r0, [pc, #36]	@ (2ccc <init_uart0(unsigned long)+0xc0>)
    2ca6:	f7fd fe39 	bl	91c <Mfs_Uart_EnableFunc>
    2caa:	2101      	movs	r1, #1
    2cac:	4807      	ldr	r0, [pc, #28]	@ (2ccc <init_uart0(unsigned long)+0xc0>)
    2cae:	f7fd fe35 	bl	91c <Mfs_Uart_EnableFunc>
    2cb2:	bf00      	nop
    2cb4:	3720      	adds	r7, #32
    2cb6:	46bd      	mov	sp, r7
    2cb8:	bd80      	pop	{r7, pc}
    2cba:	bf00      	nop
    2cbc:	4006f000 	.word	0x4006f000
    2cc0:	42de0104 	.word	0x42de0104
    2cc4:	42dea07c 	.word	0x42dea07c
    2cc8:	42de0108 	.word	0x42de0108
    2ccc:	40038000 	.word	0x40038000

00002cd0 <init_gpio()>:
    2cd0:	b480      	push	{r7}
    2cd2:	b087      	sub	sp, #28
    2cd4:	af00      	add	r7, sp, #0
    2cd6:	2300      	movs	r3, #0
    2cd8:	75bb      	strb	r3, [r7, #22]
    2cda:	2300      	movs	r3, #0
    2cdc:	757b      	strb	r3, [r7, #21]
    2cde:	2301      	movs	r3, #1
    2ce0:	757b      	strb	r3, [r7, #21]
    2ce2:	4b2b      	ldr	r3, [pc, #172]	@ (2d90 <init_gpio()+0xc0>)
    2ce4:	2200      	movs	r2, #0
    2ce6:	701a      	strb	r2, [r3, #0]
    2ce8:	4b2a      	ldr	r3, [pc, #168]	@ (2d94 <init_gpio()+0xc4>)
    2cea:	7d7a      	ldrb	r2, [r7, #21]
    2cec:	701a      	strb	r2, [r3, #0]
    2cee:	4b2a      	ldr	r3, [pc, #168]	@ (2d98 <init_gpio()+0xc8>)
    2cf0:	2201      	movs	r2, #1
    2cf2:	701a      	strb	r2, [r3, #0]
    2cf4:	4b29      	ldr	r3, [pc, #164]	@ (2d9c <init_gpio()+0xcc>)
    2cf6:	2200      	movs	r2, #0
    2cf8:	701a      	strb	r2, [r3, #0]
    2cfa:	2300      	movs	r3, #0
    2cfc:	74bb      	strb	r3, [r7, #18]
    2cfe:	2300      	movs	r3, #0
    2d00:	747b      	strb	r3, [r7, #17]
    2d02:	2301      	movs	r3, #1
    2d04:	747b      	strb	r3, [r7, #17]
    2d06:	4b26      	ldr	r3, [pc, #152]	@ (2da0 <init_gpio()+0xd0>)
    2d08:	2200      	movs	r2, #0
    2d0a:	701a      	strb	r2, [r3, #0]
    2d0c:	4b25      	ldr	r3, [pc, #148]	@ (2da4 <init_gpio()+0xd4>)
    2d0e:	7c7a      	ldrb	r2, [r7, #17]
    2d10:	701a      	strb	r2, [r3, #0]
    2d12:	4b25      	ldr	r3, [pc, #148]	@ (2da8 <init_gpio()+0xd8>)
    2d14:	2201      	movs	r2, #1
    2d16:	701a      	strb	r2, [r3, #0]
    2d18:	4b24      	ldr	r3, [pc, #144]	@ (2dac <init_gpio()+0xdc>)
    2d1a:	2200      	movs	r2, #0
    2d1c:	701a      	strb	r2, [r3, #0]
    2d1e:	2300      	movs	r3, #0
    2d20:	73bb      	strb	r3, [r7, #14]
    2d22:	2300      	movs	r3, #0
    2d24:	737b      	strb	r3, [r7, #13]
    2d26:	2301      	movs	r3, #1
    2d28:	737b      	strb	r3, [r7, #13]
    2d2a:	4b21      	ldr	r3, [pc, #132]	@ (2db0 <init_gpio()+0xe0>)
    2d2c:	2200      	movs	r2, #0
    2d2e:	701a      	strb	r2, [r3, #0]
    2d30:	4b20      	ldr	r3, [pc, #128]	@ (2db4 <init_gpio()+0xe4>)
    2d32:	7b7a      	ldrb	r2, [r7, #13]
    2d34:	701a      	strb	r2, [r3, #0]
    2d36:	4b20      	ldr	r3, [pc, #128]	@ (2db8 <init_gpio()+0xe8>)
    2d38:	2201      	movs	r2, #1
    2d3a:	701a      	strb	r2, [r3, #0]
    2d3c:	4b1f      	ldr	r3, [pc, #124]	@ (2dbc <init_gpio()+0xec>)
    2d3e:	2200      	movs	r2, #0
    2d40:	701a      	strb	r2, [r3, #0]
    2d42:	2300      	movs	r3, #0
    2d44:	72bb      	strb	r3, [r7, #10]
    2d46:	2300      	movs	r3, #0
    2d48:	727b      	strb	r3, [r7, #9]
    2d4a:	2301      	movs	r3, #1
    2d4c:	727b      	strb	r3, [r7, #9]
    2d4e:	4b1c      	ldr	r3, [pc, #112]	@ (2dc0 <init_gpio()+0xf0>)
    2d50:	2200      	movs	r2, #0
    2d52:	701a      	strb	r2, [r3, #0]
    2d54:	4b1b      	ldr	r3, [pc, #108]	@ (2dc4 <init_gpio()+0xf4>)
    2d56:	7a7a      	ldrb	r2, [r7, #9]
    2d58:	701a      	strb	r2, [r3, #0]
    2d5a:	4b1b      	ldr	r3, [pc, #108]	@ (2dc8 <init_gpio()+0xf8>)
    2d5c:	2201      	movs	r2, #1
    2d5e:	701a      	strb	r2, [r3, #0]
    2d60:	4b1a      	ldr	r3, [pc, #104]	@ (2dcc <init_gpio()+0xfc>)
    2d62:	2200      	movs	r2, #0
    2d64:	701a      	strb	r2, [r3, #0]
    2d66:	2300      	movs	r3, #0
    2d68:	71bb      	strb	r3, [r7, #6]
    2d6a:	2300      	movs	r3, #0
    2d6c:	717b      	strb	r3, [r7, #5]
    2d6e:	2300      	movs	r3, #0
    2d70:	71bb      	strb	r3, [r7, #6]
    2d72:	4b17      	ldr	r3, [pc, #92]	@ (2dd0 <init_gpio()+0x100>)
    2d74:	79ba      	ldrb	r2, [r7, #6]
    2d76:	701a      	strb	r2, [r3, #0]
    2d78:	4b16      	ldr	r3, [pc, #88]	@ (2dd4 <init_gpio()+0x104>)
    2d7a:	2200      	movs	r2, #0
    2d7c:	701a      	strb	r2, [r3, #0]
    2d7e:	4b16      	ldr	r3, [pc, #88]	@ (2dd8 <init_gpio()+0x108>)
    2d80:	2200      	movs	r2, #0
    2d82:	701a      	strb	r2, [r3, #0]
    2d84:	bf00      	nop
    2d86:	371c      	adds	r7, #28
    2d88:	46bd      	mov	sp, r7
    2d8a:	f85d 7b04 	ldr.w	r7, [sp], #4
    2d8e:	4770      	bx	lr
    2d90:	42dea028 	.word	0x42dea028
    2d94:	42de80a8 	.word	0x42de80a8
    2d98:	42de40a8 	.word	0x42de40a8
    2d9c:	42de00a8 	.word	0x42de00a8
    2da0:	42dea048 	.word	0x42dea048
    2da4:	42de8588 	.word	0x42de8588
    2da8:	42de4588 	.word	0x42de4588
    2dac:	42de0588 	.word	0x42de0588
    2db0:	42dea020 	.word	0x42dea020
    2db4:	42de80a0 	.word	0x42de80a0
    2db8:	42de40a0 	.word	0x42de40a0
    2dbc:	42de00a0 	.word	0x42de00a0
    2dc0:	42dea000 	.word	0x42dea000
    2dc4:	42de8080 	.word	0x42de8080
    2dc8:	42de4080 	.word	0x42de4080
    2dcc:	42de0080 	.word	0x42de0080
    2dd0:	42de2100 	.word	0x42de2100
    2dd4:	42de4100 	.word	0x42de4100
    2dd8:	42de0100 	.word	0x42de0100

00002ddc <gpio_set(user_gpio, unsigned char)>:
    2ddc:	b480      	push	{r7}
    2dde:	b083      	sub	sp, #12
    2de0:	af00      	add	r7, sp, #0
    2de2:	4603      	mov	r3, r0
    2de4:	460a      	mov	r2, r1
    2de6:	71fb      	strb	r3, [r7, #7]
    2de8:	4613      	mov	r3, r2
    2dea:	71bb      	strb	r3, [r7, #6]
    2dec:	79fb      	ldrb	r3, [r7, #7]
    2dee:	2b04      	cmp	r3, #4
    2df0:	d81d      	bhi.n	2e2e <gpio_set(user_gpio, unsigned char)+0x52>
    2df2:	a201      	add	r2, pc, #4	@ (adr r2, 2df8 <gpio_set(user_gpio, unsigned char)+0x1c>)
    2df4:	f852 f023 	ldr.w	pc, [r2, r3, lsl #2]
    2df8:	00002e15 	.word	0x00002e15
    2dfc:	00002e1d 	.word	0x00002e1d
    2e00:	00002e25 	.word	0x00002e25
    2e04:	00002e0d 	.word	0x00002e0d
    2e08:	00002e2d 	.word	0x00002e2d
    2e0c:	4a0b      	ldr	r2, [pc, #44]	@ (2e3c <gpio_set(user_gpio, unsigned char)+0x60>)
    2e0e:	79bb      	ldrb	r3, [r7, #6]
    2e10:	7013      	strb	r3, [r2, #0]
    2e12:	e00c      	b.n	2e2e <gpio_set(user_gpio, unsigned char)+0x52>
    2e14:	4a0a      	ldr	r2, [pc, #40]	@ (2e40 <gpio_set(user_gpio, unsigned char)+0x64>)
    2e16:	79bb      	ldrb	r3, [r7, #6]
    2e18:	7013      	strb	r3, [r2, #0]
    2e1a:	e008      	b.n	2e2e <gpio_set(user_gpio, unsigned char)+0x52>
    2e1c:	4a09      	ldr	r2, [pc, #36]	@ (2e44 <gpio_set(user_gpio, unsigned char)+0x68>)
    2e1e:	79bb      	ldrb	r3, [r7, #6]
    2e20:	7013      	strb	r3, [r2, #0]
    2e22:	e004      	b.n	2e2e <gpio_set(user_gpio, unsigned char)+0x52>
    2e24:	4a08      	ldr	r2, [pc, #32]	@ (2e48 <gpio_set(user_gpio, unsigned char)+0x6c>)
    2e26:	79bb      	ldrb	r3, [r7, #6]
    2e28:	7013      	strb	r3, [r2, #0]
    2e2a:	e000      	b.n	2e2e <gpio_set(user_gpio, unsigned char)+0x52>
    2e2c:	bf00      	nop
    2e2e:	bf00      	nop
    2e30:	370c      	adds	r7, #12
    2e32:	46bd      	mov	sp, r7
    2e34:	f85d 7b04 	ldr.w	r7, [sp], #4
    2e38:	4770      	bx	lr
    2e3a:	bf00      	nop
    2e3c:	42de8080 	.word	0x42de8080
    2e40:	42de80a8 	.word	0x42de80a8
    2e44:	42de8588 	.word	0x42de8588
    2e48:	42de80a0 	.word	0x42de80a0

00002e4c <write_uart0(char const*)>:
    2e4c:	b580      	push	{r7, lr}
    2e4e:	b082      	sub	sp, #8
    2e50:	af00      	add	r7, sp, #0
    2e52:	6078      	str	r0, [r7, #4]
    2e54:	e015      	b.n	2e82 <write_uart0(char const*)+0x36>
    2e56:	bf00      	nop
    2e58:	2104      	movs	r1, #4
    2e5a:	480e      	ldr	r0, [pc, #56]	@ (2e94 <write_uart0(char const*)+0x48>)
    2e5c:	f7fd fd84 	bl	968 <Mfs_Uart_GetStatus>
    2e60:	4603      	mov	r3, r0
    2e62:	2b01      	cmp	r3, #1
    2e64:	bf14      	ite	ne
    2e66:	2301      	movne	r3, #1
    2e68:	2300      	moveq	r3, #0
    2e6a:	b2db      	uxtb	r3, r3
    2e6c:	2b00      	cmp	r3, #0
    2e6e:	d1f3      	bne.n	2e58 <write_uart0(char const*)+0xc>
    2e70:	687b      	ldr	r3, [r7, #4]
    2e72:	781b      	ldrb	r3, [r3, #0]
    2e74:	4619      	mov	r1, r3
    2e76:	4807      	ldr	r0, [pc, #28]	@ (2e94 <write_uart0(char const*)+0x48>)
    2e78:	f7fd fdcc 	bl	a14 <Mfs_Uart_SendData>
    2e7c:	687b      	ldr	r3, [r7, #4]
    2e7e:	3301      	adds	r3, #1
    2e80:	607b      	str	r3, [r7, #4]
    2e82:	687b      	ldr	r3, [r7, #4]
    2e84:	781b      	ldrb	r3, [r3, #0]
    2e86:	2b00      	cmp	r3, #0
    2e88:	d1e5      	bne.n	2e56 <write_uart0(char const*)+0xa>
    2e8a:	bf00      	nop
    2e8c:	bf00      	nop
    2e8e:	3708      	adds	r7, #8
    2e90:	46bd      	mov	sp, r7
    2e92:	bd80      	pop	{r7, pc}
    2e94:	40038000 	.word	0x40038000

00002e98 <debug_printf(char const*, ...)>:
    2e98:	b40f      	push	{r0, r1, r2, r3}
    2e9a:	b580      	push	{r7, lr}
    2e9c:	b096      	sub	sp, #88	@ 0x58
    2e9e:	af00      	add	r7, sp, #0
    2ea0:	f107 0364 	add.w	r3, r7, #100	@ 0x64
    2ea4:	657b      	str	r3, [r7, #84]	@ 0x54
    2ea6:	1d38      	adds	r0, r7, #4
    2ea8:	6d7b      	ldr	r3, [r7, #84]	@ 0x54
    2eaa:	6e3a      	ldr	r2, [r7, #96]	@ 0x60
    2eac:	2150      	movs	r1, #80	@ 0x50
    2eae:	f005 fa3d 	bl	832c <vsnprintf>
    2eb2:	1d3b      	adds	r3, r7, #4
    2eb4:	4618      	mov	r0, r3
    2eb6:	f7ff ffc9 	bl	2e4c <write_uart0(char const*)>
    2eba:	bf00      	nop
    2ebc:	3758      	adds	r7, #88	@ 0x58
    2ebe:	46bd      	mov	sp, r7
    2ec0:	e8bd 4080 	ldmia.w	sp!, {r7, lr}
    2ec4:	b004      	add	sp, #16
    2ec6:	4770      	bx	lr

00002ec8 <fatal_error()>:
    2ec8:	b580      	push	{r7, lr}
    2eca:	af00      	add	r7, sp, #0
    2ecc:	2101      	movs	r1, #1
    2ece:	2001      	movs	r0, #1
    2ed0:	f7ff ff84 	bl	2ddc <gpio_set(user_gpio, unsigned char)>
    2ed4:	2101      	movs	r1, #1
    2ed6:	2002      	movs	r0, #2
    2ed8:	f7ff ff80 	bl	2ddc <gpio_set(user_gpio, unsigned char)>
    2edc:	2100      	movs	r1, #0
    2ede:	2000      	movs	r0, #0
    2ee0:	f7ff ff7c 	bl	2ddc <gpio_set(user_gpio, unsigned char)>
    2ee4:	4802      	ldr	r0, [pc, #8]	@ (2ef0 <fatal_error()+0x28>)
    2ee6:	f7ff ffd7 	bl	2e98 <debug_printf(char const*, ...)>
    2eea:	bf00      	nop
    2eec:	e7fd      	b.n	2eea <fatal_error()+0x22>
    2eee:	bf00      	nop
    2ef0:	0000f7dc 	.word	0x0000f7dc

00002ef4 <convert_audio_sample_to_2ch(unsigned long*, short*, short*)>:
    2ef4:	b480      	push	{r7}
    2ef6:	b087      	sub	sp, #28
    2ef8:	af00      	add	r7, sp, #0
    2efa:	60f8      	str	r0, [r7, #12]
    2efc:	60b9      	str	r1, [r7, #8]
    2efe:	607a      	str	r2, [r7, #4]
    2f00:	f44f 7380 	mov.w	r3, #256	@ 0x100
    2f04:	617b      	str	r3, [r7, #20]
    2f06:	e014      	b.n	2f32 <convert_audio_sample_to_2ch(unsigned long*, short*, short*)+0x3e>
    2f08:	68fb      	ldr	r3, [r7, #12]
    2f0a:	681b      	ldr	r3, [r3, #0]
    2f0c:	0c19      	lsrs	r1, r3, #16
    2f0e:	68bb      	ldr	r3, [r7, #8]
    2f10:	1c9a      	adds	r2, r3, #2
    2f12:	60ba      	str	r2, [r7, #8]
    2f14:	b20a      	sxth	r2, r1
    2f16:	801a      	strh	r2, [r3, #0]
    2f18:	68fb      	ldr	r3, [r7, #12]
    2f1a:	6819      	ldr	r1, [r3, #0]
    2f1c:	687b      	ldr	r3, [r7, #4]
    2f1e:	1c9a      	adds	r2, r3, #2
    2f20:	607a      	str	r2, [r7, #4]
    2f22:	b20a      	sxth	r2, r1
    2f24:	801a      	strh	r2, [r3, #0]
    2f26:	68fb      	ldr	r3, [r7, #12]
    2f28:	3304      	adds	r3, #4
    2f2a:	60fb      	str	r3, [r7, #12]
    2f2c:	697b      	ldr	r3, [r7, #20]
    2f2e:	3b01      	subs	r3, #1
    2f30:	617b      	str	r3, [r7, #20]
    2f32:	697b      	ldr	r3, [r7, #20]
    2f34:	2b00      	cmp	r3, #0
    2f36:	d1e7      	bne.n	2f08 <convert_audio_sample_to_2ch(unsigned long*, short*, short*)+0x14>
    2f38:	bf00      	nop
    2f3a:	bf00      	nop
    2f3c:	371c      	adds	r7, #28
    2f3e:	46bd      	mov	sp, r7
    2f40:	f85d 7b04 	ldr.w	r7, [sp], #4
    2f44:	4770      	bx	lr

00002f46 <convert_2ch_to_audio_sample(short*, short*, unsigned long*)>:
    2f46:	b480      	push	{r7}
    2f48:	b089      	sub	sp, #36	@ 0x24
    2f4a:	af00      	add	r7, sp, #0
    2f4c:	60f8      	str	r0, [r7, #12]
    2f4e:	60b9      	str	r1, [r7, #8]
    2f50:	607a      	str	r2, [r7, #4]
    2f52:	f44f 7380 	mov.w	r3, #256	@ 0x100
    2f56:	61fb      	str	r3, [r7, #28]
    2f58:	e01a      	b.n	2f90 <convert_2ch_to_audio_sample(short*, short*, unsigned long*)+0x4a>
    2f5a:	68fb      	ldr	r3, [r7, #12]
    2f5c:	f9b3 3000 	ldrsh.w	r3, [r3]
    2f60:	b29b      	uxth	r3, r3
    2f62:	61bb      	str	r3, [r7, #24]
    2f64:	68bb      	ldr	r3, [r7, #8]
    2f66:	f9b3 3000 	ldrsh.w	r3, [r3]
    2f6a:	b29b      	uxth	r3, r3
    2f6c:	617b      	str	r3, [r7, #20]
    2f6e:	69bb      	ldr	r3, [r7, #24]
    2f70:	0419      	lsls	r1, r3, #16
    2f72:	687b      	ldr	r3, [r7, #4]
    2f74:	1d1a      	adds	r2, r3, #4
    2f76:	607a      	str	r2, [r7, #4]
    2f78:	697a      	ldr	r2, [r7, #20]
    2f7a:	430a      	orrs	r2, r1
    2f7c:	601a      	str	r2, [r3, #0]
    2f7e:	68fb      	ldr	r3, [r7, #12]
    2f80:	3302      	adds	r3, #2
    2f82:	60fb      	str	r3, [r7, #12]
    2f84:	68bb      	ldr	r3, [r7, #8]
    2f86:	3302      	adds	r3, #2
    2f88:	60bb      	str	r3, [r7, #8]
    2f8a:	69fb      	ldr	r3, [r7, #28]
    2f8c:	3b01      	subs	r3, #1
    2f8e:	61fb      	str	r3, [r7, #28]
    2f90:	69fb      	ldr	r3, [r7, #28]
    2f92:	2b00      	cmp	r3, #0
    2f94:	d1e1      	bne.n	2f5a <convert_2ch_to_audio_sample(short*, short*, unsigned long*)+0x14>
    2f96:	bf00      	nop
    2f98:	bf00      	nop
    2f9a:	3724      	adds	r7, #36	@ 0x24
    2f9c:	46bd      	mov	sp, r7
    2f9e:	f85d 7b04 	ldr.w	r7, [sp], #4
    2fa2:	4770      	bx	lr

00002fa4 <std::fabs(float)>:
    2fa4:	b480      	push	{r7}
    2fa6:	b083      	sub	sp, #12
    2fa8:	af00      	add	r7, sp, #0
    2faa:	ed87 0a01 	vstr	s0, [r7, #4]
    2fae:	edd7 7a01 	vldr	s15, [r7, #4]
    2fb2:	eef0 7ae7 	vabs.f32	s15, s15
    2fb6:	eeb0 0a67 	vmov.f32	s0, s15
    2fba:	370c      	adds	r7, #12
    2fbc:	46bd      	mov	sp, r7
    2fbe:	f85d 7b04 	ldr.w	r7, [sp], #4
    2fc2:	4770      	bx	lr

00002fc4 <calculate_magnitude(float*, float*, unsigned long)>:
    2fc4:	b590      	push	{r4, r7, lr}
    2fc6:	b087      	sub	sp, #28
    2fc8:	af00      	add	r7, sp, #0
    2fca:	60f8      	str	r0, [r7, #12]
    2fcc:	60b9      	str	r1, [r7, #8]
    2fce:	607a      	str	r2, [r7, #4]
    2fd0:	68fb      	ldr	r3, [r7, #12]
    2fd2:	edd3 7a00 	vldr	s15, [r3]
    2fd6:	eef0 7ae7 	vabs.f32	s15, s15
    2fda:	68bb      	ldr	r3, [r7, #8]
    2fdc:	edc3 7a00 	vstr	s15, [r3]
    2fe0:	2301      	movs	r3, #1
    2fe2:	617b      	str	r3, [r7, #20]
    2fe4:	e02e      	b.n	3044 <calculate_magnitude(float*, float*, unsigned long)+0x80>
    2fe6:	697b      	ldr	r3, [r7, #20]
    2fe8:	00db      	lsls	r3, r3, #3
    2fea:	68fa      	ldr	r2, [r7, #12]
    2fec:	4413      	add	r3, r2
    2fee:	ed93 7a00 	vldr	s14, [r3]
    2ff2:	697b      	ldr	r3, [r7, #20]
    2ff4:	00db      	lsls	r3, r3, #3
    2ff6:	68fa      	ldr	r2, [r7, #12]
    2ff8:	4413      	add	r3, r2
    2ffa:	edd3 7a00 	vldr	s15, [r3]
    2ffe:	ee27 7a27 	vmul.f32	s14, s14, s15
    3002:	697b      	ldr	r3, [r7, #20]
    3004:	00db      	lsls	r3, r3, #3
    3006:	3304      	adds	r3, #4
    3008:	68fa      	ldr	r2, [r7, #12]
    300a:	4413      	add	r3, r2
    300c:	edd3 6a00 	vldr	s13, [r3]
    3010:	697b      	ldr	r3, [r7, #20]
    3012:	00db      	lsls	r3, r3, #3
    3014:	3304      	adds	r3, #4
    3016:	68fa      	ldr	r2, [r7, #12]
    3018:	4413      	add	r3, r2
    301a:	edd3 7a00 	vldr	s15, [r3]
    301e:	ee66 7aa7 	vmul.f32	s15, s13, s15
    3022:	ee77 7a27 	vadd.f32	s15, s14, s15
    3026:	697b      	ldr	r3, [r7, #20]
    3028:	009b      	lsls	r3, r3, #2
    302a:	68ba      	ldr	r2, [r7, #8]
    302c:	18d4      	adds	r4, r2, r3
    302e:	eeb0 0a67 	vmov.f32	s0, s15
    3032:	f00b fac5 	bl	e5c0 <sqrtf>
    3036:	eef0 7a40 	vmov.f32	s15, s0
    303a:	edc4 7a00 	vstr	s15, [r4]
    303e:	697b      	ldr	r3, [r7, #20]
    3040:	3301      	adds	r3, #1
    3042:	617b      	str	r3, [r7, #20]
    3044:	687b      	ldr	r3, [r7, #4]
    3046:	085b      	lsrs	r3, r3, #1
    3048:	697a      	ldr	r2, [r7, #20]
    304a:	429a      	cmp	r2, r3
    304c:	d3cb      	bcc.n	2fe6 <calculate_magnitude(float*, float*, unsigned long)+0x22>
    304e:	bf00      	nop
    3050:	bf00      	nop
    3052:	371c      	adds	r7, #28
    3054:	46bd      	mov	sp, r7
    3056:	bd90      	pop	{r4, r7, pc}

00003058 <extract_features(float*, float*, AudioFeatures*)>:
    3058:	b580      	push	{r7, lr}
    305a:	b09c      	sub	sp, #112	@ 0x70
    305c:	af00      	add	r7, sp, #0
    305e:	60f8      	str	r0, [r7, #12]
    3060:	60b9      	str	r1, [r7, #8]
    3062:	607a      	str	r2, [r7, #4]
    3064:	4bc0      	ldr	r3, [pc, #768]	@ (3368 <extract_features(float*, float*, AudioFeatures*)+0x310>)
    3066:	63bb      	str	r3, [r7, #56]	@ 0x38
    3068:	2380      	movs	r3, #128	@ 0x80
    306a:	637b      	str	r3, [r7, #52]	@ 0x34
    306c:	4bbf      	ldr	r3, [pc, #764]	@ (336c <extract_features(float*, float*, AudioFeatures*)+0x314>)
    306e:	633b      	str	r3, [r7, #48]	@ 0x30
    3070:	f04f 0300 	mov.w	r3, #0
    3074:	66fb      	str	r3, [r7, #108]	@ 0x6c
    3076:	f04f 0300 	mov.w	r3, #0
    307a:	66bb      	str	r3, [r7, #104]	@ 0x68
    307c:	f04f 0300 	mov.w	r3, #0
    3080:	667b      	str	r3, [r7, #100]	@ 0x64
    3082:	f04f 0300 	mov.w	r3, #0
    3086:	663b      	str	r3, [r7, #96]	@ 0x60
    3088:	2300      	movs	r3, #0
    308a:	65fb      	str	r3, [r7, #92]	@ 0x5c
    308c:	f04f 0300 	mov.w	r3, #0
    3090:	65bb      	str	r3, [r7, #88]	@ 0x58
    3092:	f04f 0300 	mov.w	r3, #0
    3096:	657b      	str	r3, [r7, #84]	@ 0x54
    3098:	f04f 0300 	mov.w	r3, #0
    309c:	653b      	str	r3, [r7, #80]	@ 0x50
    309e:	687b      	ldr	r3, [r7, #4]
    30a0:	681a      	ldr	r2, [r3, #0]
    30a2:	687b      	ldr	r3, [r7, #4]
    30a4:	625a      	str	r2, [r3, #36]	@ 0x24
    30a6:	687b      	ldr	r3, [r7, #4]
    30a8:	691a      	ldr	r2, [r3, #16]
    30aa:	687b      	ldr	r3, [r7, #4]
    30ac:	635a      	str	r2, [r3, #52]	@ 0x34
    30ae:	687b      	ldr	r3, [r7, #4]
    30b0:	695a      	ldr	r2, [r3, #20]
    30b2:	687b      	ldr	r3, [r7, #4]
    30b4:	639a      	str	r2, [r3, #56]	@ 0x38
    30b6:	687b      	ldr	r3, [r7, #4]
    30b8:	699a      	ldr	r2, [r3, #24]
    30ba:	687b      	ldr	r3, [r7, #4]
    30bc:	63da      	str	r2, [r3, #60]	@ 0x3c
    30be:	687b      	ldr	r3, [r7, #4]
    30c0:	69da      	ldr	r2, [r3, #28]
    30c2:	687b      	ldr	r3, [r7, #4]
    30c4:	641a      	str	r2, [r3, #64]	@ 0x40
    30c6:	687b      	ldr	r3, [r7, #4]
    30c8:	6a1a      	ldr	r2, [r3, #32]
    30ca:	687b      	ldr	r3, [r7, #4]
    30cc:	645a      	str	r2, [r3, #68]	@ 0x44
    30ce:	2301      	movs	r3, #1
    30d0:	64fb      	str	r3, [r7, #76]	@ 0x4c
    30d2:	e01b      	b.n	310c <extract_features(float*, float*, AudioFeatures*)+0xb4>
    30d4:	6cfb      	ldr	r3, [r7, #76]	@ 0x4c
    30d6:	009b      	lsls	r3, r3, #2
    30d8:	68fa      	ldr	r2, [r7, #12]
    30da:	4413      	add	r3, r2
    30dc:	edd3 7a00 	vldr	s15, [r3]
    30e0:	ed9f 7aa3 	vldr	s14, [pc, #652]	@ 3370 <extract_features(float*, float*, AudioFeatures*)+0x318>
    30e4:	eef4 7ac7 	vcmpe.f32	s15, s14
    30e8:	eef1 fa10 	vmrs	APSR_nzcv, fpscr
    30ec:	dd0b      	ble.n	3106 <extract_features(float*, float*, AudioFeatures*)+0xae>
    30ee:	6cfb      	ldr	r3, [r7, #76]	@ 0x4c
    30f0:	009b      	lsls	r3, r3, #2
    30f2:	68fa      	ldr	r2, [r7, #12]
    30f4:	4413      	add	r3, r2
    30f6:	edd3 7a00 	vldr	s15, [r3]
    30fa:	ed97 7a1a 	vldr	s14, [r7, #104]	@ 0x68
    30fe:	ee77 7a27 	vadd.f32	s15, s14, s15
    3102:	edc7 7a1a 	vstr	s15, [r7, #104]	@ 0x68
    3106:	6cfb      	ldr	r3, [r7, #76]	@ 0x4c
    3108:	3301      	adds	r3, #1
    310a:	64fb      	str	r3, [r7, #76]	@ 0x4c
    310c:	6cfb      	ldr	r3, [r7, #76]	@ 0x4c
    310e:	2b7f      	cmp	r3, #127	@ 0x7f
    3110:	d9e0      	bls.n	30d4 <extract_features(float*, float*, AudioFeatures*)+0x7c>
    3112:	2301      	movs	r3, #1
    3114:	64bb      	str	r3, [r7, #72]	@ 0x48
    3116:	e0ae      	b.n	3276 <extract_features(float*, float*, AudioFeatures*)+0x21e>
    3118:	6cbb      	ldr	r3, [r7, #72]	@ 0x48
    311a:	009b      	lsls	r3, r3, #2
    311c:	68fa      	ldr	r2, [r7, #12]
    311e:	4413      	add	r3, r2
    3120:	edd3 7a00 	vldr	s15, [r3]
    3124:	ed9f 7a93 	vldr	s14, [pc, #588]	@ 3374 <extract_features(float*, float*, AudioFeatures*)+0x31c>
    3128:	ee77 7a87 	vadd.f32	s15, s15, s14
    312c:	edc7 7a07 	vstr	s15, [r7, #28]
    3130:	ed97 0a07 	vldr	s0, [r7, #28]
    3134:	f00b f9e4 	bl	e500 <logf>
    3138:	eeb0 7a40 	vmov.f32	s14, s0
    313c:	edd7 7a15 	vldr	s15, [r7, #84]	@ 0x54
    3140:	ee77 7a87 	vadd.f32	s15, s15, s14
    3144:	edc7 7a15 	vstr	s15, [r7, #84]	@ 0x54
    3148:	6cbb      	ldr	r3, [r7, #72]	@ 0x48
    314a:	009b      	lsls	r3, r3, #2
    314c:	68fa      	ldr	r2, [r7, #12]
    314e:	4413      	add	r3, r2
    3150:	edd3 7a00 	vldr	s15, [r3]
    3154:	ed9f 7a86 	vldr	s14, [pc, #536]	@ 3370 <extract_features(float*, float*, AudioFeatures*)+0x318>
    3158:	eef4 7ac7 	vcmpe.f32	s15, s14
    315c:	eef1 fa10 	vmrs	APSR_nzcv, fpscr
    3160:	dd17      	ble.n	3192 <extract_features(float*, float*, AudioFeatures*)+0x13a>
    3162:	6cbb      	ldr	r3, [r7, #72]	@ 0x48
    3164:	ee07 3a90 	vmov	s15, r3
    3168:	eeb8 7a67 	vcvt.f32.u32	s14, s15
    316c:	4b82      	ldr	r3, [pc, #520]	@ (3378 <extract_features(float*, float*, AudioFeatures*)+0x320>)
    316e:	edd3 7a00 	vldr	s15, [r3]
    3172:	ee27 7a27 	vmul.f32	s14, s14, s15
    3176:	6cbb      	ldr	r3, [r7, #72]	@ 0x48
    3178:	009b      	lsls	r3, r3, #2
    317a:	68fa      	ldr	r2, [r7, #12]
    317c:	4413      	add	r3, r2
    317e:	edd3 7a00 	vldr	s15, [r3]
    3182:	ee67 7a27 	vmul.f32	s15, s14, s15
    3186:	ed97 7a1b 	vldr	s14, [r7, #108]	@ 0x6c
    318a:	ee77 7a27 	vadd.f32	s15, s14, s15
    318e:	edc7 7a1b 	vstr	s15, [r7, #108]	@ 0x6c
    3192:	6cbb      	ldr	r3, [r7, #72]	@ 0x48
    3194:	009b      	lsls	r3, r3, #2
    3196:	68fa      	ldr	r2, [r7, #12]
    3198:	4413      	add	r3, r2
    319a:	ed93 7a00 	vldr	s14, [r3]
    319e:	6cbb      	ldr	r3, [r7, #72]	@ 0x48
    31a0:	009b      	lsls	r3, r3, #2
    31a2:	68fa      	ldr	r2, [r7, #12]
    31a4:	4413      	add	r3, r2
    31a6:	edd3 7a00 	vldr	s15, [r3]
    31aa:	ee67 7a27 	vmul.f32	s15, s14, s15
    31ae:	ed97 7a19 	vldr	s14, [r7, #100]	@ 0x64
    31b2:	ee77 7a27 	vadd.f32	s15, s14, s15
    31b6:	edc7 7a19 	vstr	s15, [r7, #100]	@ 0x64
    31ba:	6cbb      	ldr	r3, [r7, #72]	@ 0x48
    31bc:	009b      	lsls	r3, r3, #2
    31be:	68fa      	ldr	r2, [r7, #12]
    31c0:	4413      	add	r3, r2
    31c2:	edd3 7a00 	vldr	s15, [r3]
    31c6:	ed97 7a18 	vldr	s14, [r7, #96]	@ 0x60
    31ca:	eeb4 7ae7 	vcmpe.f32	s14, s15
    31ce:	eef1 fa10 	vmrs	APSR_nzcv, fpscr
    31d2:	d507      	bpl.n	31e4 <extract_features(float*, float*, AudioFeatures*)+0x18c>
    31d4:	6cbb      	ldr	r3, [r7, #72]	@ 0x48
    31d6:	009b      	lsls	r3, r3, #2
    31d8:	68fa      	ldr	r2, [r7, #12]
    31da:	4413      	add	r3, r2
    31dc:	681b      	ldr	r3, [r3, #0]
    31de:	663b      	str	r3, [r7, #96]	@ 0x60
    31e0:	6cbb      	ldr	r3, [r7, #72]	@ 0x48
    31e2:	65fb      	str	r3, [r7, #92]	@ 0x5c
    31e4:	edd7 7a1a 	vldr	s15, [r7, #104]	@ 0x68
    31e8:	ed9f 7a64 	vldr	s14, [pc, #400]	@ 337c <extract_features(float*, float*, AudioFeatures*)+0x324>
    31ec:	eef4 7ac7 	vcmpe.f32	s15, s14
    31f0:	eef1 fa10 	vmrs	APSR_nzcv, fpscr
    31f4:	dd0a      	ble.n	320c <extract_features(float*, float*, AudioFeatures*)+0x1b4>
    31f6:	6cbb      	ldr	r3, [r7, #72]	@ 0x48
    31f8:	009b      	lsls	r3, r3, #2
    31fa:	68fa      	ldr	r2, [r7, #12]
    31fc:	4413      	add	r3, r2
    31fe:	edd3 6a00 	vldr	s13, [r3]
    3202:	ed97 7a1a 	vldr	s14, [r7, #104]	@ 0x68
    3206:	eec6 7a87 	vdiv.f32	s15, s13, s14
    320a:	e001      	b.n	3210 <extract_features(float*, float*, AudioFeatures*)+0x1b8>
    320c:	eddf 7a60 	vldr	s15, [pc, #384]	@ 3390 <extract_features(float*, float*, AudioFeatures*)+0x338>
    3210:	edc7 7a06 	vstr	s15, [r7, #24]
    3214:	4b5a      	ldr	r3, [pc, #360]	@ (3380 <extract_features(float*, float*, AudioFeatures*)+0x328>)
    3216:	edd3 7a00 	vldr	s15, [r3]
    321a:	ed9f 7a58 	vldr	s14, [pc, #352]	@ 337c <extract_features(float*, float*, AudioFeatures*)+0x324>
    321e:	eef4 7ac7 	vcmpe.f32	s15, s14
    3222:	eef1 fa10 	vmrs	APSR_nzcv, fpscr
    3226:	dd0b      	ble.n	3240 <extract_features(float*, float*, AudioFeatures*)+0x1e8>
    3228:	6cbb      	ldr	r3, [r7, #72]	@ 0x48
    322a:	009b      	lsls	r3, r3, #2
    322c:	68ba      	ldr	r2, [r7, #8]
    322e:	4413      	add	r3, r2
    3230:	edd3 6a00 	vldr	s13, [r3]
    3234:	4b52      	ldr	r3, [pc, #328]	@ (3380 <extract_features(float*, float*, AudioFeatures*)+0x328>)
    3236:	ed93 7a00 	vldr	s14, [r3]
    323a:	eec6 7a87 	vdiv.f32	s15, s13, s14
    323e:	e001      	b.n	3244 <extract_features(float*, float*, AudioFeatures*)+0x1ec>
    3240:	eddf 7a53 	vldr	s15, [pc, #332]	@ 3390 <extract_features(float*, float*, AudioFeatures*)+0x338>
    3244:	edc7 7a05 	vstr	s15, [r7, #20]
    3248:	ed97 7a06 	vldr	s14, [r7, #24]
    324c:	edd7 7a05 	vldr	s15, [r7, #20]
    3250:	ee37 7a67 	vsub.f32	s14, s14, s15
    3254:	edd7 6a06 	vldr	s13, [r7, #24]
    3258:	edd7 7a05 	vldr	s15, [r7, #20]
    325c:	ee76 7ae7 	vsub.f32	s15, s13, s15
    3260:	ee67 7a27 	vmul.f32	s15, s14, s15
    3264:	ed97 7a16 	vldr	s14, [r7, #88]	@ 0x58
    3268:	ee77 7a27 	vadd.f32	s15, s14, s15
    326c:	edc7 7a16 	vstr	s15, [r7, #88]	@ 0x58
    3270:	6cbb      	ldr	r3, [r7, #72]	@ 0x48
    3272:	3301      	adds	r3, #1
    3274:	64bb      	str	r3, [r7, #72]	@ 0x48
    3276:	6cbb      	ldr	r3, [r7, #72]	@ 0x48
    3278:	2b7f      	cmp	r3, #127	@ 0x7f
    327a:	f67f af4d 	bls.w	3118 <extract_features(float*, float*, AudioFeatures*)+0xc0>
    327e:	edd7 7a15 	vldr	s15, [r7, #84]	@ 0x54
    3282:	ed9f 7a40 	vldr	s14, [pc, #256]	@ 3384 <extract_features(float*, float*, AudioFeatures*)+0x32c>
    3286:	ee67 7a87 	vmul.f32	s15, s15, s14
    328a:	eeb0 0a67 	vmov.f32	s0, s15
    328e:	f00b f8fb 	bl	e488 <expf>
    3292:	ed87 0a0b 	vstr	s0, [r7, #44]	@ 0x2c
    3296:	edd7 7a1a 	vldr	s15, [r7, #104]	@ 0x68
    329a:	ed9f 7a3a 	vldr	s14, [pc, #232]	@ 3384 <extract_features(float*, float*, AudioFeatures*)+0x32c>
    329e:	ee67 7a87 	vmul.f32	s15, s15, s14
    32a2:	edc7 7a0a 	vstr	s15, [r7, #40]	@ 0x28
    32a6:	edd7 7a0a 	vldr	s15, [r7, #40]	@ 0x28
    32aa:	ed9f 7a32 	vldr	s14, [pc, #200]	@ 3374 <extract_features(float*, float*, AudioFeatures*)+0x31c>
    32ae:	ee37 7a87 	vadd.f32	s14, s15, s14
    32b2:	edd7 6a0b 	vldr	s13, [r7, #44]	@ 0x2c
    32b6:	eec6 7a87 	vdiv.f32	s15, s13, s14
    32ba:	687b      	ldr	r3, [r7, #4]
    32bc:	edc3 7a02 	vstr	s15, [r3, #8]
    32c0:	4b31      	ldr	r3, [pc, #196]	@ (3388 <extract_features(float*, float*, AudioFeatures*)+0x330>)
    32c2:	edd3 7a00 	vldr	s15, [r3]
    32c6:	eeb6 7a00 	vmov.f32	s14, #96	@ 0x3f000000  0.5
    32ca:	ee67 7a87 	vmul.f32	s15, s15, s14
    32ce:	687b      	ldr	r3, [r7, #4]
    32d0:	edc3 7a03 	vstr	s15, [r3, #12]
    32d4:	f04f 0300 	mov.w	r3, #0
    32d8:	647b      	str	r3, [r7, #68]	@ 0x44
    32da:	edd7 7a1a 	vldr	s15, [r7, #104]	@ 0x68
    32de:	ed9f 7a2b 	vldr	s14, [pc, #172]	@ 338c <extract_features(float*, float*, AudioFeatures*)+0x334>
    32e2:	ee67 7a87 	vmul.f32	s15, s15, s14
    32e6:	edc7 7a09 	vstr	s15, [r7, #36]	@ 0x24
    32ea:	2301      	movs	r3, #1
    32ec:	643b      	str	r3, [r7, #64]	@ 0x40
    32ee:	e025      	b.n	333c <extract_features(float*, float*, AudioFeatures*)+0x2e4>
    32f0:	6c3b      	ldr	r3, [r7, #64]	@ 0x40
    32f2:	009b      	lsls	r3, r3, #2
    32f4:	68fa      	ldr	r2, [r7, #12]
    32f6:	4413      	add	r3, r2
    32f8:	edd3 7a00 	vldr	s15, [r3]
    32fc:	ed97 7a11 	vldr	s14, [r7, #68]	@ 0x44
    3300:	ee77 7a27 	vadd.f32	s15, s14, s15
    3304:	edc7 7a11 	vstr	s15, [r7, #68]	@ 0x44
    3308:	ed97 7a11 	vldr	s14, [r7, #68]	@ 0x44
    330c:	edd7 7a09 	vldr	s15, [r7, #36]	@ 0x24
    3310:	eeb4 7ae7 	vcmpe.f32	s14, s15
    3314:	eef1 fa10 	vmrs	APSR_nzcv, fpscr
    3318:	db0d      	blt.n	3336 <extract_features(float*, float*, AudioFeatures*)+0x2de>
    331a:	6c3b      	ldr	r3, [r7, #64]	@ 0x40
    331c:	ee07 3a90 	vmov	s15, r3
    3320:	eeb8 7a67 	vcvt.f32.u32	s14, s15
    3324:	4b14      	ldr	r3, [pc, #80]	@ (3378 <extract_features(float*, float*, AudioFeatures*)+0x320>)
    3326:	edd3 7a00 	vldr	s15, [r3]
    332a:	ee67 7a27 	vmul.f32	s15, s14, s15
    332e:	687b      	ldr	r3, [r7, #4]
    3330:	edc3 7a03 	vstr	s15, [r3, #12]
    3334:	e005      	b.n	3342 <extract_features(float*, float*, AudioFeatures*)+0x2ea>
    3336:	6c3b      	ldr	r3, [r7, #64]	@ 0x40
    3338:	3301      	adds	r3, #1
    333a:	643b      	str	r3, [r7, #64]	@ 0x40
    333c:	6c3b      	ldr	r3, [r7, #64]	@ 0x40
    333e:	2b7f      	cmp	r3, #127	@ 0x7f
    3340:	d9d6      	bls.n	32f0 <extract_features(float*, float*, AudioFeatures*)+0x298>
    3342:	4a0f      	ldr	r2, [pc, #60]	@ (3380 <extract_features(float*, float*, AudioFeatures*)+0x328>)
    3344:	6ebb      	ldr	r3, [r7, #104]	@ 0x68
    3346:	6013      	str	r3, [r2, #0]
    3348:	edd7 7a1a 	vldr	s15, [r7, #104]	@ 0x68
    334c:	ed9f 7a0b 	vldr	s14, [pc, #44]	@ 337c <extract_features(float*, float*, AudioFeatures*)+0x324>
    3350:	eef4 7ac7 	vcmpe.f32	s15, s14
    3354:	eef1 fa10 	vmrs	APSR_nzcv, fpscr
    3358:	dd1c      	ble.n	3394 <extract_features(float*, float*, AudioFeatures*)+0x33c>
    335a:	edd7 6a1b 	vldr	s13, [r7, #108]	@ 0x6c
    335e:	ed97 7a1a 	vldr	s14, [r7, #104]	@ 0x68
    3362:	eec6 7a87 	vdiv.f32	s15, s13, s14
    3366:	e017      	b.n	3398 <extract_features(float*, float*, AudioFeatures*)+0x340>
    3368:	2b8cbccc 	.word	0x2b8cbccc
    336c:	3c010204 	.word	0x3c010204
    3370:	3c23d70a 	.word	0x3c23d70a
    3374:	2b8cbccc 	.word	0x2b8cbccc
    3378:	1ffd0be8 	.word	0x1ffd0be8
    337c:	358637bd 	.word	0x358637bd
    3380:	1fffc530 	.word	0x1fffc530
    3384:	3c010204 	.word	0x3c010204
    3388:	1ffd007c 	.word	0x1ffd007c
    338c:	3f59999a 	.word	0x3f59999a
    3390:	00000000 	.word	0x00000000
    3394:	ed5f 7a02 	vldr	s15, [pc, #-8]	@ 3390 <extract_features(float*, float*, AudioFeatures*)+0x338>
    3398:	687b      	ldr	r3, [r7, #4]
    339a:	edc3 7a00 	vstr	s15, [r3]
    339e:	2301      	movs	r3, #1
    33a0:	63fb      	str	r3, [r7, #60]	@ 0x3c
    33a2:	e025      	b.n	33f0 <extract_features(float*, float*, AudioFeatures*)+0x398>
    33a4:	6bfb      	ldr	r3, [r7, #60]	@ 0x3c
    33a6:	ee07 3a90 	vmov	s15, r3
    33aa:	eeb8 7a67 	vcvt.f32.u32	s14, s15
    33ae:	4b34      	ldr	r3, [pc, #208]	@ (3480 <extract_features(float*, float*, AudioFeatures*)+0x428>)
    33b0:	edd3 7a00 	vldr	s15, [r3]
    33b4:	ee27 7a27 	vmul.f32	s14, s14, s15
    33b8:	687b      	ldr	r3, [r7, #4]
    33ba:	edd3 7a00 	vldr	s15, [r3]
    33be:	ee77 7a67 	vsub.f32	s15, s14, s15
    33c2:	edc7 7a08 	vstr	s15, [r7, #32]
    33c6:	edd7 7a08 	vldr	s15, [r7, #32]
    33ca:	ee27 7aa7 	vmul.f32	s14, s15, s15
    33ce:	6bfb      	ldr	r3, [r7, #60]	@ 0x3c
    33d0:	009b      	lsls	r3, r3, #2
    33d2:	68fa      	ldr	r2, [r7, #12]
    33d4:	4413      	add	r3, r2
    33d6:	edd3 7a00 	vldr	s15, [r3]
    33da:	ee67 7a27 	vmul.f32	s15, s14, s15
    33de:	ed97 7a14 	vldr	s14, [r7, #80]	@ 0x50
    33e2:	ee77 7a27 	vadd.f32	s15, s14, s15
    33e6:	edc7 7a14 	vstr	s15, [r7, #80]	@ 0x50
    33ea:	6bfb      	ldr	r3, [r7, #60]	@ 0x3c
    33ec:	3301      	adds	r3, #1
    33ee:	63fb      	str	r3, [r7, #60]	@ 0x3c
    33f0:	6bfb      	ldr	r3, [r7, #60]	@ 0x3c
    33f2:	2b7f      	cmp	r3, #127	@ 0x7f
    33f4:	d9d6      	bls.n	33a4 <extract_features(float*, float*, AudioFeatures*)+0x34c>
    33f6:	edd7 7a1a 	vldr	s15, [r7, #104]	@ 0x68
    33fa:	ed9f 7a22 	vldr	s14, [pc, #136]	@ 3484 <extract_features(float*, float*, AudioFeatures*)+0x42c>
    33fe:	ee77 7a87 	vadd.f32	s15, s15, s14
    3402:	ed97 7a14 	vldr	s14, [r7, #80]	@ 0x50
    3406:	eec7 6a27 	vdiv.f32	s13, s14, s15
    340a:	eeb0 0a66 	vmov.f32	s0, s13
    340e:	f00b f8d7 	bl	e5c0 <sqrtf>
    3412:	eef0 7a40 	vmov.f32	s15, s0
    3416:	687b      	ldr	r3, [r7, #4]
    3418:	edc3 7a01 	vstr	s15, [r3, #4]
    341c:	687b      	ldr	r3, [r7, #4]
    341e:	6e7a      	ldr	r2, [r7, #100]	@ 0x64
    3420:	615a      	str	r2, [r3, #20]
    3422:	ed97 7a19 	vldr	s14, [r7, #100]	@ 0x64
    3426:	eddf 6a18 	vldr	s13, [pc, #96]	@ 3488 <extract_features(float*, float*, AudioFeatures*)+0x430>
    342a:	eec7 7a26 	vdiv.f32	s15, s14, s13
    342e:	ed9f 7a15 	vldr	s14, [pc, #84]	@ 3484 <extract_features(float*, float*, AudioFeatures*)+0x42c>
    3432:	ee77 7a87 	vadd.f32	s15, s15, s14
    3436:	eeb0 0a67 	vmov.f32	s0, s15
    343a:	f00b f891 	bl	e560 <log10f>
    343e:	eef0 7a40 	vmov.f32	s15, s0
    3442:	eeb2 7a04 	vmov.f32	s14, #36	@ 0x41200000  10.0
    3446:	ee67 7a87 	vmul.f32	s15, s15, s14
    344a:	687b      	ldr	r3, [r7, #4]
    344c:	edc3 7a04 	vstr	s15, [r3, #16]
    3450:	6dfb      	ldr	r3, [r7, #92]	@ 0x5c
    3452:	ee07 3a90 	vmov	s15, r3
    3456:	eeb8 7a67 	vcvt.f32.u32	s14, s15
    345a:	4b09      	ldr	r3, [pc, #36]	@ (3480 <extract_features(float*, float*, AudioFeatures*)+0x428>)
    345c:	edd3 7a00 	vldr	s15, [r3]
    3460:	ee67 7a27 	vmul.f32	s15, s14, s15
    3464:	687b      	ldr	r3, [r7, #4]
    3466:	edc3 7a06 	vstr	s15, [r3, #24]
    346a:	687b      	ldr	r3, [r7, #4]
    346c:	6e3a      	ldr	r2, [r7, #96]	@ 0x60
    346e:	61da      	str	r2, [r3, #28]
    3470:	687b      	ldr	r3, [r7, #4]
    3472:	6dba      	ldr	r2, [r7, #88]	@ 0x58
    3474:	621a      	str	r2, [r3, #32]
    3476:	bf00      	nop
    3478:	3770      	adds	r7, #112	@ 0x70
    347a:	46bd      	mov	sp, r7
    347c:	bd80      	pop	{r7, pc}
    347e:	bf00      	nop
    3480:	1ffd0be8 	.word	0x1ffd0be8
    3484:	2b8cbccc 	.word	0x2b8cbccc
    3488:	43000000 	.word	0x43000000

0000348c <normalize(double, double, double)>:
    348c:	b5b0      	push	{r4, r5, r7, lr}
    348e:	b088      	sub	sp, #32
    3490:	af00      	add	r7, sp, #0
    3492:	ed87 0b04 	vstr	d0, [r7, #16]
    3496:	ed87 1b02 	vstr	d1, [r7, #8]
    349a:	ed87 2b00 	vstr	d2, [r7]
    349e:	e9d7 2302 	ldrd	r2, r3, [r7, #8]
    34a2:	e9d7 0104 	ldrd	r0, r1, [r7, #16]
    34a6:	f004 f959 	bl	775c <__aeabi_dsub>
    34aa:	4602      	mov	r2, r0
    34ac:	460b      	mov	r3, r1
    34ae:	4614      	mov	r4, r2
    34b0:	461d      	mov	r5, r3
    34b2:	e9d7 2302 	ldrd	r2, r3, [r7, #8]
    34b6:	e9d7 0100 	ldrd	r0, r1, [r7]
    34ba:	f004 f94f 	bl	775c <__aeabi_dsub>
    34be:	4602      	mov	r2, r0
    34c0:	460b      	mov	r3, r1
    34c2:	4620      	mov	r0, r4
    34c4:	4629      	mov	r1, r5
    34c6:	f004 fc2b 	bl	7d20 <__aeabi_ddiv>
    34ca:	4602      	mov	r2, r0
    34cc:	460b      	mov	r3, r1
    34ce:	e9c7 2306 	strd	r2, r3, [r7, #24]
    34d2:	f04f 0200 	mov.w	r2, #0
    34d6:	f04f 0300 	mov.w	r3, #0
    34da:	e9d7 0106 	ldrd	r0, r1, [r7, #24]
    34de:	f004 fd67 	bl	7fb0 <__aeabi_dcmplt>
    34e2:	4603      	mov	r3, r0
    34e4:	2b00      	cmp	r3, #0
    34e6:	d004      	beq.n	34f2 <normalize(double, double, double)+0x66>
    34e8:	f04f 0200 	mov.w	r2, #0
    34ec:	f04f 0300 	mov.w	r3, #0
    34f0:	e00f      	b.n	3512 <normalize(double, double, double)+0x86>
    34f2:	f04f 0200 	mov.w	r2, #0
    34f6:	4b0b      	ldr	r3, [pc, #44]	@ (3524 <normalize(double, double, double)+0x98>)
    34f8:	e9d7 0106 	ldrd	r0, r1, [r7, #24]
    34fc:	f004 fd76 	bl	7fec <__aeabi_dcmpgt>
    3500:	4603      	mov	r3, r0
    3502:	2b00      	cmp	r3, #0
    3504:	d003      	beq.n	350e <normalize(double, double, double)+0x82>
    3506:	f04f 0200 	mov.w	r2, #0
    350a:	4b06      	ldr	r3, [pc, #24]	@ (3524 <normalize(double, double, double)+0x98>)
    350c:	e001      	b.n	3512 <normalize(double, double, double)+0x86>
    350e:	e9d7 2306 	ldrd	r2, r3, [r7, #24]
    3512:	ec43 2b17 	vmov	d7, r2, r3
    3516:	eeb0 0a47 	vmov.f32	s0, s14
    351a:	eef0 0a67 	vmov.f32	s1, s15
    351e:	3720      	adds	r7, #32
    3520:	46bd      	mov	sp, r7
    3522:	bdb0      	pop	{r4, r5, r7, pc}
    3524:	3ff00000 	.word	0x3ff00000

00003528 <cfar_detector(float)>:
    3528:	b480      	push	{r7}
    352a:	b089      	sub	sp, #36	@ 0x24
    352c:	af00      	add	r7, sp, #0
    352e:	ed87 0a01 	vstr	s0, [r7, #4]
    3532:	4b3e      	ldr	r3, [pc, #248]	@ (362c <cfar_detector(float)+0x104>)
    3534:	681b      	ldr	r3, [r3, #0]
    3536:	4a3e      	ldr	r2, [pc, #248]	@ (3630 <cfar_detector(float)+0x108>)
    3538:	009b      	lsls	r3, r3, #2
    353a:	4413      	add	r3, r2
    353c:	687a      	ldr	r2, [r7, #4]
    353e:	601a      	str	r2, [r3, #0]
    3540:	4b3a      	ldr	r3, [pc, #232]	@ (362c <cfar_detector(float)+0x104>)
    3542:	681b      	ldr	r3, [r3, #0]
    3544:	1c59      	adds	r1, r3, #1
    3546:	4b3b      	ldr	r3, [pc, #236]	@ (3634 <cfar_detector(float)+0x10c>)
    3548:	fba3 2301 	umull	r2, r3, r3, r1
    354c:	091a      	lsrs	r2, r3, #4
    354e:	4613      	mov	r3, r2
    3550:	009b      	lsls	r3, r3, #2
    3552:	4413      	add	r3, r2
    3554:	009b      	lsls	r3, r3, #2
    3556:	1aca      	subs	r2, r1, r3
    3558:	4b34      	ldr	r3, [pc, #208]	@ (362c <cfar_detector(float)+0x104>)
    355a:	601a      	str	r2, [r3, #0]
    355c:	4b36      	ldr	r3, [pc, #216]	@ (3638 <cfar_detector(float)+0x110>)
    355e:	681b      	ldr	r3, [r3, #0]
    3560:	2b13      	cmp	r3, #19
    3562:	d804      	bhi.n	356e <cfar_detector(float)+0x46>
    3564:	4b34      	ldr	r3, [pc, #208]	@ (3638 <cfar_detector(float)+0x110>)
    3566:	681b      	ldr	r3, [r3, #0]
    3568:	3301      	adds	r3, #1
    356a:	4a33      	ldr	r2, [pc, #204]	@ (3638 <cfar_detector(float)+0x110>)
    356c:	6013      	str	r3, [r2, #0]
    356e:	4b32      	ldr	r3, [pc, #200]	@ (3638 <cfar_detector(float)+0x110>)
    3570:	681b      	ldr	r3, [r3, #0]
    3572:	2b13      	cmp	r3, #19
    3574:	d801      	bhi.n	357a <cfar_detector(float)+0x52>
    3576:	2300      	movs	r3, #0
    3578:	e051      	b.n	361e <cfar_detector(float)+0xf6>
    357a:	f04f 0300 	mov.w	r3, #0
    357e:	61fb      	str	r3, [r7, #28]
    3580:	2300      	movs	r3, #0
    3582:	61bb      	str	r3, [r7, #24]
    3584:	2300      	movs	r3, #0
    3586:	617b      	str	r3, [r7, #20]
    3588:	e021      	b.n	35ce <cfar_detector(float)+0xa6>
    358a:	4b28      	ldr	r3, [pc, #160]	@ (362c <cfar_detector(float)+0x104>)
    358c:	681b      	ldr	r3, [r3, #0]
    358e:	461a      	mov	r2, r3
    3590:	697b      	ldr	r3, [r7, #20]
    3592:	1ad3      	subs	r3, r2, r3
    3594:	3b01      	subs	r3, #1
    3596:	613b      	str	r3, [r7, #16]
    3598:	693b      	ldr	r3, [r7, #16]
    359a:	2b00      	cmp	r3, #0
    359c:	da02      	bge.n	35a4 <cfar_detector(float)+0x7c>
    359e:	693b      	ldr	r3, [r7, #16]
    35a0:	3314      	adds	r3, #20
    35a2:	613b      	str	r3, [r7, #16]
    35a4:	697b      	ldr	r3, [r7, #20]
    35a6:	2b01      	cmp	r3, #1
    35a8:	d90e      	bls.n	35c8 <cfar_detector(float)+0xa0>
    35aa:	4a21      	ldr	r2, [pc, #132]	@ (3630 <cfar_detector(float)+0x108>)
    35ac:	693b      	ldr	r3, [r7, #16]
    35ae:	009b      	lsls	r3, r3, #2
    35b0:	4413      	add	r3, r2
    35b2:	edd3 7a00 	vldr	s15, [r3]
    35b6:	ed97 7a07 	vldr	s14, [r7, #28]
    35ba:	ee77 7a27 	vadd.f32	s15, s14, s15
    35be:	edc7 7a07 	vstr	s15, [r7, #28]
    35c2:	69bb      	ldr	r3, [r7, #24]
    35c4:	3301      	adds	r3, #1
    35c6:	61bb      	str	r3, [r7, #24]
    35c8:	697b      	ldr	r3, [r7, #20]
    35ca:	3301      	adds	r3, #1
    35cc:	617b      	str	r3, [r7, #20]
    35ce:	697b      	ldr	r3, [r7, #20]
    35d0:	2b13      	cmp	r3, #19
    35d2:	d9da      	bls.n	358a <cfar_detector(float)+0x62>
    35d4:	69bb      	ldr	r3, [r7, #24]
    35d6:	2b00      	cmp	r3, #0
    35d8:	d009      	beq.n	35ee <cfar_detector(float)+0xc6>
    35da:	69bb      	ldr	r3, [r7, #24]
    35dc:	ee07 3a90 	vmov	s15, r3
    35e0:	eeb8 7a67 	vcvt.f32.u32	s14, s15
    35e4:	edd7 6a07 	vldr	s13, [r7, #28]
    35e8:	eec6 7a87 	vdiv.f32	s15, s13, s14
    35ec:	e001      	b.n	35f2 <cfar_detector(float)+0xca>
    35ee:	eddf 7a13 	vldr	s15, [pc, #76]	@ 363c <cfar_detector(float)+0x114>
    35f2:	edc7 7a03 	vstr	s15, [r7, #12]
    35f6:	edd7 7a03 	vldr	s15, [r7, #12]
    35fa:	eeb2 7a04 	vmov.f32	s14, #36	@ 0x41200000  10.0
    35fe:	ee67 7a87 	vmul.f32	s15, s15, s14
    3602:	edc7 7a02 	vstr	s15, [r7, #8]
    3606:	ed97 7a01 	vldr	s14, [r7, #4]
    360a:	edd7 7a02 	vldr	s15, [r7, #8]
    360e:	eeb4 7ae7 	vcmpe.f32	s14, s15
    3612:	eef1 fa10 	vmrs	APSR_nzcv, fpscr
    3616:	bfcc      	ite	gt
    3618:	2301      	movgt	r3, #1
    361a:	2300      	movle	r3, #0
    361c:	b2db      	uxtb	r3, r3
    361e:	4618      	mov	r0, r3
    3620:	3724      	adds	r7, #36	@ 0x24
    3622:	46bd      	mov	sp, r7
    3624:	f85d 7b04 	ldr.w	r7, [sp], #4
    3628:	4770      	bx	lr
    362a:	bf00      	nop
    362c:	1ffd0c48 	.word	0x1ffd0c48
    3630:	1ffd0bf8 	.word	0x1ffd0bf8
    3634:	cccccccd 	.word	0xcccccccd
    3638:	1ffd0c4c 	.word	0x1ffd0c4c
    363c:	00000000 	.word	0x00000000

00003640 <check_signal_end(float)>:
    3640:	b580      	push	{r7, lr}
    3642:	b084      	sub	sp, #16
    3644:	af00      	add	r7, sp, #0
    3646:	ed87 0a01 	vstr	s0, [r7, #4]
    364a:	4b29      	ldr	r3, [pc, #164]	@ (36f0 <check_signal_end(float)+0xb0>)
    364c:	781b      	ldrb	r3, [r3, #0]
    364e:	f083 0301 	eor.w	r3, r3, #1
    3652:	b2db      	uxtb	r3, r3
    3654:	2b00      	cmp	r3, #0
    3656:	d00e      	beq.n	3676 <check_signal_end(float)+0x36>
    3658:	4b26      	ldr	r3, [pc, #152]	@ (36f4 <check_signal_end(float)+0xb4>)
    365a:	781b      	ldrb	r3, [r3, #0]
    365c:	2b00      	cmp	r3, #0
    365e:	d00a      	beq.n	3676 <check_signal_end(float)+0x36>
    3660:	4a25      	ldr	r2, [pc, #148]	@ (36f8 <check_signal_end(float)+0xb8>)
    3662:	687b      	ldr	r3, [r7, #4]
    3664:	6013      	str	r3, [r2, #0]
    3666:	4b22      	ldr	r3, [pc, #136]	@ (36f0 <check_signal_end(float)+0xb0>)
    3668:	2201      	movs	r2, #1
    366a:	701a      	strb	r2, [r3, #0]
    366c:	4b23      	ldr	r3, [pc, #140]	@ (36fc <check_signal_end(float)+0xbc>)
    366e:	2200      	movs	r2, #0
    3670:	601a      	str	r2, [r3, #0]
    3672:	2300      	movs	r3, #0
    3674:	e038      	b.n	36e8 <check_signal_end(float)+0xa8>
    3676:	4b20      	ldr	r3, [pc, #128]	@ (36f8 <check_signal_end(float)+0xb8>)
    3678:	edd3 7a00 	vldr	s15, [r3]
    367c:	ed9f 7a20 	vldr	s14, [pc, #128]	@ 3700 <check_signal_end(float)+0xc0>
    3680:	ee67 7a87 	vmul.f32	s15, s15, s14
    3684:	edc7 7a03 	vstr	s15, [r7, #12]
    3688:	ed97 7a01 	vldr	s14, [r7, #4]
    368c:	edd7 7a03 	vldr	s15, [r7, #12]
    3690:	eeb4 7ae7 	vcmpe.f32	s14, s15
    3694:	eef1 fa10 	vmrs	APSR_nzcv, fpscr
    3698:	d510      	bpl.n	36bc <check_signal_end(float)+0x7c>
    369a:	4b18      	ldr	r3, [pc, #96]	@ (36fc <check_signal_end(float)+0xbc>)
    369c:	681b      	ldr	r3, [r3, #0]
    369e:	3301      	adds	r3, #1
    36a0:	4a16      	ldr	r2, [pc, #88]	@ (36fc <check_signal_end(float)+0xbc>)
    36a2:	6013      	str	r3, [r2, #0]
    36a4:	4b15      	ldr	r3, [pc, #84]	@ (36fc <check_signal_end(float)+0xbc>)
    36a6:	681b      	ldr	r3, [r3, #0]
    36a8:	2bc7      	cmp	r3, #199	@ 0xc7
    36aa:	d91c      	bls.n	36e6 <check_signal_end(float)+0xa6>
    36ac:	4b13      	ldr	r3, [pc, #76]	@ (36fc <check_signal_end(float)+0xbc>)
    36ae:	681b      	ldr	r3, [r3, #0]
    36b0:	4619      	mov	r1, r3
    36b2:	4814      	ldr	r0, [pc, #80]	@ (3704 <check_signal_end(float)+0xc4>)
    36b4:	f7ff fbf0 	bl	2e98 <debug_printf(char const*, ...)>
    36b8:	2301      	movs	r3, #1
    36ba:	e015      	b.n	36e8 <check_signal_end(float)+0xa8>
    36bc:	4b0f      	ldr	r3, [pc, #60]	@ (36fc <check_signal_end(float)+0xbc>)
    36be:	2200      	movs	r2, #0
    36c0:	601a      	str	r2, [r3, #0]
    36c2:	4b0d      	ldr	r3, [pc, #52]	@ (36f8 <check_signal_end(float)+0xb8>)
    36c4:	edd3 7a00 	vldr	s15, [r3]
    36c8:	ed9f 7a0f 	vldr	s14, [pc, #60]	@ 3708 <check_signal_end(float)+0xc8>
    36cc:	ee27 7a87 	vmul.f32	s14, s15, s14
    36d0:	edd7 7a01 	vldr	s15, [r7, #4]
    36d4:	eddf 6a0d 	vldr	s13, [pc, #52]	@ 370c <check_signal_end(float)+0xcc>
    36d8:	ee67 7aa6 	vmul.f32	s15, s15, s13
    36dc:	ee77 7a27 	vadd.f32	s15, s14, s15
    36e0:	4b05      	ldr	r3, [pc, #20]	@ (36f8 <check_signal_end(float)+0xb8>)
    36e2:	edc3 7a00 	vstr	s15, [r3]
    36e6:	2300      	movs	r3, #0
    36e8:	4618      	mov	r0, r3
    36ea:	3710      	adds	r7, #16
    36ec:	46bd      	mov	sp, r7
    36ee:	bd80      	pop	{r7, pc}
    36f0:	1ffd0c60 	.word	0x1ffd0c60
    36f4:	1ffd0c50 	.word	0x1ffd0c50
    36f8:	1ffd0c5c 	.word	0x1ffd0c5c
    36fc:	1ffd0c58 	.word	0x1ffd0c58
    3700:	3e99999a 	.word	0x3e99999a
    3704:	0000f7ec 	.word	0x0000f7ec
    3708:	3f666666 	.word	0x3f666666
    370c:	3dcccccd 	.word	0x3dcccccd

00003710 <main>:
    3710:	e92d 43b0 	stmdb	sp!, {r4, r5, r7, r8, r9, lr}
    3714:	b086      	sub	sp, #24
    3716:	af02      	add	r7, sp, #8
    3718:	2212      	movs	r2, #18
    371a:	2118      	movs	r1, #24
    371c:	f44f 30e1 	mov.w	r0, #115200	@ 0x1c200
    3720:	f7fe ff41 	bl	25a6 <init_platform(unsigned long, sampling_rate, audio_input)>
    3724:	2100      	movs	r1, #0
    3726:	2003      	movs	r0, #3
    3728:	f7ff fb58 	bl	2ddc <gpio_set(user_gpio, unsigned char)>
    372c:	486b      	ldr	r0, [pc, #428]	@ (38dc <main+0x1cc>)
    372e:	f001 f83c 	bl	47aa <CircularBuffer::init()>
    3732:	486b      	ldr	r0, [pc, #428]	@ (38e0 <main+0x1d0>)
    3734:	f001 f839 	bl	47aa <CircularBuffer::init()>
    3738:	f44f 6280 	mov.w	r2, #1024	@ 0x400
    373c:	2100      	movs	r1, #0
    373e:	4869      	ldr	r0, [pc, #420]	@ (38e4 <main+0x1d4>)
    3740:	f004 fe30 	bl	83a4 <memset>
    3744:	f44f 6280 	mov.w	r2, #1024	@ 0x400
    3748:	2100      	movs	r1, #0
    374a:	4867      	ldr	r0, [pc, #412]	@ (38e8 <main+0x1d8>)
    374c:	f004 fe2a 	bl	83a4 <memset>
    3750:	f44f 7180 	mov.w	r1, #256	@ 0x100
    3754:	4865      	ldr	r0, [pc, #404]	@ (38ec <main+0x1dc>)
    3756:	f001 fc73 	bl	5040 <arm_rfft_fast_init_f32>
    375a:	4603      	mov	r3, r0
    375c:	70fb      	strb	r3, [r7, #3]
    375e:	f44f 7180 	mov.w	r1, #256	@ 0x100
    3762:	4863      	ldr	r0, [pc, #396]	@ (38f0 <main+0x1e0>)
    3764:	f001 fcd4 	bl	5110 <arm_hamming_f32>
    3768:	4b62      	ldr	r3, [pc, #392]	@ (38f4 <main+0x1e4>)
    376a:	681b      	ldr	r3, [r3, #0]
    376c:	4618      	mov	r0, r3
    376e:	f004 f955 	bl	7a1c <__aeabi_f2d>
    3772:	4602      	mov	r2, r0
    3774:	460b      	mov	r3, r1
    3776:	f44f 7180 	mov.w	r1, #256	@ 0x100
    377a:	9100      	str	r1, [sp, #0]
    377c:	485e      	ldr	r0, [pc, #376]	@ (38f8 <main+0x1e8>)
    377e:	f7ff fb8b 	bl	2e98 <debug_printf(char const*, ...)>
    3782:	4b5e      	ldr	r3, [pc, #376]	@ (38fc <main+0x1ec>)
    3784:	681b      	ldr	r3, [r3, #0]
    3786:	4618      	mov	r0, r3
    3788:	f004 f948 	bl	7a1c <__aeabi_f2d>
    378c:	4604      	mov	r4, r0
    378e:	460d      	mov	r5, r1
    3790:	4b5b      	ldr	r3, [pc, #364]	@ (3900 <main+0x1f0>)
    3792:	edd3 7a00 	vldr	s15, [r3]
    3796:	ed9f 7a5b 	vldr	s14, [pc, #364]	@ 3904 <main+0x1f4>
    379a:	ee67 7a87 	vmul.f32	s15, s15, s14
    379e:	ee17 0a90 	vmov	r0, s15
    37a2:	f004 f93b 	bl	7a1c <__aeabi_f2d>
    37a6:	4602      	mov	r2, r0
    37a8:	460b      	mov	r3, r1
    37aa:	e9cd 2300 	strd	r2, r3, [sp]
    37ae:	4622      	mov	r2, r4
    37b0:	462b      	mov	r3, r5
    37b2:	4855      	ldr	r0, [pc, #340]	@ (3908 <main+0x1f8>)
    37b4:	f7ff fb70 	bl	2e98 <debug_printf(char const*, ...)>
    37b8:	f7fe ff12 	bl	25e0 <platform_start()>
    37bc:	4b53      	ldr	r3, [pc, #332]	@ (390c <main+0x1fc>)
    37be:	2200      	movs	r2, #0
    37c0:	701a      	strb	r2, [r3, #0]
    37c2:	bf00      	nop
    37c4:	4947      	ldr	r1, [pc, #284]	@ (38e4 <main+0x1d4>)
    37c6:	4845      	ldr	r0, [pc, #276]	@ (38dc <main+0x1cc>)
    37c8:	f000 fffe 	bl	47c8 <CircularBuffer::read(unsigned long*)>
    37cc:	4603      	mov	r3, r0
    37ce:	f083 0301 	eor.w	r3, r3, #1
    37d2:	b2db      	uxtb	r3, r3
    37d4:	2b00      	cmp	r3, #0
    37d6:	d1f5      	bne.n	37c4 <main+0xb4>
    37d8:	2101      	movs	r1, #1
    37da:	2002      	movs	r0, #2
    37dc:	f7ff fafe 	bl	2ddc <gpio_set(user_gpio, unsigned char)>
    37e0:	2101      	movs	r1, #1
    37e2:	2003      	movs	r0, #3
    37e4:	f7ff fafa 	bl	2ddc <gpio_set(user_gpio, unsigned char)>
    37e8:	4a49      	ldr	r2, [pc, #292]	@ (3910 <main+0x200>)
    37ea:	494a      	ldr	r1, [pc, #296]	@ (3914 <main+0x204>)
    37ec:	483d      	ldr	r0, [pc, #244]	@ (38e4 <main+0x1d4>)
    37ee:	f7ff fb81 	bl	2ef4 <convert_audio_sample_to_2ch(unsigned long*, short*, short*)>
    37f2:	2300      	movs	r3, #0
    37f4:	60fb      	str	r3, [r7, #12]
    37f6:	e01c      	b.n	3832 <main+0x122>
    37f8:	4a46      	ldr	r2, [pc, #280]	@ (3914 <main+0x204>)
    37fa:	68fb      	ldr	r3, [r7, #12]
    37fc:	f932 3013 	ldrsh.w	r3, [r2, r3, lsl #1]
    3800:	ee07 3a90 	vmov	s15, r3
    3804:	eef8 7ae7 	vcvt.f32.s32	s15, s15
    3808:	eddf 6a43 	vldr	s13, [pc, #268]	@ 3918 <main+0x208>
    380c:	ee87 7aa6 	vdiv.f32	s14, s15, s13
    3810:	4a37      	ldr	r2, [pc, #220]	@ (38f0 <main+0x1e0>)
    3812:	68fb      	ldr	r3, [r7, #12]
    3814:	009b      	lsls	r3, r3, #2
    3816:	4413      	add	r3, r2
    3818:	edd3 7a00 	vldr	s15, [r3]
    381c:	ee67 7a27 	vmul.f32	s15, s14, s15
    3820:	4a3e      	ldr	r2, [pc, #248]	@ (391c <main+0x20c>)
    3822:	68fb      	ldr	r3, [r7, #12]
    3824:	009b      	lsls	r3, r3, #2
    3826:	4413      	add	r3, r2
    3828:	edc3 7a00 	vstr	s15, [r3]
    382c:	68fb      	ldr	r3, [r7, #12]
    382e:	3301      	adds	r3, #1
    3830:	60fb      	str	r3, [r7, #12]
    3832:	68fb      	ldr	r3, [r7, #12]
    3834:	2bff      	cmp	r3, #255	@ 0xff
    3836:	d9df      	bls.n	37f8 <main+0xe8>
    3838:	2300      	movs	r3, #0
    383a:	4a39      	ldr	r2, [pc, #228]	@ (3920 <main+0x210>)
    383c:	4937      	ldr	r1, [pc, #220]	@ (391c <main+0x20c>)
    383e:	482b      	ldr	r0, [pc, #172]	@ (38ec <main+0x1dc>)
    3840:	f001 faad 	bl	4d9e <arm_rfft_fast_f32>
    3844:	f44f 7280 	mov.w	r2, #256	@ 0x100
    3848:	4936      	ldr	r1, [pc, #216]	@ (3924 <main+0x214>)
    384a:	4835      	ldr	r0, [pc, #212]	@ (3920 <main+0x210>)
    384c:	f7ff fbba 	bl	2fc4 <calculate_magnitude(float*, float*, unsigned long)>
    3850:	4a35      	ldr	r2, [pc, #212]	@ (3928 <main+0x218>)
    3852:	4936      	ldr	r1, [pc, #216]	@ (392c <main+0x21c>)
    3854:	4833      	ldr	r0, [pc, #204]	@ (3924 <main+0x214>)
    3856:	f7ff fbff 	bl	3058 <extract_features(float*, float*, AudioFeatures*)>
    385a:	4a34      	ldr	r2, [pc, #208]	@ (392c <main+0x21c>)
    385c:	4b31      	ldr	r3, [pc, #196]	@ (3924 <main+0x214>)
    385e:	4610      	mov	r0, r2
    3860:	4619      	mov	r1, r3
    3862:	f44f 7300 	mov.w	r3, #512	@ 0x200
    3866:	461a      	mov	r2, r3
    3868:	f004 fe78 	bl	855c <memcpy>
    386c:	4b27      	ldr	r3, [pc, #156]	@ (390c <main+0x1fc>)
    386e:	781b      	ldrb	r3, [r3, #0]
    3870:	f083 0301 	eor.w	r3, r3, #1
    3874:	b2db      	uxtb	r3, r3
    3876:	2b00      	cmp	r3, #0
    3878:	d05e      	beq.n	3938 <main+0x228>
    387a:	4b2b      	ldr	r3, [pc, #172]	@ (3928 <main+0x218>)
    387c:	edd3 7a05 	vldr	s15, [r3, #20]
    3880:	eeb0 0a67 	vmov.f32	s0, s15
    3884:	f7ff fe50 	bl	3528 <cfar_detector(float)>
    3888:	4603      	mov	r3, r0
    388a:	461a      	mov	r2, r3
    388c:	4b1f      	ldr	r3, [pc, #124]	@ (390c <main+0x1fc>)
    388e:	701a      	strb	r2, [r3, #0]
    3890:	f44f 7200 	mov.w	r2, #512	@ 0x200
    3894:	2100      	movs	r1, #0
    3896:	4826      	ldr	r0, [pc, #152]	@ (3930 <main+0x220>)
    3898:	f004 fd84 	bl	83a4 <memset>
    389c:	f44f 7200 	mov.w	r2, #512	@ 0x200
    38a0:	2100      	movs	r1, #0
    38a2:	4824      	ldr	r0, [pc, #144]	@ (3934 <main+0x224>)
    38a4:	f004 fd7e 	bl	83a4 <memset>
    38a8:	4a0f      	ldr	r2, [pc, #60]	@ (38e8 <main+0x1d8>)
    38aa:	4922      	ldr	r1, [pc, #136]	@ (3934 <main+0x224>)
    38ac:	4820      	ldr	r0, [pc, #128]	@ (3930 <main+0x220>)
    38ae:	f7ff fb4a 	bl	2f46 <convert_2ch_to_audio_sample(short*, short*, unsigned long*)>
    38b2:	bf00      	nop
    38b4:	490c      	ldr	r1, [pc, #48]	@ (38e8 <main+0x1d8>)
    38b6:	480a      	ldr	r0, [pc, #40]	@ (38e0 <main+0x1d0>)
    38b8:	f001 f820 	bl	48fc <CircularBuffer::write(unsigned long*)>
    38bc:	4603      	mov	r3, r0
    38be:	f083 0301 	eor.w	r3, r3, #1
    38c2:	b2db      	uxtb	r3, r3
    38c4:	2b00      	cmp	r3, #0
    38c6:	d1f5      	bne.n	38b4 <main+0x1a4>
    38c8:	2100      	movs	r1, #0
    38ca:	2002      	movs	r0, #2
    38cc:	f7ff fa86 	bl	2ddc <gpio_set(user_gpio, unsigned char)>
    38d0:	2100      	movs	r1, #0
    38d2:	2003      	movs	r0, #3
    38d4:	f7ff fa82 	bl	2ddc <gpio_set(user_gpio, unsigned char)>
    38d8:	f000 be9b 	b.w	4612 <main+0xf02>
    38dc:	1ffd0c64 	.word	0x1ffd0c64
    38e0:	1ffd1870 	.word	0x1ffd1870
    38e4:	1ffd247c 	.word	0x1ffd247c
    38e8:	1ffd287c 	.word	0x1ffd287c
    38ec:	1fffc480 	.word	0x1fffc480
    38f0:	1ffd00ac 	.word	0x1ffd00ac
    38f4:	1ffd007c 	.word	0x1ffd007c
    38f8:	0000f810 	.word	0x0000f810
    38fc:	1ffd0be8 	.word	0x1ffd0be8
    3900:	1ffd0bec 	.word	0x1ffd0bec
    3904:	447a0000 	.word	0x447a0000
    3908:	0000f824 	.word	0x0000f824
    390c:	1ffd0c50 	.word	0x1ffd0c50
    3910:	1ffd2e7c 	.word	0x1ffd2e7c
    3914:	1ffd2c7c 	.word	0x1ffd2c7c
    3918:	47000000 	.word	0x47000000
    391c:	1ffd3c7c 	.word	0x1ffd3c7c
    3920:	1ffd347c 	.word	0x1ffd347c
    3924:	1fffc080 	.word	0x1fffc080
    3928:	1fffc498 	.word	0x1fffc498
    392c:	1fffc280 	.word	0x1fffc280
    3930:	1ffd307c 	.word	0x1ffd307c
    3934:	1ffd327c 	.word	0x1ffd327c
    3938:	4b54      	ldr	r3, [pc, #336]	@ (3a8c <main+0x37c>)
    393a:	781b      	ldrb	r3, [r3, #0]
    393c:	2b00      	cmp	r3, #0
    393e:	d059      	beq.n	39f4 <main+0x2e4>
    3940:	4b53      	ldr	r3, [pc, #332]	@ (3a90 <main+0x380>)
    3942:	681a      	ldr	r2, [r3, #0]
    3944:	4b53      	ldr	r3, [pc, #332]	@ (3a94 <main+0x384>)
    3946:	681b      	ldr	r3, [r3, #0]
    3948:	429a      	cmp	r2, r3
    394a:	da53      	bge.n	39f4 <main+0x2e4>
    394c:	4b51      	ldr	r3, [pc, #324]	@ (3a94 <main+0x384>)
    394e:	681b      	ldr	r3, [r3, #0]
    3950:	1e5a      	subs	r2, r3, #1
    3952:	4b4f      	ldr	r3, [pc, #316]	@ (3a90 <main+0x380>)
    3954:	681b      	ldr	r3, [r3, #0]
    3956:	429a      	cmp	r2, r3
    3958:	d147      	bne.n	39ea <main+0x2da>
    395a:	484f      	ldr	r0, [pc, #316]	@ (3a98 <main+0x388>)
    395c:	f7ff fa9c 	bl	2e98 <debug_printf(char const*, ...)>
    3960:	4b4e      	ldr	r3, [pc, #312]	@ (3a9c <main+0x38c>)
    3962:	695b      	ldr	r3, [r3, #20]
    3964:	4a4e      	ldr	r2, [pc, #312]	@ (3aa0 <main+0x390>)
    3966:	6153      	str	r3, [r2, #20]
    3968:	4b4c      	ldr	r3, [pc, #304]	@ (3a9c <main+0x38c>)
    396a:	685b      	ldr	r3, [r3, #4]
    396c:	4a4c      	ldr	r2, [pc, #304]	@ (3aa0 <main+0x390>)
    396e:	6053      	str	r3, [r2, #4]
    3970:	4b4a      	ldr	r3, [pc, #296]	@ (3a9c <main+0x38c>)
    3972:	689b      	ldr	r3, [r3, #8]
    3974:	4a4a      	ldr	r2, [pc, #296]	@ (3aa0 <main+0x390>)
    3976:	6093      	str	r3, [r2, #8]
    3978:	4b48      	ldr	r3, [pc, #288]	@ (3a9c <main+0x38c>)
    397a:	68db      	ldr	r3, [r3, #12]
    397c:	4a48      	ldr	r2, [pc, #288]	@ (3aa0 <main+0x390>)
    397e:	60d3      	str	r3, [r2, #12]
    3980:	4b46      	ldr	r3, [pc, #280]	@ (3a9c <main+0x38c>)
    3982:	691b      	ldr	r3, [r3, #16]
    3984:	4a46      	ldr	r2, [pc, #280]	@ (3aa0 <main+0x390>)
    3986:	6113      	str	r3, [r2, #16]
    3988:	4b44      	ldr	r3, [pc, #272]	@ (3a9c <main+0x38c>)
    398a:	681b      	ldr	r3, [r3, #0]
    398c:	4a44      	ldr	r2, [pc, #272]	@ (3aa0 <main+0x390>)
    398e:	6013      	str	r3, [r2, #0]
    3990:	4b42      	ldr	r3, [pc, #264]	@ (3a9c <main+0x38c>)
    3992:	699b      	ldr	r3, [r3, #24]
    3994:	4a42      	ldr	r2, [pc, #264]	@ (3aa0 <main+0x390>)
    3996:	6193      	str	r3, [r2, #24]
    3998:	4b40      	ldr	r3, [pc, #256]	@ (3a9c <main+0x38c>)
    399a:	69db      	ldr	r3, [r3, #28]
    399c:	4a40      	ldr	r2, [pc, #256]	@ (3aa0 <main+0x390>)
    399e:	61d3      	str	r3, [r2, #28]
    39a0:	4b3e      	ldr	r3, [pc, #248]	@ (3a9c <main+0x38c>)
    39a2:	6a1b      	ldr	r3, [r3, #32]
    39a4:	4a3e      	ldr	r2, [pc, #248]	@ (3aa0 <main+0x390>)
    39a6:	6213      	str	r3, [r2, #32]
    39a8:	4b3d      	ldr	r3, [pc, #244]	@ (3aa0 <main+0x390>)
    39aa:	685b      	ldr	r3, [r3, #4]
    39ac:	4618      	mov	r0, r3
    39ae:	f004 f835 	bl	7a1c <__aeabi_f2d>
    39b2:	4602      	mov	r2, r0
    39b4:	460b      	mov	r3, r1
    39b6:	483b      	ldr	r0, [pc, #236]	@ (3aa4 <main+0x394>)
    39b8:	f7ff fa6e 	bl	2e98 <debug_printf(char const*, ...)>
    39bc:	4b38      	ldr	r3, [pc, #224]	@ (3aa0 <main+0x390>)
    39be:	68db      	ldr	r3, [r3, #12]
    39c0:	4618      	mov	r0, r3
    39c2:	f004 f82b 	bl	7a1c <__aeabi_f2d>
    39c6:	4602      	mov	r2, r0
    39c8:	460b      	mov	r3, r1
    39ca:	4837      	ldr	r0, [pc, #220]	@ (3aa8 <main+0x398>)
    39cc:	f7ff fa64 	bl	2e98 <debug_printf(char const*, ...)>
    39d0:	4b33      	ldr	r3, [pc, #204]	@ (3aa0 <main+0x390>)
    39d2:	689b      	ldr	r3, [r3, #8]
    39d4:	4618      	mov	r0, r3
    39d6:	f004 f821 	bl	7a1c <__aeabi_f2d>
    39da:	4602      	mov	r2, r0
    39dc:	460b      	mov	r3, r1
    39de:	4833      	ldr	r0, [pc, #204]	@ (3aac <main+0x39c>)
    39e0:	f7ff fa5a 	bl	2e98 <debug_printf(char const*, ...)>
    39e4:	4832      	ldr	r0, [pc, #200]	@ (3ab0 <main+0x3a0>)
    39e6:	f7ff fa57 	bl	2e98 <debug_printf(char const*, ...)>
    39ea:	4b29      	ldr	r3, [pc, #164]	@ (3a90 <main+0x380>)
    39ec:	681b      	ldr	r3, [r3, #0]
    39ee:	3301      	adds	r3, #1
    39f0:	4a27      	ldr	r2, [pc, #156]	@ (3a90 <main+0x380>)
    39f2:	6013      	str	r3, [r2, #0]
    39f4:	4b25      	ldr	r3, [pc, #148]	@ (3a8c <main+0x37c>)
    39f6:	781b      	ldrb	r3, [r3, #0]
    39f8:	2b00      	cmp	r3, #0
    39fa:	d06b      	beq.n	3ad4 <main+0x3c4>
    39fc:	4b24      	ldr	r3, [pc, #144]	@ (3a90 <main+0x380>)
    39fe:	681a      	ldr	r2, [r3, #0]
    3a00:	4b24      	ldr	r3, [pc, #144]	@ (3a94 <main+0x384>)
    3a02:	681b      	ldr	r3, [r3, #0]
    3a04:	429a      	cmp	r2, r3
    3a06:	db65      	blt.n	3ad4 <main+0x3c4>
    3a08:	4b24      	ldr	r3, [pc, #144]	@ (3a9c <main+0x38c>)
    3a0a:	edd3 7a05 	vldr	s15, [r3, #20]
    3a0e:	eeb0 0a67 	vmov.f32	s0, s15
    3a12:	f7ff fe15 	bl	3640 <check_signal_end(float)>
    3a16:	4603      	mov	r3, r0
    3a18:	2b00      	cmp	r3, #0
    3a1a:	d05b      	beq.n	3ad4 <main+0x3c4>
    3a1c:	4b1b      	ldr	r3, [pc, #108]	@ (3a8c <main+0x37c>)
    3a1e:	2200      	movs	r2, #0
    3a20:	701a      	strb	r2, [r3, #0]
    3a22:	4b24      	ldr	r3, [pc, #144]	@ (3ab4 <main+0x3a4>)
    3a24:	2200      	movs	r2, #0
    3a26:	701a      	strb	r2, [r3, #0]
    3a28:	4b23      	ldr	r3, [pc, #140]	@ (3ab8 <main+0x3a8>)
    3a2a:	2200      	movs	r2, #0
    3a2c:	601a      	str	r2, [r3, #0]
    3a2e:	4b18      	ldr	r3, [pc, #96]	@ (3a90 <main+0x380>)
    3a30:	2200      	movs	r2, #0
    3a32:	601a      	str	r2, [r3, #0]
    3a34:	4b21      	ldr	r3, [pc, #132]	@ (3abc <main+0x3ac>)
    3a36:	2200      	movs	r2, #0
    3a38:	601a      	str	r2, [r3, #0]
    3a3a:	4821      	ldr	r0, [pc, #132]	@ (3ac0 <main+0x3b0>)
    3a3c:	f7ff fa2c 	bl	2e98 <debug_printf(char const*, ...)>
    3a40:	f44f 7200 	mov.w	r2, #512	@ 0x200
    3a44:	2100      	movs	r1, #0
    3a46:	481f      	ldr	r0, [pc, #124]	@ (3ac4 <main+0x3b4>)
    3a48:	f004 fcac 	bl	83a4 <memset>
    3a4c:	f44f 7200 	mov.w	r2, #512	@ 0x200
    3a50:	2100      	movs	r1, #0
