
hello_world.axf:     file format elf32-littlearm


Disassembly of section .text:

00000000 <__Vectors>:
       0:	00 f0 ff 1f 41 02 00 00 f1 02 00 00 e9 02 00 00     ....A...........
      10:	f1 02 00 00 f1 02 00 00 f1 02 00 00 00 00 00 00     ................
	...
      2c:	f1 02 00 00 f1 02 00 00 00 00 00 00 f1 02 00 00     ................
      3c:	f1 02 00 00 f1 02 00 00 f1 02 00 00 f1 02 00 00     ................
      4c:	f1 02 00 00 f1 02 00 00 f1 02 00 00 f1 02 00 00     ................
      5c:	f1 02 00 00 f1 02 00 00 f1 02 00 00 f1 02 00 00     ................
      6c:	f1 02 00 00 f1 02 00 00 f1 02 00 00 f1 02 00 00     ................
      7c:	f1 02 00 00 f1 02 00 00 f1 02 00 00 f1 02 00 00     ................
      8c:	f1 02 00 00 f1 02 00 00 f1 02 00 00 f1 02 00 00     ................
      9c:	f1 02 00 00 f1 02 00 00 f1 02 00 00 f1 02 00 00     ................
      ac:	f1 02 00 00 f1 02 00 00 f1 02 00 00 f1 02 00 00     ................
      bc:	f1 02 00 00 f1 02 00 00 f1 02 00 00 f1 02 00 00     ................
      cc:	f1 02 00 00 f1 02 00 00 f1 02 00 00 f1 02 00 00     ................
      dc:	f1 02 00 00 f1 02 00 00 f1 02 00 00 f1 02 00 00     ................
      ec:	f1 02 00 00 f1 02 00 00 f1 02 00 00 f1 02 00 00     ................
      fc:	f1 02 00 00 f1 02 00 00 f1 02 00 00 f1 02 00 00     ................
     10c:	f1 02 00 00 f1 02 00 00 f1 02 00 00 f1 02 00 00     ................
     11c:	f1 02 00 00 f1 02 00 00 f1 02 00 00 f1 02 00 00     ................
     12c:	f1 02 00 00 f1 02 00 00 f1 02 00 00 f1 02 00 00     ................
     13c:	f1 02 00 00 f1 02 00 00 f1 02 00 00 f1 02 00 00     ................
     14c:	f1 02 00 00 f1 02 00 00 f1 02 00 00 f1 02 00 00     ................
     15c:	f1 02 00 00 f1 02 00 00 f1 02 00 00 f1 02 00 00     ................
     16c:	f1 02 00 00 f1 02 00 00 f1 02 00 00 f1 02 00 00     ................
     17c:	f1 02 00 00 f1 02 00 00 f1 02 00 00 f1 02 00 00     ................
     18c:	f1 02 00 00 f1 02 00 00 f1 02 00 00 f1 02 00 00     ................
     19c:	f1 02 00 00 f1 02 00 00 f1 02 00 00 f1 02 00 00     ................
     1ac:	f1 02 00 00 f1 02 00 00 f1 02 00 00 f1 02 00 00     ................
     1bc:	f1 02 00 00 f1 02 00 00 f1 02 00 00 f1 02 00 00     ................
     1cc:	f1 02 00 00 f1 02 00 00 f1 02 00 00 f1 02 00 00     ................
     1dc:	f1 02 00 00 f1 02 00 00 f1 02 00 00 f1 02 00 00     ................
     1ec:	f1 02 00 00 f1 02 00 00 f1 02 00 00 f1 02 00 00     ................
     1fc:	f1 02 00 00 65 21 00 00 f1 02 00 00 f1 02 00 00     ....e!..........
     20c:	f1 02 00 00 f1 02 00 00 31 21 00 00 f1 02 00 00     ........1!......
     21c:	f1 02 00 00 f1 02 00 00 f1 02 00 00 f1 02 00 00     ................
     22c:	f1 02 00 00 f1 02 00 00 f1 02 00 00 f1 02 00 00     ................
     23c:	f1 02 00 00                                         ....

00000240 <Reset_Handler>:
     240:	b580      	push	{r7, lr}
     242:	b086      	sub	sp, #24
     244:	af00      	add	r7, sp, #0
     246:	4b23      	ldr	r3, [pc, #140]	@ (2d4 <Reset_Handler+0x94>)
     248:	607b      	str	r3, [r7, #4]
     24a:	687b      	ldr	r3, [r7, #4]
     24c:	f383 8809 	msr	PSP, r3
     250:	bf00      	nop
     252:	f000 f8fb 	bl	44c <SystemInit>
     256:	4b20      	ldr	r3, [pc, #128]	@ (2d8 <Reset_Handler+0x98>)
     258:	617b      	str	r3, [r7, #20]
     25a:	e019      	b.n	290 <Reset_Handler+0x50>
     25c:	2300      	movs	r3, #0
     25e:	613b      	str	r3, [r7, #16]
     260:	e00e      	b.n	280 <Reset_Handler+0x40>
     262:	697b      	ldr	r3, [r7, #20]
     264:	681a      	ldr	r2, [r3, #0]
     266:	693b      	ldr	r3, [r7, #16]
     268:	009b      	lsls	r3, r3, #2
     26a:	441a      	add	r2, r3
     26c:	697b      	ldr	r3, [r7, #20]
     26e:	6859      	ldr	r1, [r3, #4]
     270:	693b      	ldr	r3, [r7, #16]
     272:	009b      	lsls	r3, r3, #2
     274:	440b      	add	r3, r1
     276:	6812      	ldr	r2, [r2, #0]
     278:	601a      	str	r2, [r3, #0]
     27a:	693b      	ldr	r3, [r7, #16]
     27c:	3301      	adds	r3, #1
     27e:	613b      	str	r3, [r7, #16]
     280:	697b      	ldr	r3, [r7, #20]
     282:	689b      	ldr	r3, [r3, #8]
     284:	693a      	ldr	r2, [r7, #16]
     286:	429a      	cmp	r2, r3
     288:	d3eb      	bcc.n	262 <Reset_Handler+0x22>
     28a:	697b      	ldr	r3, [r7, #20]
     28c:	330c      	adds	r3, #12
     28e:	617b      	str	r3, [r7, #20]
     290:	697b      	ldr	r3, [r7, #20]
     292:	4a12      	ldr	r2, [pc, #72]	@ (2dc <Reset_Handler+0x9c>)
     294:	4293      	cmp	r3, r2
     296:	d3e1      	bcc.n	25c <Reset_Handler+0x1c>
     298:	4b11      	ldr	r3, [pc, #68]	@ (2e0 <Reset_Handler+0xa0>)
     29a:	60fb      	str	r3, [r7, #12]
     29c:	e014      	b.n	2c8 <Reset_Handler+0x88>
     29e:	2300      	movs	r3, #0
     2a0:	60bb      	str	r3, [r7, #8]
     2a2:	e009      	b.n	2b8 <Reset_Handler+0x78>
     2a4:	68fb      	ldr	r3, [r7, #12]
     2a6:	681a      	ldr	r2, [r3, #0]
     2a8:	68bb      	ldr	r3, [r7, #8]
     2aa:	009b      	lsls	r3, r3, #2
     2ac:	4413      	add	r3, r2
     2ae:	2200      	movs	r2, #0
     2b0:	601a      	str	r2, [r3, #0]
     2b2:	68bb      	ldr	r3, [r7, #8]
     2b4:	3301      	adds	r3, #1
     2b6:	60bb      	str	r3, [r7, #8]
     2b8:	68fb      	ldr	r3, [r7, #12]
     2ba:	685b      	ldr	r3, [r3, #4]
     2bc:	68ba      	ldr	r2, [r7, #8]
     2be:	429a      	cmp	r2, r3
     2c0:	d3f0      	bcc.n	2a4 <Reset_Handler+0x64>
     2c2:	68fb      	ldr	r3, [r7, #12]
     2c4:	3308      	adds	r3, #8
     2c6:	60fb      	str	r3, [r7, #12]
     2c8:	68fb      	ldr	r3, [r7, #12]
     2ca:	4a06      	ldr	r2, [pc, #24]	@ (2e4 <Reset_Handler+0xa4>)
     2cc:	4293      	cmp	r3, r2
     2ce:	d3e6      	bcc.n	29e <Reset_Handler+0x5e>
     2d0:	f003 f8d6 	bl	3480 <_mainCRTStartup>
     2d4:	1ffff000 	.word	0x1ffff000
     2d8:	0000a760 	.word	0x0000a760
     2dc:	0000a76c 	.word	0x0000a76c
     2e0:	0000a76c 	.word	0x0000a76c
     2e4:	0000a76c 	.word	0x0000a76c

000002e8 <HardFault_Handler>:
     2e8:	b480      	push	{r7}
     2ea:	af00      	add	r7, sp, #0
     2ec:	bf00      	nop
     2ee:	e7fd      	b.n	2ec <HardFault_Handler+0x4>

000002f0 <Default_Handler>:
     2f0:	b480      	push	{r7}
     2f2:	af00      	add	r7, sp, #0
     2f4:	bf00      	nop
     2f6:	e7fd      	b.n	2f4 <Default_Handler+0x4>

000002f8 <pdl_memclr>:
     2f8:	b480      	push	{r7}
     2fa:	b083      	sub	sp, #12
     2fc:	af00      	add	r7, sp, #0
     2fe:	6078      	str	r0, [r7, #4]
     300:	6039      	str	r1, [r7, #0]
     302:	e004      	b.n	30e <pdl_memclr+0x16>
     304:	687b      	ldr	r3, [r7, #4]
     306:	1c5a      	adds	r2, r3, #1
     308:	607a      	str	r2, [r7, #4]
     30a:	2200      	movs	r2, #0
     30c:	701a      	strb	r2, [r3, #0]
     30e:	683b      	ldr	r3, [r7, #0]
     310:	1e5a      	subs	r2, r3, #1
     312:	603a      	str	r2, [r7, #0]
     314:	2b00      	cmp	r3, #0
     316:	d1f5      	bne.n	304 <pdl_memclr+0xc>
     318:	bf00      	nop
     31a:	bf00      	nop
     31c:	370c      	adds	r7, #12
     31e:	46bd      	mov	sp, r7
     320:	f85d 7b04 	ldr.w	r7, [sp], #4
     324:	4770      	bx	lr
	...

00000328 <SystemCoreClockUpdate>:
     328:	b480      	push	{r7}
     32a:	b083      	sub	sp, #12
     32c:	af00      	add	r7, sp, #0
     32e:	4b42      	ldr	r3, [pc, #264]	@ (438 <__HEAP_SIZE+0x38>)
     330:	681b      	ldr	r3, [r3, #0]
     332:	095b      	lsrs	r3, r3, #5
     334:	f003 0307 	and.w	r3, r3, #7
     338:	2b05      	cmp	r3, #5
     33a:	d830      	bhi.n	39e <SystemCoreClockUpdate+0x76>
     33c:	a201      	add	r2, pc, #4	@ (adr r2, 344 <SystemCoreClockUpdate+0x1c>)
     33e:	f852 f023 	ldr.w	pc, [r2, r3, lsl #2]
     342:	bf00      	nop
     344:	0000035d 	.word	0x0000035d
     348:	00000363 	.word	0x00000363
     34c:	00000369 	.word	0x00000369
     350:	0000039f 	.word	0x0000039f
     354:	00000391 	.word	0x00000391
     358:	00000397 	.word	0x00000397
     35c:	4b37      	ldr	r3, [pc, #220]	@ (43c <__HEAP_SIZE+0x3c>)
     35e:	607b      	str	r3, [r7, #4]
     360:	e020      	b.n	3a4 <SystemCoreClockUpdate+0x7c>
     362:	4b36      	ldr	r3, [pc, #216]	@ (43c <__HEAP_SIZE+0x3c>)
     364:	607b      	str	r3, [r7, #4]
     366:	e01d      	b.n	3a4 <SystemCoreClockUpdate+0x7c>
     368:	4b33      	ldr	r3, [pc, #204]	@ (438 <__HEAP_SIZE+0x38>)
     36a:	6bdb      	ldr	r3, [r3, #60]	@ 0x3c
     36c:	f003 033f 	and.w	r3, r3, #63	@ 0x3f
     370:	3301      	adds	r3, #1
     372:	4a32      	ldr	r2, [pc, #200]	@ (43c <__HEAP_SIZE+0x3c>)
     374:	fb02 f303 	mul.w	r3, r2, r3
     378:	603b      	str	r3, [r7, #0]
     37a:	4b2f      	ldr	r3, [pc, #188]	@ (438 <__HEAP_SIZE+0x38>)
     37c:	6b9b      	ldr	r3, [r3, #56]	@ 0x38
     37e:	091b      	lsrs	r3, r3, #4
     380:	f003 030f 	and.w	r3, r3, #15
     384:	3301      	adds	r3, #1
     386:	683a      	ldr	r2, [r7, #0]
     388:	fbb2 f3f3 	udiv	r3, r2, r3
     38c:	607b      	str	r3, [r7, #4]
     38e:	e009      	b.n	3a4 <SystemCoreClockUpdate+0x7c>
     390:	4b2b      	ldr	r3, [pc, #172]	@ (440 <__HEAP_SIZE+0x40>)
     392:	607b      	str	r3, [r7, #4]
     394:	e006      	b.n	3a4 <SystemCoreClockUpdate+0x7c>
     396:	f44f 4300 	mov.w	r3, #32768	@ 0x8000
     39a:	607b      	str	r3, [r7, #4]
     39c:	e002      	b.n	3a4 <SystemCoreClockUpdate+0x7c>
     39e:	2300      	movs	r3, #0
     3a0:	607b      	str	r3, [r7, #4]
     3a2:	bf00      	nop
     3a4:	4b24      	ldr	r3, [pc, #144]	@ (438 <__HEAP_SIZE+0x38>)
     3a6:	691b      	ldr	r3, [r3, #16]
     3a8:	f003 0307 	and.w	r3, r3, #7
     3ac:	2b06      	cmp	r3, #6
     3ae:	d839      	bhi.n	424 <__HEAP_SIZE+0x24>
     3b0:	a201      	add	r2, pc, #4	@ (adr r2, 3b8 <SystemCoreClockUpdate+0x90>)
     3b2:	f852 f023 	ldr.w	pc, [r2, r3, lsl #2]
     3b6:	bf00      	nop
     3b8:	000003d5 	.word	0x000003d5
     3bc:	000003dd 	.word	0x000003dd
     3c0:	000003e7 	.word	0x000003e7
     3c4:	000003f7 	.word	0x000003f7
     3c8:	00000401 	.word	0x00000401
     3cc:	00000411 	.word	0x00000411
     3d0:	0000041b 	.word	0x0000041b
     3d4:	4a1b      	ldr	r2, [pc, #108]	@ (444 <__HEAP_SIZE+0x44>)
     3d6:	687b      	ldr	r3, [r7, #4]
     3d8:	6013      	str	r3, [r2, #0]
     3da:	e027      	b.n	42c <__HEAP_SIZE+0x2c>
     3dc:	687b      	ldr	r3, [r7, #4]
     3de:	085b      	lsrs	r3, r3, #1
     3e0:	4a18      	ldr	r2, [pc, #96]	@ (444 <__HEAP_SIZE+0x44>)
     3e2:	6013      	str	r3, [r2, #0]
     3e4:	e022      	b.n	42c <__HEAP_SIZE+0x2c>
     3e6:	687b      	ldr	r3, [r7, #4]
     3e8:	4a17      	ldr	r2, [pc, #92]	@ (448 <__HEAP_SIZE+0x48>)
     3ea:	fba2 2303 	umull	r2, r3, r2, r3
     3ee:	085b      	lsrs	r3, r3, #1
     3f0:	4a14      	ldr	r2, [pc, #80]	@ (444 <__HEAP_SIZE+0x44>)
     3f2:	6013      	str	r3, [r2, #0]
     3f4:	e01a      	b.n	42c <__HEAP_SIZE+0x2c>
     3f6:	687b      	ldr	r3, [r7, #4]
     3f8:	089b      	lsrs	r3, r3, #2
     3fa:	4a12      	ldr	r2, [pc, #72]	@ (444 <__HEAP_SIZE+0x44>)
     3fc:	6013      	str	r3, [r2, #0]
     3fe:	e015      	b.n	42c <__HEAP_SIZE+0x2c>
     400:	687b      	ldr	r3, [r7, #4]
     402:	4a11      	ldr	r2, [pc, #68]	@ (448 <__HEAP_SIZE+0x48>)
     404:	fba2 2303 	umull	r2, r3, r2, r3
     408:	089b      	lsrs	r3, r3, #2
     40a:	4a0e      	ldr	r2, [pc, #56]	@ (444 <__HEAP_SIZE+0x44>)
     40c:	6013      	str	r3, [r2, #0]
     40e:	e00d      	b.n	42c <__HEAP_SIZE+0x2c>
     410:	687b      	ldr	r3, [r7, #4]
     412:	08db      	lsrs	r3, r3, #3
     414:	4a0b      	ldr	r2, [pc, #44]	@ (444 <__HEAP_SIZE+0x44>)
     416:	6013      	str	r3, [r2, #0]
     418:	e008      	b.n	42c <__HEAP_SIZE+0x2c>
     41a:	687b      	ldr	r3, [r7, #4]
     41c:	091b      	lsrs	r3, r3, #4
     41e:	4a09      	ldr	r2, [pc, #36]	@ (444 <__HEAP_SIZE+0x44>)
     420:	6013      	str	r3, [r2, #0]
     422:	e003      	b.n	42c <__HEAP_SIZE+0x2c>
     424:	4b07      	ldr	r3, [pc, #28]	@ (444 <__HEAP_SIZE+0x44>)
     426:	2200      	movs	r2, #0
     428:	601a      	str	r2, [r3, #0]
     42a:	bf00      	nop
     42c:	bf00      	nop
     42e:	370c      	adds	r7, #12
     430:	46bd      	mov	sp, r7
     432:	f85d 7b04 	ldr.w	r7, [sp], #4
     436:	4770      	bx	lr
     438:	40010000 	.word	0x40010000
     43c:	003d0900 	.word	0x003d0900
     440:	000186a0 	.word	0x000186a0
     444:	1ffd0000 	.word	0x1ffd0000
     448:	aaaaaaab 	.word	0xaaaaaaab

0000044c <SystemInit>:
     44c:	b480      	push	{r7}
     44e:	af00      	add	r7, sp, #0
     450:	4b45      	ldr	r3, [pc, #276]	@ (568 <SystemInit+0x11c>)
     452:	4a46      	ldr	r2, [pc, #280]	@ (56c <SystemInit+0x120>)
     454:	f8c3 2c00 	str.w	r2, [r3, #3072]	@ 0xc00
     458:	4b43      	ldr	r3, [pc, #268]	@ (568 <SystemInit+0x11c>)
     45a:	4a45      	ldr	r2, [pc, #276]	@ (570 <SystemInit+0x124>)
     45c:	f8c3 2c00 	str.w	r2, [r3, #3072]	@ 0xc00
     460:	4b41      	ldr	r3, [pc, #260]	@ (568 <SystemInit+0x11c>)
     462:	2200      	movs	r2, #0
     464:	609a      	str	r2, [r3, #8]
     466:	4b43      	ldr	r3, [pc, #268]	@ (574 <SystemInit+0x128>)
     468:	f8d3 3088 	ldr.w	r3, [r3, #136]	@ 0x88
     46c:	4a41      	ldr	r2, [pc, #260]	@ (574 <SystemInit+0x128>)
     46e:	f443 0370 	orr.w	r3, r3, #15728640	@ 0xf00000
     472:	f8c2 3088 	str.w	r3, [r2, #136]	@ 0x88
     476:	f04f 4380 	mov.w	r3, #1073741824	@ 0x40000000
     47a:	2201      	movs	r2, #1
     47c:	615a      	str	r2, [r3, #20]
     47e:	bf00      	nop
     480:	f04f 4380 	mov.w	r3, #1073741824	@ 0x40000000
     484:	695b      	ldr	r3, [r3, #20]
     486:	f003 0302 	and.w	r3, r3, #2
     48a:	2b02      	cmp	r3, #2
     48c:	d1f8      	bne.n	480 <SystemInit+0x34>
     48e:	4b3a      	ldr	r3, [pc, #232]	@ (578 <SystemInit+0x12c>)
     490:	2200      	movs	r2, #0
     492:	611a      	str	r2, [r3, #16]
     494:	4b38      	ldr	r3, [pc, #224]	@ (578 <SystemInit+0x12c>)
     496:	2201      	movs	r2, #1
     498:	615a      	str	r2, [r3, #20]
     49a:	4b37      	ldr	r3, [pc, #220]	@ (578 <SystemInit+0x12c>)
     49c:	2280      	movs	r2, #128	@ 0x80
     49e:	619a      	str	r2, [r3, #24]
     4a0:	4b35      	ldr	r3, [pc, #212]	@ (578 <SystemInit+0x12c>)
     4a2:	2281      	movs	r2, #129	@ 0x81
     4a4:	61da      	str	r2, [r3, #28]
     4a6:	4b34      	ldr	r3, [pc, #208]	@ (578 <SystemInit+0x12c>)
     4a8:	2283      	movs	r2, #131	@ 0x83
     4aa:	621a      	str	r2, [r3, #32]
     4ac:	4b32      	ldr	r3, [pc, #200]	@ (578 <SystemInit+0x12c>)
     4ae:	2200      	movs	r2, #0
     4b0:	629a      	str	r2, [r3, #40]	@ 0x28
     4b2:	4b31      	ldr	r3, [pc, #196]	@ (578 <SystemInit+0x12c>)
     4b4:	225c      	movs	r2, #92	@ 0x5c
     4b6:	631a      	str	r2, [r3, #48]	@ 0x30
     4b8:	4b2f      	ldr	r3, [pc, #188]	@ (578 <SystemInit+0x12c>)
     4ba:	681b      	ldr	r3, [r3, #0]
     4bc:	4a2e      	ldr	r2, [pc, #184]	@ (578 <SystemInit+0x12c>)
     4be:	f043 0302 	orr.w	r3, r3, #2
     4c2:	6013      	str	r3, [r2, #0]
     4c4:	bf00      	nop
     4c6:	4b2c      	ldr	r3, [pc, #176]	@ (578 <SystemInit+0x12c>)
     4c8:	685b      	ldr	r3, [r3, #4]
     4ca:	f003 0302 	and.w	r3, r3, #2
     4ce:	2b00      	cmp	r3, #0
     4d0:	d0f9      	beq.n	4c6 <SystemInit+0x7a>
     4d2:	4b29      	ldr	r3, [pc, #164]	@ (578 <SystemInit+0x12c>)
     4d4:	2200      	movs	r2, #0
     4d6:	635a      	str	r2, [r3, #52]	@ 0x34
     4d8:	4b27      	ldr	r3, [pc, #156]	@ (578 <SystemInit+0x12c>)
     4da:	2201      	movs	r2, #1
     4dc:	639a      	str	r2, [r3, #56]	@ 0x38
     4de:	4b26      	ldr	r3, [pc, #152]	@ (578 <SystemInit+0x12c>)
     4e0:	2231      	movs	r2, #49	@ 0x31
     4e2:	63da      	str	r2, [r3, #60]	@ 0x3c
     4e4:	4b24      	ldr	r3, [pc, #144]	@ (578 <SystemInit+0x12c>)
     4e6:	681b      	ldr	r3, [r3, #0]
     4e8:	4a23      	ldr	r2, [pc, #140]	@ (578 <SystemInit+0x12c>)
     4ea:	f043 0310 	orr.w	r3, r3, #16
     4ee:	6013      	str	r3, [r2, #0]
     4f0:	bf00      	nop
     4f2:	4b21      	ldr	r3, [pc, #132]	@ (578 <SystemInit+0x12c>)
     4f4:	685b      	ldr	r3, [r3, #4]
     4f6:	f003 0310 	and.w	r3, r3, #16
     4fa:	2b00      	cmp	r3, #0
     4fc:	d0f9      	beq.n	4f2 <SystemInit+0xa6>
     4fe:	4b1e      	ldr	r3, [pc, #120]	@ (578 <SystemInit+0x12c>)
     500:	681b      	ldr	r3, [r3, #0]
     502:	4a1d      	ldr	r2, [pc, #116]	@ (578 <SystemInit+0x12c>)
     504:	f043 0340 	orr.w	r3, r3, #64	@ 0x40
     508:	6013      	str	r3, [r2, #0]
     50a:	4b1b      	ldr	r3, [pc, #108]	@ (578 <SystemInit+0x12c>)
     50c:	681b      	ldr	r3, [r3, #0]
     50e:	f003 03e0 	and.w	r3, r3, #224	@ 0xe0
     512:	4a1a      	ldr	r2, [pc, #104]	@ (57c <SystemInit+0x130>)
     514:	6013      	str	r3, [r2, #0]
     516:	4b18      	ldr	r3, [pc, #96]	@ (578 <SystemInit+0x12c>)
     518:	685b      	ldr	r3, [r3, #4]
     51a:	f003 02e0 	and.w	r2, r3, #224	@ 0xe0
     51e:	4b17      	ldr	r3, [pc, #92]	@ (57c <SystemInit+0x130>)
     520:	681b      	ldr	r3, [r3, #0]
     522:	429a      	cmp	r2, r3
     524:	d1f1      	bne.n	50a <SystemInit+0xbe>
     526:	f04f 4380 	mov.w	r3, #1073741824	@ 0x40000000
     52a:	f8d3 2100 	ldr.w	r2, [r3, #256]	@ 0x100
     52e:	4b14      	ldr	r3, [pc, #80]	@ (580 <SystemInit+0x134>)
     530:	4013      	ands	r3, r2
     532:	4a13      	ldr	r2, [pc, #76]	@ (580 <SystemInit+0x134>)
     534:	4293      	cmp	r3, r2
     536:	d012      	beq.n	55e <SystemInit+0x112>
     538:	4b12      	ldr	r3, [pc, #72]	@ (584 <SystemInit+0x138>)
     53a:	4a13      	ldr	r2, [pc, #76]	@ (588 <SystemInit+0x13c>)
     53c:	60da      	str	r2, [r3, #12]
     53e:	f04f 4380 	mov.w	r3, #1073741824	@ 0x40000000
     542:	f8d3 3100 	ldr.w	r3, [r3, #256]	@ 0x100
     546:	4a0f      	ldr	r2, [pc, #60]	@ (584 <SystemInit+0x138>)
     548:	0c1b      	lsrs	r3, r3, #16
     54a:	6093      	str	r3, [r2, #8]
     54c:	f04f 4380 	mov.w	r3, #1073741824	@ 0x40000000
     550:	4a0c      	ldr	r2, [pc, #48]	@ (584 <SystemInit+0x138>)
     552:	f8d3 3100 	ldr.w	r3, [r3, #256]	@ 0x100
     556:	6053      	str	r3, [r2, #4]
     558:	4b0a      	ldr	r3, [pc, #40]	@ (584 <SystemInit+0x138>)
     55a:	2200      	movs	r2, #0
     55c:	60da      	str	r2, [r3, #12]
     55e:	bf00      	nop
     560:	46bd      	mov	sp, r7
     562:	f85d 7b04 	ldr.w	r7, [sp], #4
     566:	4770      	bx	lr
     568:	40011000 	.word	0x40011000
     56c:	1acce551 	.word	0x1acce551
     570:	e5331aae 	.word	0xe5331aae
     574:	e000ed00 	.word	0xe000ed00
     578:	40010000 	.word	0x40010000
     57c:	1ffd0764 	.word	0x1ffd0764
     580:	001f03ff 	.word	0x001f03ff
     584:	4002e000 	.word	0x4002e000
     588:	1acce554 	.word	0x1acce554

0000058c <MfsUartGetInternDataPtr>:
     58c:	b480      	push	{r7}
     58e:	b085      	sub	sp, #20
     590:	af00      	add	r7, sp, #0
     592:	6078      	str	r0, [r7, #4]
     594:	2300      	movs	r3, #0
     596:	60fb      	str	r3, [r7, #12]
     598:	687b      	ldr	r3, [r7, #4]
     59a:	2b00      	cmp	r3, #0
     59c:	d01d      	beq.n	5da <MfsUartGetInternDataPtr+0x4e>
     59e:	2300      	movs	r3, #0
     5a0:	60bb      	str	r3, [r7, #8]
     5a2:	e017      	b.n	5d4 <MfsUartGetInternDataPtr+0x48>
     5a4:	4910      	ldr	r1, [pc, #64]	@ (5e8 <MfsUartGetInternDataPtr+0x5c>)
     5a6:	68ba      	ldr	r2, [r7, #8]
     5a8:	4613      	mov	r3, r2
     5aa:	00db      	lsls	r3, r3, #3
     5ac:	4413      	add	r3, r2
     5ae:	009b      	lsls	r3, r3, #2
     5b0:	440b      	add	r3, r1
     5b2:	681b      	ldr	r3, [r3, #0]
     5b4:	687a      	ldr	r2, [r7, #4]
     5b6:	429a      	cmp	r2, r3
     5b8:	d109      	bne.n	5ce <MfsUartGetInternDataPtr+0x42>
     5ba:	68ba      	ldr	r2, [r7, #8]
     5bc:	4613      	mov	r3, r2
     5be:	00db      	lsls	r3, r3, #3
     5c0:	4413      	add	r3, r2
     5c2:	009b      	lsls	r3, r3, #2
     5c4:	3308      	adds	r3, #8
     5c6:	4a08      	ldr	r2, [pc, #32]	@ (5e8 <MfsUartGetInternDataPtr+0x5c>)
     5c8:	4413      	add	r3, r2
     5ca:	60fb      	str	r3, [r7, #12]
     5cc:	e005      	b.n	5da <MfsUartGetInternDataPtr+0x4e>
     5ce:	68bb      	ldr	r3, [r7, #8]
     5d0:	3301      	adds	r3, #1
     5d2:	60bb      	str	r3, [r7, #8]
     5d4:	68bb      	ldr	r3, [r7, #8]
     5d6:	2b01      	cmp	r3, #1
     5d8:	d9e4      	bls.n	5a4 <MfsUartGetInternDataPtr+0x18>
     5da:	68fb      	ldr	r3, [r7, #12]
     5dc:	4618      	mov	r0, r3
     5de:	3714      	adds	r7, #20
     5e0:	46bd      	mov	sp, r7
     5e2:	f85d 7b04 	ldr.w	r7, [sp], #4
     5e6:	4770      	bx	lr
     5e8:	1ffd0004 	.word	0x1ffd0004

000005ec <Mfs_Uart_Init>:
     5ec:	b580      	push	{r7, lr}
     5ee:	b086      	sub	sp, #24
     5f0:	af00      	add	r7, sp, #0
     5f2:	6078      	str	r0, [r7, #4]
     5f4:	6039      	str	r1, [r7, #0]
     5f6:	f107 0310 	add.w	r3, r7, #16
     5fa:	2101      	movs	r1, #1
     5fc:	4618      	mov	r0, r3
     5fe:	f7ff fe7b 	bl	2f8 <pdl_memclr>
     602:	f107 030c 	add.w	r3, r7, #12
     606:	2101      	movs	r1, #1
     608:	4618      	mov	r0, r3
     60a:	f7ff fe75 	bl	2f8 <pdl_memclr>
     60e:	f107 0308 	add.w	r3, r7, #8
     612:	2101      	movs	r1, #1
     614:	4618      	mov	r0, r3
     616:	f7ff fe6f 	bl	2f8 <pdl_memclr>
     61a:	6878      	ldr	r0, [r7, #4]
     61c:	f7ff ffb6 	bl	58c <MfsUartGetInternDataPtr>
     620:	6178      	str	r0, [r7, #20]
     622:	697b      	ldr	r3, [r7, #20]
     624:	2b00      	cmp	r3, #0
     626:	d002      	beq.n	62e <Mfs_Uart_Init+0x42>
     628:	683b      	ldr	r3, [r7, #0]
     62a:	2b00      	cmp	r3, #0
     62c:	d101      	bne.n	632 <Mfs_Uart_Init+0x46>
     62e:	2304      	movs	r3, #4
     630:	e140      	b.n	8b4 <Mfs_Uart_Init+0x2c8>
     632:	687b      	ldr	r3, [r7, #4]
     634:	f103 4340 	add.w	r3, r3, #3221225472	@ 0xc0000000
     638:	f5a3 3360 	sub.w	r3, r3, #229376	@ 0x38000
     63c:	0a1b      	lsrs	r3, r3, #8
     63e:	74fb      	strb	r3, [r7, #19]
     640:	7cfb      	ldrb	r3, [r7, #19]
     642:	2b0f      	cmp	r3, #15
     644:	d901      	bls.n	64a <Mfs_Uart_Init+0x5e>
     646:	2304      	movs	r3, #4
     648:	e134      	b.n	8b4 <Mfs_Uart_Init+0x2c8>
     64a:	697b      	ldr	r3, [r7, #20]
     64c:	2201      	movs	r2, #1
     64e:	701a      	strb	r2, [r3, #0]
     650:	683b      	ldr	r3, [r7, #0]
     652:	781b      	ldrb	r3, [r3, #0]
     654:	2b00      	cmp	r3, #0
     656:	d002      	beq.n	65e <Mfs_Uart_Init+0x72>
     658:	2b01      	cmp	r3, #1
     65a:	d005      	beq.n	668 <Mfs_Uart_Init+0x7c>
     65c:	e00a      	b.n	674 <Mfs_Uart_Init+0x88>
     65e:	7c3b      	ldrb	r3, [r7, #16]
     660:	f023 03e0 	bic.w	r3, r3, #224	@ 0xe0
     664:	743b      	strb	r3, [r7, #16]
     666:	e007      	b.n	678 <Mfs_Uart_Init+0x8c>
     668:	7c3b      	ldrb	r3, [r7, #16]
     66a:	2201      	movs	r2, #1
     66c:	f362 1347 	bfi	r3, r2, #5, #3
     670:	743b      	strb	r3, [r7, #16]
     672:	e001      	b.n	678 <Mfs_Uart_Init+0x8c>
     674:	2304      	movs	r3, #4
     676:	e11d      	b.n	8b4 <Mfs_Uart_Init+0x2c8>
     678:	7c3b      	ldrb	r3, [r7, #16]
     67a:	f043 0301 	orr.w	r3, r3, #1
     67e:	743b      	strb	r3, [r7, #16]
     680:	683b      	ldr	r3, [r7, #0]
     682:	7a1b      	ldrb	r3, [r3, #8]
     684:	2b03      	cmp	r3, #3
     686:	d018      	beq.n	6ba <Mfs_Uart_Init+0xce>
     688:	2b03      	cmp	r3, #3
     68a:	dc1f      	bgt.n	6cc <Mfs_Uart_Init+0xe0>
     68c:	2b00      	cmp	r3, #0
     68e:	d002      	beq.n	696 <Mfs_Uart_Init+0xaa>
     690:	2b02      	cmp	r3, #2
     692:	d009      	beq.n	6a8 <Mfs_Uart_Init+0xbc>
     694:	e01a      	b.n	6cc <Mfs_Uart_Init+0xe0>
     696:	7a3b      	ldrb	r3, [r7, #8]
     698:	f023 0308 	bic.w	r3, r3, #8
     69c:	723b      	strb	r3, [r7, #8]
     69e:	7a3b      	ldrb	r3, [r7, #8]
     6a0:	f023 0310 	bic.w	r3, r3, #16
     6a4:	723b      	strb	r3, [r7, #8]
     6a6:	e013      	b.n	6d0 <Mfs_Uart_Init+0xe4>
     6a8:	7a3b      	ldrb	r3, [r7, #8]
     6aa:	f023 0308 	bic.w	r3, r3, #8
     6ae:	723b      	strb	r3, [r7, #8]
     6b0:	7a3b      	ldrb	r3, [r7, #8]
     6b2:	f043 0310 	orr.w	r3, r3, #16
     6b6:	723b      	strb	r3, [r7, #8]
     6b8:	e00a      	b.n	6d0 <Mfs_Uart_Init+0xe4>
     6ba:	7a3b      	ldrb	r3, [r7, #8]
     6bc:	f043 0308 	orr.w	r3, r3, #8
     6c0:	723b      	strb	r3, [r7, #8]
     6c2:	7a3b      	ldrb	r3, [r7, #8]
     6c4:	f043 0310 	orr.w	r3, r3, #16
     6c8:	723b      	strb	r3, [r7, #8]
     6ca:	e001      	b.n	6d0 <Mfs_Uart_Init+0xe4>
     6cc:	2304      	movs	r3, #4
     6ce:	e0f1      	b.n	8b4 <Mfs_Uart_Init+0x2c8>
     6d0:	683b      	ldr	r3, [r7, #0]
     6d2:	7a5b      	ldrb	r3, [r3, #9]
     6d4:	2b03      	cmp	r3, #3
     6d6:	d82f      	bhi.n	738 <Mfs_Uart_Init+0x14c>
     6d8:	a201      	add	r2, pc, #4	@ (adr r2, 6e0 <Mfs_Uart_Init+0xf4>)
     6da:	f852 f023 	ldr.w	pc, [r2, r3, lsl #2]
     6de:	bf00      	nop
     6e0:	000006f1 	.word	0x000006f1
     6e4:	00000703 	.word	0x00000703
     6e8:	00000715 	.word	0x00000715
     6ec:	00000727 	.word	0x00000727
     6f0:	7c3b      	ldrb	r3, [r7, #16]
     6f2:	f023 0308 	bic.w	r3, r3, #8
     6f6:	743b      	strb	r3, [r7, #16]
     6f8:	7a3b      	ldrb	r3, [r7, #8]
     6fa:	f023 0340 	bic.w	r3, r3, #64	@ 0x40
     6fe:	723b      	strb	r3, [r7, #8]
     700:	e01c      	b.n	73c <Mfs_Uart_Init+0x150>
     702:	7c3b      	ldrb	r3, [r7, #16]
     704:	f043 0308 	orr.w	r3, r3, #8
     708:	743b      	strb	r3, [r7, #16]
     70a:	7a3b      	ldrb	r3, [r7, #8]
     70c:	f023 0340 	bic.w	r3, r3, #64	@ 0x40
     710:	723b      	strb	r3, [r7, #8]
     712:	e013      	b.n	73c <Mfs_Uart_Init+0x150>
     714:	7c3b      	ldrb	r3, [r7, #16]
     716:	f023 0308 	bic.w	r3, r3, #8
     71a:	743b      	strb	r3, [r7, #16]
     71c:	7a3b      	ldrb	r3, [r7, #8]
     71e:	f043 0340 	orr.w	r3, r3, #64	@ 0x40
     722:	723b      	strb	r3, [r7, #8]
     724:	e00a      	b.n	73c <Mfs_Uart_Init+0x150>
     726:	7c3b      	ldrb	r3, [r7, #16]
     728:	f043 0308 	orr.w	r3, r3, #8
     72c:	743b      	strb	r3, [r7, #16]
     72e:	7a3b      	ldrb	r3, [r7, #8]
     730:	f043 0340 	orr.w	r3, r3, #64	@ 0x40
     734:	723b      	strb	r3, [r7, #8]
     736:	e001      	b.n	73c <Mfs_Uart_Init+0x150>
     738:	2304      	movs	r3, #4
     73a:	e0bb      	b.n	8b4 <Mfs_Uart_Init+0x2c8>
     73c:	683b      	ldr	r3, [r7, #0]
     73e:	7a9b      	ldrb	r3, [r3, #10]
     740:	2b04      	cmp	r3, #4
     742:	d82a      	bhi.n	79a <Mfs_Uart_Init+0x1ae>
     744:	a201      	add	r2, pc, #4	@ (adr r2, 74c <Mfs_Uart_Init+0x160>)
     746:	f852 f023 	ldr.w	pc, [r2, r3, lsl #2]
     74a:	bf00      	nop
     74c:	00000785 	.word	0x00000785
     750:	00000761 	.word	0x00000761
     754:	0000076d 	.word	0x0000076d
     758:	00000779 	.word	0x00000779
     75c:	0000078f 	.word	0x0000078f
     760:	7a3b      	ldrb	r3, [r7, #8]
     762:	2201      	movs	r2, #1
     764:	f362 0302 	bfi	r3, r2, #0, #3
     768:	723b      	strb	r3, [r7, #8]
     76a:	e018      	b.n	79e <Mfs_Uart_Init+0x1b2>
     76c:	7a3b      	ldrb	r3, [r7, #8]
     76e:	2202      	movs	r2, #2
     770:	f362 0302 	bfi	r3, r2, #0, #3
     774:	723b      	strb	r3, [r7, #8]
     776:	e012      	b.n	79e <Mfs_Uart_Init+0x1b2>
     778:	7a3b      	ldrb	r3, [r7, #8]
     77a:	2203      	movs	r2, #3
     77c:	f362 0302 	bfi	r3, r2, #0, #3
     780:	723b      	strb	r3, [r7, #8]
     782:	e00c      	b.n	79e <Mfs_Uart_Init+0x1b2>
     784:	7a3b      	ldrb	r3, [r7, #8]
     786:	f023 0307 	bic.w	r3, r3, #7
     78a:	723b      	strb	r3, [r7, #8]
     78c:	e007      	b.n	79e <Mfs_Uart_Init+0x1b2>
     78e:	7a3b      	ldrb	r3, [r7, #8]
     790:	2204      	movs	r2, #4
     792:	f362 0302 	bfi	r3, r2, #0, #3
     796:	723b      	strb	r3, [r7, #8]
     798:	e001      	b.n	79e <Mfs_Uart_Init+0x1b2>
     79a:	2304      	movs	r3, #4
     79c:	e08a      	b.n	8b4 <Mfs_Uart_Init+0x2c8>
     79e:	683b      	ldr	r3, [r7, #0]
     7a0:	7adb      	ldrb	r3, [r3, #11]
     7a2:	2b00      	cmp	r3, #0
     7a4:	d002      	beq.n	7ac <Mfs_Uart_Init+0x1c0>
     7a6:	2b01      	cmp	r3, #1
     7a8:	d005      	beq.n	7b6 <Mfs_Uart_Init+0x1ca>
     7aa:	e009      	b.n	7c0 <Mfs_Uart_Init+0x1d4>
     7ac:	7c3b      	ldrb	r3, [r7, #16]
     7ae:	f023 0304 	bic.w	r3, r3, #4
     7b2:	743b      	strb	r3, [r7, #16]
     7b4:	e006      	b.n	7c4 <Mfs_Uart_Init+0x1d8>
     7b6:	7c3b      	ldrb	r3, [r7, #16]
     7b8:	f043 0304 	orr.w	r3, r3, #4
     7bc:	743b      	strb	r3, [r7, #16]
     7be:	e001      	b.n	7c4 <Mfs_Uart_Init+0x1d8>
     7c0:	2304      	movs	r3, #4
     7c2:	e077      	b.n	8b4 <Mfs_Uart_Init+0x2c8>
     7c4:	683b      	ldr	r3, [r7, #0]
     7c6:	7b5b      	ldrb	r3, [r3, #13]
     7c8:	2b01      	cmp	r3, #1
     7ca:	d104      	bne.n	7d6 <Mfs_Uart_Init+0x1ea>
     7cc:	7a3b      	ldrb	r3, [r7, #8]
     7ce:	f043 0380 	orr.w	r3, r3, #128	@ 0x80
     7d2:	723b      	strb	r3, [r7, #8]
     7d4:	e003      	b.n	7de <Mfs_Uart_Init+0x1f2>
     7d6:	7a3b      	ldrb	r3, [r7, #8]
     7d8:	f023 0380 	bic.w	r3, r3, #128	@ 0x80
     7dc:	723b      	strb	r3, [r7, #8]
     7de:	683b      	ldr	r3, [r7, #0]
     7e0:	7b1b      	ldrb	r3, [r3, #12]
     7e2:	2b01      	cmp	r3, #1
     7e4:	d104      	bne.n	7f0 <Mfs_Uart_Init+0x204>
     7e6:	7a3b      	ldrb	r3, [r7, #8]
     7e8:	f043 0320 	orr.w	r3, r3, #32
     7ec:	723b      	strb	r3, [r7, #8]
     7ee:	e003      	b.n	7f8 <Mfs_Uart_Init+0x20c>
     7f0:	7a3b      	ldrb	r3, [r7, #8]
     7f2:	f023 0320 	bic.w	r3, r3, #32
     7f6:	723b      	strb	r3, [r7, #8]
     7f8:	687a      	ldr	r2, [r7, #4]
     7fa:	7853      	ldrb	r3, [r2, #1]
     7fc:	f043 0380 	orr.w	r3, r3, #128	@ 0x80
     800:	7053      	strb	r3, [r2, #1]
     802:	683b      	ldr	r3, [r7, #0]
     804:	685b      	ldr	r3, [r3, #4]
     806:	4619      	mov	r1, r3
     808:	6878      	ldr	r0, [r7, #4]
     80a:	f000 f857 	bl	8bc <Mfs_Uart_SetBaudRate>
     80e:	687b      	ldr	r3, [r7, #4]
     810:	7c3a      	ldrb	r2, [r7, #16]
     812:	701a      	strb	r2, [r3, #0]
     814:	687b      	ldr	r3, [r7, #4]
     816:	7b3a      	ldrb	r2, [r7, #12]
     818:	705a      	strb	r2, [r3, #1]
     81a:	687b      	ldr	r3, [r7, #4]
     81c:	7a3a      	ldrb	r2, [r7, #8]
     81e:	711a      	strb	r2, [r3, #4]
     820:	683b      	ldr	r3, [r7, #0]
     822:	7b9b      	ldrb	r3, [r3, #14]
     824:	2b01      	cmp	r3, #1
     826:	d101      	bne.n	82c <Mfs_Uart_Init+0x240>
     828:	2101      	movs	r1, #1
     82a:	e000      	b.n	82e <Mfs_Uart_Init+0x242>
     82c:	2100      	movs	r1, #0
     82e:	687a      	ldr	r2, [r7, #4]
     830:	8993      	ldrh	r3, [r2, #12]
     832:	f361 33cf 	bfi	r3, r1, #15, #1
     836:	8193      	strh	r3, [r2, #12]
     838:	683b      	ldr	r3, [r7, #0]
     83a:	691b      	ldr	r3, [r3, #16]
     83c:	2b00      	cmp	r3, #0
     83e:	d038      	beq.n	8b2 <Mfs_Uart_Init+0x2c6>
     840:	687a      	ldr	r2, [r7, #4]
     842:	8a93      	ldrh	r3, [r2, #20]
     844:	f043 0304 	orr.w	r3, r3, #4
     848:	8293      	strh	r3, [r2, #20]
     84a:	687a      	ldr	r2, [r7, #4]
     84c:	8a93      	ldrh	r3, [r2, #20]
     84e:	f043 0308 	orr.w	r3, r3, #8
     852:	8293      	strh	r3, [r2, #20]
     854:	687a      	ldr	r2, [r7, #4]
     856:	8a93      	ldrh	r3, [r2, #20]
     858:	f443 6300 	orr.w	r3, r3, #2048	@ 0x800
     85c:	8293      	strh	r3, [r2, #20]
     85e:	683b      	ldr	r3, [r7, #0]
     860:	691b      	ldr	r3, [r3, #16]
     862:	781b      	ldrb	r3, [r3, #0]
     864:	2b00      	cmp	r3, #0
     866:	d002      	beq.n	86e <Mfs_Uart_Init+0x282>
     868:	2b01      	cmp	r3, #1
     86a:	d006      	beq.n	87a <Mfs_Uart_Init+0x28e>
     86c:	e00b      	b.n	886 <Mfs_Uart_Init+0x29a>
     86e:	687a      	ldr	r2, [r7, #4]
     870:	8a93      	ldrh	r3, [r2, #20]
     872:	f423 7380 	bic.w	r3, r3, #256	@ 0x100
     876:	8293      	strh	r3, [r2, #20]
     878:	e007      	b.n	88a <Mfs_Uart_Init+0x29e>
     87a:	687a      	ldr	r2, [r7, #4]
     87c:	8a93      	ldrh	r3, [r2, #20]
     87e:	f443 7380 	orr.w	r3, r3, #256	@ 0x100
     882:	8293      	strh	r3, [r2, #20]
     884:	e001      	b.n	88a <Mfs_Uart_Init+0x29e>
     886:	2304      	movs	r3, #4
     888:	e014      	b.n	8b4 <Mfs_Uart_Init+0x2c8>
     88a:	683b      	ldr	r3, [r7, #0]
     88c:	691b      	ldr	r3, [r3, #16]
     88e:	785a      	ldrb	r2, [r3, #1]
     890:	687b      	ldr	r3, [r7, #4]
     892:	761a      	strb	r2, [r3, #24]
     894:	683b      	ldr	r3, [r7, #0]
     896:	691b      	ldr	r3, [r3, #16]
     898:	789a      	ldrb	r2, [r3, #2]
     89a:	687b      	ldr	r3, [r7, #4]
     89c:	765a      	strb	r2, [r3, #25]
     89e:	687a      	ldr	r2, [r7, #4]
     8a0:	8a93      	ldrh	r3, [r2, #20]
     8a2:	f043 0301 	orr.w	r3, r3, #1
     8a6:	8293      	strh	r3, [r2, #20]
     8a8:	687a      	ldr	r2, [r7, #4]
     8aa:	8a93      	ldrh	r3, [r2, #20]
     8ac:	f043 0302 	orr.w	r3, r3, #2
     8b0:	8293      	strh	r3, [r2, #20]
     8b2:	2300      	movs	r3, #0
     8b4:	4618      	mov	r0, r3
     8b6:	3718      	adds	r7, #24
     8b8:	46bd      	mov	sp, r7
     8ba:	bd80      	pop	{r7, pc}

000008bc <Mfs_Uart_SetBaudRate>:
     8bc:	b580      	push	{r7, lr}
     8be:	b084      	sub	sp, #16
     8c0:	af00      	add	r7, sp, #0
     8c2:	6078      	str	r0, [r7, #4]
     8c4:	6039      	str	r1, [r7, #0]
     8c6:	f7ff fd2f 	bl	328 <SystemCoreClockUpdate>
     8ca:	687b      	ldr	r3, [r7, #4]
     8cc:	2b00      	cmp	r3, #0
     8ce:	d002      	beq.n	8d6 <Mfs_Uart_SetBaudRate+0x1a>
     8d0:	683b      	ldr	r3, [r7, #0]
     8d2:	2b03      	cmp	r3, #3
     8d4:	d801      	bhi.n	8da <Mfs_Uart_SetBaudRate+0x1e>
     8d6:	2304      	movs	r3, #4
     8d8:	e018      	b.n	90c <Mfs_Uart_SetBaudRate+0x50>
     8da:	4b0e      	ldr	r3, [pc, #56]	@ (914 <Mfs_Uart_SetBaudRate+0x58>)
     8dc:	681a      	ldr	r2, [r3, #0]
     8de:	4b0e      	ldr	r3, [pc, #56]	@ (918 <Mfs_Uart_SetBaudRate+0x5c>)
     8e0:	69db      	ldr	r3, [r3, #28]
     8e2:	f003 0303 	and.w	r3, r3, #3
     8e6:	fa22 f303 	lsr.w	r3, r2, r3
     8ea:	60fb      	str	r3, [r7, #12]
     8ec:	68fa      	ldr	r2, [r7, #12]
     8ee:	683b      	ldr	r3, [r7, #0]
     8f0:	fbb2 f3f3 	udiv	r3, r2, r3
     8f4:	b29b      	uxth	r3, r3
     8f6:	3b01      	subs	r3, #1
     8f8:	b29b      	uxth	r3, r3
     8fa:	f3c3 030e 	ubfx	r3, r3, #0, #15
     8fe:	b299      	uxth	r1, r3
     900:	687a      	ldr	r2, [r7, #4]
     902:	8993      	ldrh	r3, [r2, #12]
     904:	f361 030e 	bfi	r3, r1, #0, #15
     908:	8193      	strh	r3, [r2, #12]
     90a:	2300      	movs	r3, #0
     90c:	4618      	mov	r0, r3
     90e:	3710      	adds	r7, #16
     910:	46bd      	mov	sp, r7
     912:	bd80      	pop	{r7, pc}
     914:	1ffd0000 	.word	0x1ffd0000
     918:	40010000 	.word	0x40010000

0000091c <Mfs_Uart_EnableFunc>:
     91c:	b480      	push	{r7}
     91e:	b083      	sub	sp, #12
     920:	af00      	add	r7, sp, #0
     922:	6078      	str	r0, [r7, #4]
     924:	460b      	mov	r3, r1
     926:	70fb      	strb	r3, [r7, #3]
     928:	687b      	ldr	r3, [r7, #4]
     92a:	2b00      	cmp	r3, #0
     92c:	d101      	bne.n	932 <Mfs_Uart_EnableFunc+0x16>
     92e:	2304      	movs	r3, #4
     930:	e014      	b.n	95c <Mfs_Uart_EnableFunc+0x40>
     932:	78fb      	ldrb	r3, [r7, #3]
     934:	2b00      	cmp	r3, #0
     936:	d002      	beq.n	93e <Mfs_Uart_EnableFunc+0x22>
     938:	2b01      	cmp	r3, #1
     93a:	d006      	beq.n	94a <Mfs_Uart_EnableFunc+0x2e>
     93c:	e00b      	b.n	956 <Mfs_Uart_EnableFunc+0x3a>
     93e:	687a      	ldr	r2, [r7, #4]
     940:	7853      	ldrb	r3, [r2, #1]
     942:	f043 0301 	orr.w	r3, r3, #1
     946:	7053      	strb	r3, [r2, #1]
     948:	e007      	b.n	95a <Mfs_Uart_EnableFunc+0x3e>
     94a:	687a      	ldr	r2, [r7, #4]
     94c:	7853      	ldrb	r3, [r2, #1]
     94e:	f043 0302 	orr.w	r3, r3, #2
     952:	7053      	strb	r3, [r2, #1]
     954:	e001      	b.n	95a <Mfs_Uart_EnableFunc+0x3e>
     956:	2304      	movs	r3, #4
     958:	e000      	b.n	95c <Mfs_Uart_EnableFunc+0x40>
     95a:	2300      	movs	r3, #0
     95c:	4618      	mov	r0, r3
     95e:	370c      	adds	r7, #12
     960:	46bd      	mov	sp, r7
     962:	f85d 7b04 	ldr.w	r7, [sp], #4
     966:	4770      	bx	lr

00000968 <Mfs_Uart_GetStatus>:
     968:	b480      	push	{r7}
     96a:	b085      	sub	sp, #20
     96c:	af00      	add	r7, sp, #0
     96e:	6078      	str	r0, [r7, #4]
     970:	460b      	mov	r3, r1
     972:	70fb      	strb	r3, [r7, #3]
     974:	2300      	movs	r3, #0
     976:	73fb      	strb	r3, [r7, #15]
     978:	78fb      	ldrb	r3, [r7, #3]
     97a:	2b06      	cmp	r3, #6
     97c:	d841      	bhi.n	a02 <Mfs_Uart_GetStatus+0x9a>
     97e:	a201      	add	r2, pc, #4	@ (adr r2, 984 <Mfs_Uart_GetStatus+0x1c>)
     980:	f852 f023 	ldr.w	pc, [r2, r3, lsl #2]
     984:	000009a1 	.word	0x000009a1
     988:	000009af 	.word	0x000009af
     98c:	000009bd 	.word	0x000009bd
     990:	000009cb 	.word	0x000009cb
     994:	000009d9 	.word	0x000009d9
     998:	000009e7 	.word	0x000009e7
     99c:	000009f5 	.word	0x000009f5
     9a0:	687b      	ldr	r3, [r7, #4]
     9a2:	795b      	ldrb	r3, [r3, #5]
     9a4:	f3c3 1340 	ubfx	r3, r3, #5, #1
     9a8:	b2db      	uxtb	r3, r3
     9aa:	73fb      	strb	r3, [r7, #15]
     9ac:	e02a      	b.n	a04 <Mfs_Uart_GetStatus+0x9c>
     9ae:	687b      	ldr	r3, [r7, #4]
     9b0:	795b      	ldrb	r3, [r3, #5]
     9b2:	f3c3 1300 	ubfx	r3, r3, #4, #1
     9b6:	b2db      	uxtb	r3, r3
     9b8:	73fb      	strb	r3, [r7, #15]
     9ba:	e023      	b.n	a04 <Mfs_Uart_GetStatus+0x9c>
     9bc:	687b      	ldr	r3, [r7, #4]
     9be:	795b      	ldrb	r3, [r3, #5]
     9c0:	f3c3 03c0 	ubfx	r3, r3, #3, #1
     9c4:	b2db      	uxtb	r3, r3
     9c6:	73fb      	strb	r3, [r7, #15]
     9c8:	e01c      	b.n	a04 <Mfs_Uart_GetStatus+0x9c>
     9ca:	687b      	ldr	r3, [r7, #4]
     9cc:	795b      	ldrb	r3, [r3, #5]
     9ce:	f3c3 0380 	ubfx	r3, r3, #2, #1
     9d2:	b2db      	uxtb	r3, r3
     9d4:	73fb      	strb	r3, [r7, #15]
     9d6:	e015      	b.n	a04 <Mfs_Uart_GetStatus+0x9c>
     9d8:	687b      	ldr	r3, [r7, #4]
     9da:	795b      	ldrb	r3, [r3, #5]
     9dc:	f3c3 0340 	ubfx	r3, r3, #1, #1
     9e0:	b2db      	uxtb	r3, r3
     9e2:	73fb      	strb	r3, [r7, #15]
     9e4:	e00e      	b.n	a04 <Mfs_Uart_GetStatus+0x9c>
     9e6:	687b      	ldr	r3, [r7, #4]
     9e8:	795b      	ldrb	r3, [r3, #5]
     9ea:	f3c3 0300 	ubfx	r3, r3, #0, #1
     9ee:	b2db      	uxtb	r3, r3
     9f0:	73fb      	strb	r3, [r7, #15]
     9f2:	e007      	b.n	a04 <Mfs_Uart_GetStatus+0x9c>
     9f4:	687b      	ldr	r3, [r7, #4]
     9f6:	8a9b      	ldrh	r3, [r3, #20]
     9f8:	f3c3 2380 	ubfx	r3, r3, #10, #1
     9fc:	b2db      	uxtb	r3, r3
     9fe:	73fb      	strb	r3, [r7, #15]
     a00:	e000      	b.n	a04 <Mfs_Uart_GetStatus+0x9c>
     a02:	bf00      	nop
     a04:	7bfb      	ldrb	r3, [r7, #15]
     a06:	4618      	mov	r0, r3
     a08:	3714      	adds	r7, #20
     a0a:	46bd      	mov	sp, r7
     a0c:	f85d 7b04 	ldr.w	r7, [sp], #4
     a10:	4770      	bx	lr
     a12:	bf00      	nop

00000a14 <Mfs_Uart_SendData>:
     a14:	b480      	push	{r7}
     a16:	b083      	sub	sp, #12
     a18:	af00      	add	r7, sp, #0
     a1a:	6078      	str	r0, [r7, #4]
     a1c:	460b      	mov	r3, r1
     a1e:	807b      	strh	r3, [r7, #2]
     a20:	687b      	ldr	r3, [r7, #4]
     a22:	2b00      	cmp	r3, #0
     a24:	d101      	bne.n	a2a <Mfs_Uart_SendData+0x16>
     a26:	2304      	movs	r3, #4
     a28:	e003      	b.n	a32 <Mfs_Uart_SendData+0x1e>
     a2a:	687b      	ldr	r3, [r7, #4]
     a2c:	887a      	ldrh	r2, [r7, #2]
     a2e:	811a      	strh	r2, [r3, #8]
     a30:	2300      	movs	r3, #0
     a32:	4618      	mov	r0, r3
     a34:	370c      	adds	r7, #12
     a36:	46bd      	mov	sp, r7
     a38:	f85d 7b04 	ldr.w	r7, [sp], #4
     a3c:	4770      	bx	lr
	...

00000a40 <MfsI2cGetInternDataPtr>:
     a40:	b480      	push	{r7}
     a42:	b085      	sub	sp, #20
     a44:	af00      	add	r7, sp, #0
     a46:	6078      	str	r0, [r7, #4]
     a48:	2300      	movs	r3, #0
     a4a:	60fb      	str	r3, [r7, #12]
     a4c:	687b      	ldr	r3, [r7, #4]
     a4e:	2b00      	cmp	r3, #0
     a50:	d01e      	beq.n	a90 <MfsI2cGetInternDataPtr+0x50>
     a52:	2300      	movs	r3, #0
     a54:	60bb      	str	r3, [r7, #8]
     a56:	e018      	b.n	a8a <MfsI2cGetInternDataPtr+0x4a>
     a58:	4911      	ldr	r1, [pc, #68]	@ (aa0 <MfsI2cGetInternDataPtr+0x60>)
     a5a:	68ba      	ldr	r2, [r7, #8]
     a5c:	4613      	mov	r3, r2
     a5e:	00db      	lsls	r3, r3, #3
     a60:	4413      	add	r3, r2
     a62:	009b      	lsls	r3, r3, #2
     a64:	440b      	add	r3, r1
     a66:	3304      	adds	r3, #4
     a68:	681b      	ldr	r3, [r3, #0]
     a6a:	687a      	ldr	r2, [r7, #4]
     a6c:	429a      	cmp	r2, r3
     a6e:	d109      	bne.n	a84 <MfsI2cGetInternDataPtr+0x44>
     a70:	68ba      	ldr	r2, [r7, #8]
     a72:	4613      	mov	r3, r2
     a74:	00db      	lsls	r3, r3, #3
     a76:	4413      	add	r3, r2
     a78:	009b      	lsls	r3, r3, #2
     a7a:	3308      	adds	r3, #8
     a7c:	4a08      	ldr	r2, [pc, #32]	@ (aa0 <MfsI2cGetInternDataPtr+0x60>)
     a7e:	4413      	add	r3, r2
     a80:	60fb      	str	r3, [r7, #12]
     a82:	e005      	b.n	a90 <MfsI2cGetInternDataPtr+0x50>
     a84:	68bb      	ldr	r3, [r7, #8]
     a86:	3301      	adds	r3, #1
     a88:	60bb      	str	r3, [r7, #8]
     a8a:	68bb      	ldr	r3, [r7, #8]
     a8c:	2b01      	cmp	r3, #1
     a8e:	d9e3      	bls.n	a58 <MfsI2cGetInternDataPtr+0x18>
     a90:	68fb      	ldr	r3, [r7, #12]
     a92:	4618      	mov	r0, r3
     a94:	3714      	adds	r7, #20
     a96:	46bd      	mov	sp, r7
     a98:	f85d 7b04 	ldr.w	r7, [sp], #4
     a9c:	4770      	bx	lr
     a9e:	bf00      	nop
     aa0:	1ffd0004 	.word	0x1ffd0004

00000aa4 <Mfs_I2c_Init>:
     aa4:	b580      	push	{r7, lr}
     aa6:	b088      	sub	sp, #32
     aa8:	af00      	add	r7, sp, #0
     aaa:	6078      	str	r0, [r7, #4]
     aac:	6039      	str	r1, [r7, #0]
     aae:	f107 0314 	add.w	r3, r7, #20
     ab2:	2101      	movs	r1, #1
     ab4:	4618      	mov	r0, r3
     ab6:	f7ff fc1f 	bl	2f8 <pdl_memclr>
     aba:	f107 0310 	add.w	r3, r7, #16
     abe:	2101      	movs	r1, #1
     ac0:	4618      	mov	r0, r3
     ac2:	f7ff fc19 	bl	2f8 <pdl_memclr>
     ac6:	f107 030c 	add.w	r3, r7, #12
     aca:	2101      	movs	r1, #1
     acc:	4618      	mov	r0, r3
     ace:	f7ff fc13 	bl	2f8 <pdl_memclr>
     ad2:	f107 0308 	add.w	r3, r7, #8
     ad6:	2101      	movs	r1, #1
     ad8:	4618      	mov	r0, r3
     ada:	f7ff fc0d 	bl	2f8 <pdl_memclr>
     ade:	687b      	ldr	r3, [r7, #4]
     ae0:	f103 4340 	add.w	r3, r3, #3221225472	@ 0xc0000000
     ae4:	f5a3 3360 	sub.w	r3, r3, #229376	@ 0x38000
     ae8:	0a1b      	lsrs	r3, r3, #8
     aea:	77fb      	strb	r3, [r7, #31]
     aec:	7ffb      	ldrb	r3, [r7, #31]
     aee:	2b0f      	cmp	r3, #15
     af0:	d901      	bls.n	af6 <Mfs_I2c_Init+0x52>
     af2:	2304      	movs	r3, #4
     af4:	e09f      	b.n	c36 <Mfs_I2c_Init+0x192>
     af6:	6878      	ldr	r0, [r7, #4]
     af8:	f7ff ffa2 	bl	a40 <MfsI2cGetInternDataPtr>
     afc:	61b8      	str	r0, [r7, #24]
     afe:	69bb      	ldr	r3, [r7, #24]
     b00:	2b00      	cmp	r3, #0
     b02:	d002      	beq.n	b0a <Mfs_I2c_Init+0x66>
     b04:	683b      	ldr	r3, [r7, #0]
     b06:	2b00      	cmp	r3, #0
     b08:	d101      	bne.n	b0e <Mfs_I2c_Init+0x6a>
     b0a:	2304      	movs	r3, #4
     b0c:	e093      	b.n	c36 <Mfs_I2c_Init+0x192>
     b0e:	69bb      	ldr	r3, [r7, #24]
     b10:	2203      	movs	r2, #3
     b12:	701a      	strb	r2, [r3, #0]
     b14:	683b      	ldr	r3, [r7, #0]
     b16:	781b      	ldrb	r3, [r3, #0]
     b18:	2b01      	cmp	r3, #1
     b1a:	d80e      	bhi.n	b3a <Mfs_I2c_Init+0x96>
     b1c:	7d3b      	ldrb	r3, [r7, #20]
     b1e:	2204      	movs	r2, #4
     b20:	f362 1347 	bfi	r3, r2, #5, #3
     b24:	753b      	strb	r3, [r7, #20]
     b26:	bf00      	nop
     b28:	7c3b      	ldrb	r3, [r7, #16]
     b2a:	f043 0320 	orr.w	r3, r3, #32
     b2e:	743b      	strb	r3, [r7, #16]
     b30:	683b      	ldr	r3, [r7, #0]
     b32:	781b      	ldrb	r3, [r3, #0]
     b34:	2b01      	cmp	r3, #1
     b36:	d118      	bne.n	b6a <Mfs_I2c_Init+0xc6>
     b38:	e001      	b.n	b3e <Mfs_I2c_Init+0x9a>
     b3a:	2304      	movs	r3, #4
     b3c:	e07b      	b.n	c36 <Mfs_I2c_Init+0x192>
     b3e:	683b      	ldr	r3, [r7, #0]
     b40:	7a1b      	ldrb	r3, [r3, #8]
     b42:	f003 037f 	and.w	r3, r3, #127	@ 0x7f
     b46:	b2da      	uxtb	r2, r3
     b48:	7b3b      	ldrb	r3, [r7, #12]
     b4a:	f362 0306 	bfi	r3, r2, #0, #7
     b4e:	733b      	strb	r3, [r7, #12]
     b50:	7b3b      	ldrb	r3, [r7, #12]
     b52:	f043 0380 	orr.w	r3, r3, #128	@ 0x80
     b56:	733b      	strb	r3, [r7, #12]
     b58:	683b      	ldr	r3, [r7, #0]
     b5a:	7a5b      	ldrb	r3, [r3, #9]
     b5c:	f003 037f 	and.w	r3, r3, #127	@ 0x7f
     b60:	b2da      	uxtb	r2, r3
     b62:	7a3b      	ldrb	r3, [r7, #8]
     b64:	f362 0306 	bfi	r3, r2, #0, #7
     b68:	723b      	strb	r3, [r7, #8]
     b6a:	7a3b      	ldrb	r3, [r7, #8]
     b6c:	f043 0380 	orr.w	r3, r3, #128	@ 0x80
     b70:	723b      	strb	r3, [r7, #8]
     b72:	687b      	ldr	r3, [r7, #4]
     b74:	7d3a      	ldrb	r2, [r7, #20]
     b76:	701a      	strb	r2, [r3, #0]
     b78:	687b      	ldr	r3, [r7, #4]
     b7a:	2200      	movs	r2, #0
     b7c:	745a      	strb	r2, [r3, #17]
     b7e:	683b      	ldr	r3, [r7, #0]
     b80:	7adb      	ldrb	r3, [r3, #11]
     b82:	2b01      	cmp	r3, #1
     b84:	d105      	bne.n	b92 <Mfs_I2c_Init+0xee>
     b86:	687a      	ldr	r2, [r7, #4]
     b88:	7953      	ldrb	r3, [r2, #5]
     b8a:	f043 0320 	orr.w	r3, r3, #32
     b8e:	7153      	strb	r3, [r2, #5]
     b90:	e004      	b.n	b9c <Mfs_I2c_Init+0xf8>
     b92:	687a      	ldr	r2, [r7, #4]
     b94:	7953      	ldrb	r3, [r2, #5]
     b96:	f023 0320 	bic.w	r3, r3, #32
     b9a:	7153      	strb	r3, [r2, #5]
     b9c:	683b      	ldr	r3, [r7, #0]
     b9e:	685b      	ldr	r3, [r3, #4]
     ba0:	4619      	mov	r1, r3
     ba2:	6878      	ldr	r0, [r7, #4]
     ba4:	f000 f84c 	bl	c40 <Mfs_I2c_SetBaudRate>
     ba8:	687b      	ldr	r3, [r7, #4]
     baa:	7c3a      	ldrb	r2, [r7, #16]
     bac:	705a      	strb	r2, [r3, #1]
     bae:	687b      	ldr	r3, [r7, #4]
     bb0:	7b3a      	ldrb	r2, [r7, #12]
     bb2:	741a      	strb	r2, [r3, #16]
     bb4:	687b      	ldr	r3, [r7, #4]
     bb6:	7a3a      	ldrb	r2, [r7, #8]
     bb8:	745a      	strb	r2, [r3, #17]
     bba:	683b      	ldr	r3, [r7, #0]
     bbc:	68db      	ldr	r3, [r3, #12]
     bbe:	2b00      	cmp	r3, #0
     bc0:	d038      	beq.n	c34 <Mfs_I2c_Init+0x190>
     bc2:	687a      	ldr	r2, [r7, #4]
     bc4:	8a93      	ldrh	r3, [r2, #20]
     bc6:	f043 0304 	orr.w	r3, r3, #4
     bca:	8293      	strh	r3, [r2, #20]
     bcc:	687a      	ldr	r2, [r7, #4]
     bce:	8a93      	ldrh	r3, [r2, #20]
     bd0:	f043 0308 	orr.w	r3, r3, #8
     bd4:	8293      	strh	r3, [r2, #20]
     bd6:	687a      	ldr	r2, [r7, #4]
     bd8:	8a93      	ldrh	r3, [r2, #20]
     bda:	f443 6300 	orr.w	r3, r3, #2048	@ 0x800
     bde:	8293      	strh	r3, [r2, #20]
     be0:	683b      	ldr	r3, [r7, #0]
     be2:	68db      	ldr	r3, [r3, #12]
     be4:	781b      	ldrb	r3, [r3, #0]
     be6:	2b00      	cmp	r3, #0
     be8:	d002      	beq.n	bf0 <Mfs_I2c_Init+0x14c>
     bea:	2b01      	cmp	r3, #1
     bec:	d006      	beq.n	bfc <Mfs_I2c_Init+0x158>
     bee:	e00b      	b.n	c08 <Mfs_I2c_Init+0x164>
     bf0:	687a      	ldr	r2, [r7, #4]
     bf2:	8a93      	ldrh	r3, [r2, #20]
     bf4:	f423 7380 	bic.w	r3, r3, #256	@ 0x100
     bf8:	8293      	strh	r3, [r2, #20]
     bfa:	e007      	b.n	c0c <Mfs_I2c_Init+0x168>
     bfc:	687a      	ldr	r2, [r7, #4]
     bfe:	8a93      	ldrh	r3, [r2, #20]
     c00:	f443 7380 	orr.w	r3, r3, #256	@ 0x100
     c04:	8293      	strh	r3, [r2, #20]
     c06:	e001      	b.n	c0c <Mfs_I2c_Init+0x168>
     c08:	2304      	movs	r3, #4
     c0a:	e014      	b.n	c36 <Mfs_I2c_Init+0x192>
     c0c:	683b      	ldr	r3, [r7, #0]
     c0e:	68db      	ldr	r3, [r3, #12]
     c10:	785a      	ldrb	r2, [r3, #1]
     c12:	687b      	ldr	r3, [r7, #4]
     c14:	761a      	strb	r2, [r3, #24]
     c16:	683b      	ldr	r3, [r7, #0]
     c18:	68db      	ldr	r3, [r3, #12]
     c1a:	789a      	ldrb	r2, [r3, #2]
     c1c:	687b      	ldr	r3, [r7, #4]
     c1e:	765a      	strb	r2, [r3, #25]
     c20:	687a      	ldr	r2, [r7, #4]
     c22:	8a93      	ldrh	r3, [r2, #20]
     c24:	f043 0301 	orr.w	r3, r3, #1
     c28:	8293      	strh	r3, [r2, #20]
     c2a:	687a      	ldr	r2, [r7, #4]
     c2c:	8a93      	ldrh	r3, [r2, #20]
     c2e:	f043 0302 	orr.w	r3, r3, #2
     c32:	8293      	strh	r3, [r2, #20]
     c34:	2300      	movs	r3, #0
     c36:	4618      	mov	r0, r3
     c38:	3720      	adds	r7, #32
     c3a:	46bd      	mov	sp, r7
     c3c:	bd80      	pop	{r7, pc}
	...

00000c40 <Mfs_I2c_SetBaudRate>:
     c40:	b580      	push	{r7, lr}
     c42:	b084      	sub	sp, #16
     c44:	af00      	add	r7, sp, #0
     c46:	6078      	str	r0, [r7, #4]
     c48:	6039      	str	r1, [r7, #0]
     c4a:	2300      	movs	r3, #0
     c4c:	73fb      	strb	r3, [r7, #15]
     c4e:	f7ff fb6b 	bl	328 <SystemCoreClockUpdate>
     c52:	687b      	ldr	r3, [r7, #4]
     c54:	2b00      	cmp	r3, #0
     c56:	d003      	beq.n	c60 <Mfs_I2c_SetBaudRate+0x20>
     c58:	683b      	ldr	r3, [r7, #0]
     c5a:	4a1b      	ldr	r2, [pc, #108]	@ (cc8 <Mfs_I2c_SetBaudRate+0x88>)
     c5c:	4293      	cmp	r3, r2
     c5e:	d901      	bls.n	c64 <Mfs_I2c_SetBaudRate+0x24>
     c60:	2304      	movs	r3, #4
     c62:	e02c      	b.n	cbe <Mfs_I2c_SetBaudRate+0x7e>
     c64:	687b      	ldr	r3, [r7, #4]
     c66:	7c5b      	ldrb	r3, [r3, #17]
     c68:	f3c3 13c0 	ubfx	r3, r3, #7, #1
     c6c:	b2db      	uxtb	r3, r3
     c6e:	73fb      	strb	r3, [r7, #15]
     c70:	687a      	ldr	r2, [r7, #4]
     c72:	7c53      	ldrb	r3, [r2, #17]
     c74:	f043 0380 	orr.w	r3, r3, #128	@ 0x80
     c78:	7453      	strb	r3, [r2, #17]
     c7a:	4b14      	ldr	r3, [pc, #80]	@ (ccc <Mfs_I2c_SetBaudRate+0x8c>)
     c7c:	681a      	ldr	r2, [r3, #0]
     c7e:	4b14      	ldr	r3, [pc, #80]	@ (cd0 <Mfs_I2c_SetBaudRate+0x90>)
     c80:	69db      	ldr	r3, [r3, #28]
     c82:	f003 0303 	and.w	r3, r3, #3
     c86:	fa22 f303 	lsr.w	r3, r2, r3
     c8a:	60bb      	str	r3, [r7, #8]
     c8c:	68ba      	ldr	r2, [r7, #8]
     c8e:	683b      	ldr	r3, [r7, #0]
     c90:	fbb2 f3f3 	udiv	r3, r2, r3
     c94:	b29b      	uxth	r3, r3
     c96:	3b01      	subs	r3, #1
     c98:	b29b      	uxth	r3, r3
     c9a:	f3c3 030e 	ubfx	r3, r3, #0, #15
     c9e:	b299      	uxth	r1, r3
     ca0:	687a      	ldr	r2, [r7, #4]
     ca2:	8993      	ldrh	r3, [r2, #12]
     ca4:	f361 030e 	bfi	r3, r1, #0, #15
     ca8:	8193      	strh	r3, [r2, #12]
     caa:	7bfb      	ldrb	r3, [r7, #15]
     cac:	f003 0301 	and.w	r3, r3, #1
     cb0:	b2d9      	uxtb	r1, r3
     cb2:	687a      	ldr	r2, [r7, #4]
     cb4:	7c53      	ldrb	r3, [r2, #17]
     cb6:	f361 13c7 	bfi	r3, r1, #7, #1
     cba:	7453      	strb	r3, [r2, #17]
     cbc:	2300      	movs	r3, #0
     cbe:	4618      	mov	r0, r3
     cc0:	3710      	adds	r7, #16
     cc2:	46bd      	mov	sp, r7
     cc4:	bd80      	pop	{r7, pc}
     cc6:	bf00      	nop
     cc8:	00061a80 	.word	0x00061a80
     ccc:	1ffd0000 	.word	0x1ffd0000
     cd0:	40010000 	.word	0x40010000

00000cd4 <Mfs_I2c_GenerateStart>:
     cd4:	b480      	push	{r7}
     cd6:	b085      	sub	sp, #20
     cd8:	af00      	add	r7, sp, #0
     cda:	6078      	str	r0, [r7, #4]
     cdc:	4b14      	ldr	r3, [pc, #80]	@ (d30 <Mfs_I2c_GenerateStart+0x5c>)
     cde:	681b      	ldr	r3, [r3, #0]
     ce0:	60fb      	str	r3, [r7, #12]
     ce2:	687b      	ldr	r3, [r7, #4]
     ce4:	2b00      	cmp	r3, #0
     ce6:	d101      	bne.n	cec <Mfs_I2c_GenerateStart+0x18>
     ce8:	2304      	movs	r3, #4
     cea:	e01b      	b.n	d24 <Mfs_I2c_GenerateStart+0x50>
     cec:	687a      	ldr	r2, [r7, #4]
     cee:	7853      	ldrb	r3, [r2, #1]
     cf0:	f043 0380 	orr.w	r3, r3, #128	@ 0x80
     cf4:	7053      	strb	r3, [r2, #1]
     cf6:	e00f      	b.n	d18 <Mfs_I2c_GenerateStart+0x44>
     cf8:	687b      	ldr	r3, [r7, #4]
     cfa:	785b      	ldrb	r3, [r3, #1]
     cfc:	f3c3 13c0 	ubfx	r3, r3, #7, #1
     d00:	b2db      	uxtb	r3, r3
     d02:	2b01      	cmp	r3, #1
     d04:	d108      	bne.n	d18 <Mfs_I2c_GenerateStart+0x44>
     d06:	687b      	ldr	r3, [r7, #4]
     d08:	785b      	ldrb	r3, [r3, #1]
     d0a:	f3c3 1380 	ubfx	r3, r3, #6, #1
     d0e:	b2db      	uxtb	r3, r3
     d10:	2b01      	cmp	r3, #1
     d12:	d101      	bne.n	d18 <Mfs_I2c_GenerateStart+0x44>
     d14:	2300      	movs	r3, #0
     d16:	e005      	b.n	d24 <Mfs_I2c_GenerateStart+0x50>
     d18:	68fb      	ldr	r3, [r7, #12]
     d1a:	1e5a      	subs	r2, r3, #1
     d1c:	60fa      	str	r2, [r7, #12]
     d1e:	2b00      	cmp	r3, #0
     d20:	d1ea      	bne.n	cf8 <Mfs_I2c_GenerateStart+0x24>
     d22:	2309      	movs	r3, #9
     d24:	4618      	mov	r0, r3
     d26:	3714      	adds	r7, #20
     d28:	46bd      	mov	sp, r7
     d2a:	f85d 7b04 	ldr.w	r7, [sp], #4
     d2e:	4770      	bx	lr
     d30:	1ffd0000 	.word	0x1ffd0000

00000d34 <Mfs_I2c_GenerateStop>:
     d34:	b480      	push	{r7}
     d36:	b085      	sub	sp, #20
     d38:	af00      	add	r7, sp, #0
     d3a:	6078      	str	r0, [r7, #4]
     d3c:	4b15      	ldr	r3, [pc, #84]	@ (d94 <Mfs_I2c_GenerateStop+0x60>)
     d3e:	681b      	ldr	r3, [r3, #0]
     d40:	60fb      	str	r3, [r7, #12]
     d42:	687b      	ldr	r3, [r7, #4]
     d44:	2b00      	cmp	r3, #0
     d46:	d119      	bne.n	d7c <Mfs_I2c_GenerateStop+0x48>
     d48:	2304      	movs	r3, #4
     d4a:	e01d      	b.n	d88 <Mfs_I2c_GenerateStop+0x54>
     d4c:	687b      	ldr	r3, [r7, #4]
     d4e:	785b      	ldrb	r3, [r3, #1]
     d50:	b2db      	uxtb	r3, r3
     d52:	f003 033e 	and.w	r3, r3, #62	@ 0x3e
     d56:	b2da      	uxtb	r2, r3
     d58:	687b      	ldr	r3, [r7, #4]
     d5a:	705a      	strb	r2, [r3, #1]
     d5c:	687b      	ldr	r3, [r7, #4]
     d5e:	785b      	ldrb	r3, [r3, #1]
     d60:	f3c3 13c0 	ubfx	r3, r3, #7, #1
     d64:	b2db      	uxtb	r3, r3
     d66:	2b00      	cmp	r3, #0
     d68:	d108      	bne.n	d7c <Mfs_I2c_GenerateStop+0x48>
     d6a:	687b      	ldr	r3, [r7, #4]
     d6c:	785b      	ldrb	r3, [r3, #1]
     d6e:	f3c3 1380 	ubfx	r3, r3, #6, #1
     d72:	b2db      	uxtb	r3, r3
     d74:	2b00      	cmp	r3, #0
     d76:	d101      	bne.n	d7c <Mfs_I2c_GenerateStop+0x48>
     d78:	2300      	movs	r3, #0
     d7a:	e005      	b.n	d88 <Mfs_I2c_GenerateStop+0x54>
     d7c:	68fb      	ldr	r3, [r7, #12]
     d7e:	1e5a      	subs	r2, r3, #1
     d80:	60fa      	str	r2, [r7, #12]
     d82:	2b00      	cmp	r3, #0
     d84:	d1e2      	bne.n	d4c <Mfs_I2c_GenerateStop+0x18>
     d86:	2309      	movs	r3, #9
     d88:	4618      	mov	r0, r3
     d8a:	3714      	adds	r7, #20
     d8c:	46bd      	mov	sp, r7
     d8e:	f85d 7b04 	ldr.w	r7, [sp], #4
     d92:	4770      	bx	lr
     d94:	1ffd0000 	.word	0x1ffd0000

00000d98 <Mfs_I2c_SendData>:
     d98:	b480      	push	{r7}
     d9a:	b083      	sub	sp, #12
     d9c:	af00      	add	r7, sp, #0
     d9e:	6078      	str	r0, [r7, #4]
     da0:	460b      	mov	r3, r1
     da2:	70fb      	strb	r3, [r7, #3]
     da4:	687b      	ldr	r3, [r7, #4]
     da6:	2b00      	cmp	r3, #0
     da8:	d101      	bne.n	dae <Mfs_I2c_SendData+0x16>
     daa:	2304      	movs	r3, #4
     dac:	e004      	b.n	db8 <Mfs_I2c_SendData+0x20>
     dae:	78fb      	ldrb	r3, [r7, #3]
     db0:	b29a      	uxth	r2, r3
     db2:	687b      	ldr	r3, [r7, #4]
     db4:	811a      	strh	r2, [r3, #8]
     db6:	2300      	movs	r3, #0
     db8:	4618      	mov	r0, r3
     dba:	370c      	adds	r7, #12
     dbc:	46bd      	mov	sp, r7
     dbe:	f85d 7b04 	ldr.w	r7, [sp], #4
     dc2:	4770      	bx	lr

00000dc4 <Mfs_I2c_ConfigAck>:
     dc4:	b480      	push	{r7}
     dc6:	b085      	sub	sp, #20
     dc8:	af00      	add	r7, sp, #0
     dca:	6078      	str	r0, [r7, #4]
     dcc:	460b      	mov	r3, r1
     dce:	70fb      	strb	r3, [r7, #3]
     dd0:	687b      	ldr	r3, [r7, #4]
     dd2:	785b      	ldrb	r3, [r3, #1]
     dd4:	733b      	strb	r3, [r7, #12]
     dd6:	687b      	ldr	r3, [r7, #4]
     dd8:	2b00      	cmp	r3, #0
     dda:	d101      	bne.n	de0 <Mfs_I2c_ConfigAck+0x1c>
     ddc:	2304      	movs	r3, #4
     dde:	e015      	b.n	e0c <Mfs_I2c_ConfigAck+0x48>
     de0:	78fb      	ldrb	r3, [r7, #3]
     de2:	2b00      	cmp	r3, #0
     de4:	d105      	bne.n	df2 <Mfs_I2c_ConfigAck+0x2e>
     de6:	2201      	movs	r2, #1
     de8:	7b3b      	ldrb	r3, [r7, #12]
     dea:	f362 1345 	bfi	r3, r2, #5, #1
     dee:	733b      	strb	r3, [r7, #12]
     df0:	e004      	b.n	dfc <Mfs_I2c_ConfigAck+0x38>
     df2:	2200      	movs	r2, #0
     df4:	7b3b      	ldrb	r3, [r7, #12]
     df6:	f362 1345 	bfi	r3, r2, #5, #1
     dfa:	733b      	strb	r3, [r7, #12]
     dfc:	7b3b      	ldrb	r3, [r7, #12]
     dfe:	f023 0340 	bic.w	r3, r3, #64	@ 0x40
     e02:	733b      	strb	r3, [r7, #12]
     e04:	687b      	ldr	r3, [r7, #4]
     e06:	7b3a      	ldrb	r2, [r7, #12]
     e08:	705a      	strb	r2, [r3, #1]
     e0a:	2300      	movs	r3, #0
     e0c:	4618      	mov	r0, r3
     e0e:	3714      	adds	r7, #20
     e10:	46bd      	mov	sp, r7
     e12:	f85d 7b04 	ldr.w	r7, [sp], #4
     e16:	4770      	bx	lr

00000e18 <Mfs_I2c_GetAck>:
     e18:	b480      	push	{r7}
     e1a:	b085      	sub	sp, #20
     e1c:	af00      	add	r7, sp, #0
     e1e:	6078      	str	r0, [r7, #4]
     e20:	687b      	ldr	r3, [r7, #4]
     e22:	791b      	ldrb	r3, [r3, #4]
     e24:	f3c3 1380 	ubfx	r3, r3, #6, #1
     e28:	b2db      	uxtb	r3, r3
     e2a:	73fb      	strb	r3, [r7, #15]
     e2c:	7bfb      	ldrb	r3, [r7, #15]
     e2e:	4618      	mov	r0, r3
     e30:	3714      	adds	r7, #20
     e32:	46bd      	mov	sp, r7
     e34:	f85d 7b04 	ldr.w	r7, [sp], #4
     e38:	4770      	bx	lr
	...

00000e3c <Mfs_I2c_GetStatus>:
     e3c:	b480      	push	{r7}
     e3e:	b085      	sub	sp, #20
     e40:	af00      	add	r7, sp, #0
     e42:	6078      	str	r0, [r7, #4]
     e44:	460b      	mov	r3, r1
     e46:	70fb      	strb	r3, [r7, #3]
     e48:	2300      	movs	r3, #0
     e4a:	73fb      	strb	r3, [r7, #15]
     e4c:	78fb      	ldrb	r3, [r7, #3]
     e4e:	2b0b      	cmp	r3, #11
     e50:	d87b      	bhi.n	f4a <Mfs_I2c_GetStatus+0x10e>
     e52:	a201      	add	r2, pc, #4	@ (adr r2, e58 <Mfs_I2c_GetStatus+0x1c>)
     e54:	f852 f023 	ldr.w	pc, [r2, r3, lsl #2]
     e58:	00000e89 	.word	0x00000e89
     e5c:	00000e97 	.word	0x00000e97
     e60:	00000ea5 	.word	0x00000ea5
     e64:	00000eb3 	.word	0x00000eb3
     e68:	00000ec1 	.word	0x00000ec1
     e6c:	00000ecf 	.word	0x00000ecf
     e70:	00000edd 	.word	0x00000edd
     e74:	00000eeb 	.word	0x00000eeb
     e78:	00000ef9 	.word	0x00000ef9
     e7c:	00000f07 	.word	0x00000f07
     e80:	00000f15 	.word	0x00000f15
     e84:	00000f23 	.word	0x00000f23
     e88:	687b      	ldr	r3, [r7, #4]
     e8a:	795b      	ldrb	r3, [r3, #5]
     e8c:	f3c3 03c0 	ubfx	r3, r3, #3, #1
     e90:	b2db      	uxtb	r3, r3
     e92:	73fb      	strb	r3, [r7, #15]
     e94:	e05a      	b.n	f4c <Mfs_I2c_GetStatus+0x110>
     e96:	687b      	ldr	r3, [r7, #4]
     e98:	795b      	ldrb	r3, [r3, #5]
     e9a:	f3c3 0380 	ubfx	r3, r3, #2, #1
     e9e:	b2db      	uxtb	r3, r3
     ea0:	73fb      	strb	r3, [r7, #15]
     ea2:	e053      	b.n	f4c <Mfs_I2c_GetStatus+0x110>
     ea4:	687b      	ldr	r3, [r7, #4]
     ea6:	795b      	ldrb	r3, [r3, #5]
     ea8:	f3c3 0340 	ubfx	r3, r3, #1, #1
     eac:	b2db      	uxtb	r3, r3
     eae:	73fb      	strb	r3, [r7, #15]
     eb0:	e04c      	b.n	f4c <Mfs_I2c_GetStatus+0x110>
     eb2:	687b      	ldr	r3, [r7, #4]
     eb4:	795b      	ldrb	r3, [r3, #5]
     eb6:	f3c3 0300 	ubfx	r3, r3, #0, #1
     eba:	b2db      	uxtb	r3, r3
     ebc:	73fb      	strb	r3, [r7, #15]
     ebe:	e045      	b.n	f4c <Mfs_I2c_GetStatus+0x110>
     ec0:	687b      	ldr	r3, [r7, #4]
     ec2:	8a9b      	ldrh	r3, [r3, #20]
     ec4:	f3c3 2380 	ubfx	r3, r3, #10, #1
     ec8:	b2db      	uxtb	r3, r3
     eca:	73fb      	strb	r3, [r7, #15]
     ecc:	e03e      	b.n	f4c <Mfs_I2c_GetStatus+0x110>
     ece:	687b      	ldr	r3, [r7, #4]
     ed0:	791b      	ldrb	r3, [r3, #4]
     ed2:	f3c3 13c0 	ubfx	r3, r3, #7, #1
     ed6:	b2db      	uxtb	r3, r3
     ed8:	73fb      	strb	r3, [r7, #15]
     eda:	e037      	b.n	f4c <Mfs_I2c_GetStatus+0x110>
     edc:	687b      	ldr	r3, [r7, #4]
     ede:	791b      	ldrb	r3, [r3, #4]
     ee0:	f3c3 1340 	ubfx	r3, r3, #5, #1
     ee4:	b2db      	uxtb	r3, r3
     ee6:	73fb      	strb	r3, [r7, #15]
     ee8:	e030      	b.n	f4c <Mfs_I2c_GetStatus+0x110>
     eea:	687b      	ldr	r3, [r7, #4]
     eec:	791b      	ldrb	r3, [r3, #4]
     eee:	f3c3 0340 	ubfx	r3, r3, #1, #1
     ef2:	b2db      	uxtb	r3, r3
     ef4:	73fb      	strb	r3, [r7, #15]
     ef6:	e029      	b.n	f4c <Mfs_I2c_GetStatus+0x110>
     ef8:	687b      	ldr	r3, [r7, #4]
     efa:	791b      	ldrb	r3, [r3, #4]
     efc:	f3c3 0300 	ubfx	r3, r3, #0, #1
     f00:	b2db      	uxtb	r3, r3
     f02:	73fb      	strb	r3, [r7, #15]
     f04:	e022      	b.n	f4c <Mfs_I2c_GetStatus+0x110>
     f06:	687b      	ldr	r3, [r7, #4]
     f08:	785b      	ldrb	r3, [r3, #1]
     f0a:	f3c3 0340 	ubfx	r3, r3, #1, #1
     f0e:	b2db      	uxtb	r3, r3
     f10:	73fb      	strb	r3, [r7, #15]
     f12:	e01b      	b.n	f4c <Mfs_I2c_GetStatus+0x110>
     f14:	687b      	ldr	r3, [r7, #4]
     f16:	785b      	ldrb	r3, [r3, #1]
     f18:	f3c3 0300 	ubfx	r3, r3, #0, #1
     f1c:	b2db      	uxtb	r3, r3
     f1e:	73fb      	strb	r3, [r7, #15]
     f20:	e014      	b.n	f4c <Mfs_I2c_GetStatus+0x110>
     f22:	687b      	ldr	r3, [r7, #4]
     f24:	785b      	ldrb	r3, [r3, #1]
     f26:	f3c3 13c0 	ubfx	r3, r3, #7, #1
     f2a:	b2db      	uxtb	r3, r3
     f2c:	2b00      	cmp	r3, #0
     f2e:	d109      	bne.n	f44 <Mfs_I2c_GetStatus+0x108>
     f30:	687b      	ldr	r3, [r7, #4]
     f32:	785b      	ldrb	r3, [r3, #1]
     f34:	f3c3 1380 	ubfx	r3, r3, #6, #1
     f38:	b2db      	uxtb	r3, r3
     f3a:	2b01      	cmp	r3, #1
     f3c:	d102      	bne.n	f44 <Mfs_I2c_GetStatus+0x108>
     f3e:	2301      	movs	r3, #1
     f40:	73fb      	strb	r3, [r7, #15]
     f42:	e003      	b.n	f4c <Mfs_I2c_GetStatus+0x110>
     f44:	2300      	movs	r3, #0
     f46:	73fb      	strb	r3, [r7, #15]
     f48:	e000      	b.n	f4c <Mfs_I2c_GetStatus+0x110>
     f4a:	bf00      	nop
     f4c:	7bfb      	ldrb	r3, [r7, #15]
     f4e:	4618      	mov	r0, r3
     f50:	3714      	adds	r7, #20
     f52:	46bd      	mov	sp, r7
     f54:	f85d 7b04 	ldr.w	r7, [sp], #4
     f58:	4770      	bx	lr
     f5a:	bf00      	nop

00000f5c <Mfs_I2c_ClrStatus>:
     f5c:	b480      	push	{r7}
     f5e:	b083      	sub	sp, #12
     f60:	af00      	add	r7, sp, #0
     f62:	6078      	str	r0, [r7, #4]
     f64:	460b      	mov	r3, r1
     f66:	70fb      	strb	r3, [r7, #3]
     f68:	687b      	ldr	r3, [r7, #4]
     f6a:	2b00      	cmp	r3, #0
     f6c:	d101      	bne.n	f72 <Mfs_I2c_ClrStatus+0x16>
     f6e:	2304      	movs	r3, #4
     f70:	e03d      	b.n	fee <Mfs_I2c_ClrStatus+0x92>
     f72:	78fb      	ldrb	r3, [r7, #3]
     f74:	2b0b      	cmp	r3, #11
     f76:	d836      	bhi.n	fe6 <Mfs_I2c_ClrStatus+0x8a>
     f78:	a201      	add	r2, pc, #4	@ (adr r2, f80 <Mfs_I2c_ClrStatus+0x24>)
     f7a:	f852 f023 	ldr.w	pc, [r2, r3, lsl #2]
     f7e:	bf00      	nop
     f80:	00000fb1 	.word	0x00000fb1
     f84:	00000feb 	.word	0x00000feb
     f88:	00000feb 	.word	0x00000feb
     f8c:	00000feb 	.word	0x00000feb
     f90:	00000fbd 	.word	0x00000fbd
     f94:	00000feb 	.word	0x00000feb
     f98:	00000feb 	.word	0x00000feb
     f9c:	00000fc9 	.word	0x00000fc9
     fa0:	00000feb 	.word	0x00000feb
     fa4:	00000feb 	.word	0x00000feb
     fa8:	00000fd5 	.word	0x00000fd5
     fac:	00000feb 	.word	0x00000feb
     fb0:	687a      	ldr	r2, [r7, #4]
     fb2:	7953      	ldrb	r3, [r2, #5]
     fb4:	f043 0380 	orr.w	r3, r3, #128	@ 0x80
     fb8:	7153      	strb	r3, [r2, #5]
     fba:	e017      	b.n	fec <Mfs_I2c_ClrStatus+0x90>
     fbc:	687a      	ldr	r2, [r7, #4]
     fbe:	8a93      	ldrh	r3, [r2, #20]
     fc0:	f423 6380 	bic.w	r3, r3, #1024	@ 0x400
     fc4:	8293      	strh	r3, [r2, #20]
     fc6:	e011      	b.n	fec <Mfs_I2c_ClrStatus+0x90>
     fc8:	687a      	ldr	r2, [r7, #4]
     fca:	7913      	ldrb	r3, [r2, #4]
     fcc:	f023 0302 	bic.w	r3, r3, #2
     fd0:	7113      	strb	r3, [r2, #4]
     fd2:	e00b      	b.n	fec <Mfs_I2c_ClrStatus+0x90>
     fd4:	687b      	ldr	r3, [r7, #4]
     fd6:	785b      	ldrb	r3, [r3, #1]
     fd8:	b2db      	uxtb	r3, r3
     fda:	f023 0341 	bic.w	r3, r3, #65	@ 0x41
     fde:	b2da      	uxtb	r2, r3
     fe0:	687b      	ldr	r3, [r7, #4]
     fe2:	705a      	strb	r2, [r3, #1]
     fe4:	e002      	b.n	fec <Mfs_I2c_ClrStatus+0x90>
     fe6:	2304      	movs	r3, #4
     fe8:	e001      	b.n	fee <Mfs_I2c_ClrStatus+0x92>
     fea:	bf00      	nop
     fec:	2300      	movs	r3, #0
     fee:	4618      	mov	r0, r3
     ff0:	370c      	adds	r7, #12
     ff2:	46bd      	mov	sp, r7
     ff4:	f85d 7b04 	ldr.w	r7, [sp], #4
     ff8:	4770      	bx	lr
     ffa:	bf00      	nop

00000ffc <Clk_PeripheralClockEnable>:
     ffc:	b480      	push	{r7}
     ffe:	b083      	sub	sp, #12
    1000:	af00      	add	r7, sp, #0
    1002:	4603      	mov	r3, r0
    1004:	71fb      	strb	r3, [r7, #7]
    1006:	79fb      	ldrb	r3, [r7, #7]
    1008:	2b32      	cmp	r3, #50	@ 0x32
    100a:	f200 8121 	bhi.w	1250 <__STACK_SIZE+0x250>
    100e:	a201      	add	r2, pc, #4	@ (adr r2, 1014 <__STACK_SIZE+0x14>)
    1010:	f852 f023 	ldr.w	pc, [r2, r3, lsl #2]
    1014:	000010e1 	.word	0x000010e1
    1018:	000011f1 	.word	0x000011f1
    101c:	000010e9 	.word	0x000010e9
    1020:	000010f1 	.word	0x000010f1
    1024:	000010f9 	.word	0x000010f9
    1028:	00001101 	.word	0x00001101
    102c:	00001109 	.word	0x00001109
    1030:	00001111 	.word	0x00001111
    1034:	00001119 	.word	0x00001119
    1038:	00001121 	.word	0x00001121
    103c:	00001129 	.word	0x00001129
    1040:	00001131 	.word	0x00001131
    1044:	00001139 	.word	0x00001139
    1048:	00001141 	.word	0x00001141
    104c:	00001149 	.word	0x00001149
    1050:	00001151 	.word	0x00001151
    1054:	00001159 	.word	0x00001159
    1058:	00001161 	.word	0x00001161
    105c:	00001169 	.word	0x00001169
    1060:	00001171 	.word	0x00001171
    1064:	00001179 	.word	0x00001179
    1068:	00001181 	.word	0x00001181
    106c:	00001189 	.word	0x00001189
    1070:	00001191 	.word	0x00001191
    1074:	00001199 	.word	0x00001199
    1078:	000011a1 	.word	0x000011a1
    107c:	000011a9 	.word	0x000011a9
    1080:	000011b1 	.word	0x000011b1
    1084:	000011b9 	.word	0x000011b9
    1088:	000011c1 	.word	0x000011c1
    108c:	000011c9 	.word	0x000011c9
    1090:	000011d1 	.word	0x000011d1
    1094:	000011d9 	.word	0x000011d9
    1098:	000011e1 	.word	0x000011e1
    109c:	000011e9 	.word	0x000011e9
    10a0:	00001255 	.word	0x00001255
    10a4:	00001241 	.word	0x00001241
    10a8:	00001249 	.word	0x00001249
    10ac:	00001239 	.word	0x00001239
    10b0:	00001229 	.word	0x00001229
    10b4:	00001231 	.word	0x00001231
    10b8:	00001221 	.word	0x00001221
    10bc:	00001209 	.word	0x00001209
    10c0:	00001211 	.word	0x00001211
    10c4:	00001219 	.word	0x00001219
    10c8:	000011f9 	.word	0x000011f9
    10cc:	00001201 	.word	0x00001201
    10d0:	00001255 	.word	0x00001255
    10d4:	00001255 	.word	0x00001255
    10d8:	00001255 	.word	0x00001255
    10dc:	00001255 	.word	0x00001255
    10e0:	4b60      	ldr	r3, [pc, #384]	@ (1264 <__STACK_SIZE+0x264>)
    10e2:	2201      	movs	r2, #1
    10e4:	701a      	strb	r2, [r3, #0]
    10e6:	e0b6      	b.n	1256 <__STACK_SIZE+0x256>
    10e8:	4b5f      	ldr	r3, [pc, #380]	@ (1268 <__STACK_SIZE+0x268>)
    10ea:	2201      	movs	r2, #1
    10ec:	701a      	strb	r2, [r3, #0]
    10ee:	e0b2      	b.n	1256 <__STACK_SIZE+0x256>
    10f0:	4b5e      	ldr	r3, [pc, #376]	@ (126c <__STACK_SIZE+0x26c>)
    10f2:	2201      	movs	r2, #1
    10f4:	701a      	strb	r2, [r3, #0]
    10f6:	e0ae      	b.n	1256 <__STACK_SIZE+0x256>
    10f8:	4b5d      	ldr	r3, [pc, #372]	@ (1270 <__STACK_SIZE+0x270>)
    10fa:	2201      	movs	r2, #1
    10fc:	701a      	strb	r2, [r3, #0]
    10fe:	e0aa      	b.n	1256 <__STACK_SIZE+0x256>
    1100:	4b5c      	ldr	r3, [pc, #368]	@ (1274 <__STACK_SIZE+0x274>)
    1102:	2201      	movs	r2, #1
    1104:	701a      	strb	r2, [r3, #0]
    1106:	e0a6      	b.n	1256 <__STACK_SIZE+0x256>
    1108:	4b5b      	ldr	r3, [pc, #364]	@ (1278 <__STACK_SIZE+0x278>)
    110a:	2201      	movs	r2, #1
    110c:	701a      	strb	r2, [r3, #0]
    110e:	e0a2      	b.n	1256 <__STACK_SIZE+0x256>
    1110:	4b5a      	ldr	r3, [pc, #360]	@ (127c <__STACK_SIZE+0x27c>)
    1112:	2201      	movs	r2, #1
    1114:	701a      	strb	r2, [r3, #0]
    1116:	e09e      	b.n	1256 <__STACK_SIZE+0x256>
    1118:	4b59      	ldr	r3, [pc, #356]	@ (1280 <__STACK_SIZE+0x280>)
    111a:	2201      	movs	r2, #1
    111c:	701a      	strb	r2, [r3, #0]
    111e:	e09a      	b.n	1256 <__STACK_SIZE+0x256>
    1120:	4b58      	ldr	r3, [pc, #352]	@ (1284 <__STACK_SIZE+0x284>)
    1122:	2201      	movs	r2, #1
    1124:	701a      	strb	r2, [r3, #0]
    1126:	e096      	b.n	1256 <__STACK_SIZE+0x256>
    1128:	4b57      	ldr	r3, [pc, #348]	@ (1288 <__STACK_SIZE+0x288>)
    112a:	2201      	movs	r2, #1
    112c:	701a      	strb	r2, [r3, #0]
    112e:	e092      	b.n	1256 <__STACK_SIZE+0x256>
    1130:	4b56      	ldr	r3, [pc, #344]	@ (128c <__STACK_SIZE+0x28c>)
    1132:	2201      	movs	r2, #1
    1134:	701a      	strb	r2, [r3, #0]
    1136:	e08e      	b.n	1256 <__STACK_SIZE+0x256>
    1138:	4b55      	ldr	r3, [pc, #340]	@ (1290 <__STACK_SIZE+0x290>)
    113a:	2201      	movs	r2, #1
    113c:	701a      	strb	r2, [r3, #0]
    113e:	e08a      	b.n	1256 <__STACK_SIZE+0x256>
    1140:	4b54      	ldr	r3, [pc, #336]	@ (1294 <__STACK_SIZE+0x294>)
    1142:	2201      	movs	r2, #1
    1144:	701a      	strb	r2, [r3, #0]
    1146:	e086      	b.n	1256 <__STACK_SIZE+0x256>
    1148:	4b53      	ldr	r3, [pc, #332]	@ (1298 <__STACK_SIZE+0x298>)
    114a:	2201      	movs	r2, #1
    114c:	701a      	strb	r2, [r3, #0]
    114e:	e082      	b.n	1256 <__STACK_SIZE+0x256>
    1150:	4b52      	ldr	r3, [pc, #328]	@ (129c <__STACK_SIZE+0x29c>)
    1152:	2201      	movs	r2, #1
    1154:	701a      	strb	r2, [r3, #0]
    1156:	e07e      	b.n	1256 <__STACK_SIZE+0x256>
    1158:	4b51      	ldr	r3, [pc, #324]	@ (12a0 <__STACK_SIZE+0x2a0>)
    115a:	2201      	movs	r2, #1
    115c:	701a      	strb	r2, [r3, #0]
    115e:	e07a      	b.n	1256 <__STACK_SIZE+0x256>
    1160:	4b50      	ldr	r3, [pc, #320]	@ (12a4 <__STACK_SIZE+0x2a4>)
    1162:	2201      	movs	r2, #1
    1164:	701a      	strb	r2, [r3, #0]
    1166:	e076      	b.n	1256 <__STACK_SIZE+0x256>
    1168:	4b4f      	ldr	r3, [pc, #316]	@ (12a8 <__STACK_SIZE+0x2a8>)
    116a:	2201      	movs	r2, #1
    116c:	701a      	strb	r2, [r3, #0]
    116e:	e072      	b.n	1256 <__STACK_SIZE+0x256>
    1170:	4b4e      	ldr	r3, [pc, #312]	@ (12ac <__STACK_SIZE+0x2ac>)
    1172:	2201      	movs	r2, #1
    1174:	701a      	strb	r2, [r3, #0]
    1176:	e06e      	b.n	1256 <__STACK_SIZE+0x256>
    1178:	4b4d      	ldr	r3, [pc, #308]	@ (12b0 <__STACK_SIZE+0x2b0>)
    117a:	2201      	movs	r2, #1
    117c:	701a      	strb	r2, [r3, #0]
    117e:	e06a      	b.n	1256 <__STACK_SIZE+0x256>
    1180:	4b4c      	ldr	r3, [pc, #304]	@ (12b4 <__STACK_SIZE+0x2b4>)
    1182:	2201      	movs	r2, #1
    1184:	701a      	strb	r2, [r3, #0]
    1186:	e066      	b.n	1256 <__STACK_SIZE+0x256>
    1188:	4b4b      	ldr	r3, [pc, #300]	@ (12b8 <__STACK_SIZE+0x2b8>)
    118a:	2201      	movs	r2, #1
    118c:	701a      	strb	r2, [r3, #0]
    118e:	e062      	b.n	1256 <__STACK_SIZE+0x256>
    1190:	4b4a      	ldr	r3, [pc, #296]	@ (12bc <__STACK_SIZE+0x2bc>)
    1192:	2201      	movs	r2, #1
    1194:	701a      	strb	r2, [r3, #0]
    1196:	e05e      	b.n	1256 <__STACK_SIZE+0x256>
    1198:	4b49      	ldr	r3, [pc, #292]	@ (12c0 <__STACK_SIZE+0x2c0>)
    119a:	2201      	movs	r2, #1
    119c:	701a      	strb	r2, [r3, #0]
    119e:	e05a      	b.n	1256 <__STACK_SIZE+0x256>
    11a0:	4b48      	ldr	r3, [pc, #288]	@ (12c4 <__STACK_SIZE+0x2c4>)
    11a2:	2201      	movs	r2, #1
    11a4:	701a      	strb	r2, [r3, #0]
    11a6:	e056      	b.n	1256 <__STACK_SIZE+0x256>
    11a8:	4b47      	ldr	r3, [pc, #284]	@ (12c8 <__STACK_SIZE+0x2c8>)
    11aa:	2201      	movs	r2, #1
    11ac:	701a      	strb	r2, [r3, #0]
    11ae:	e052      	b.n	1256 <__STACK_SIZE+0x256>
    11b0:	4b46      	ldr	r3, [pc, #280]	@ (12cc <__STACK_SIZE+0x2cc>)
    11b2:	2201      	movs	r2, #1
    11b4:	701a      	strb	r2, [r3, #0]
    11b6:	e04e      	b.n	1256 <__STACK_SIZE+0x256>
    11b8:	4b45      	ldr	r3, [pc, #276]	@ (12d0 <__STACK_SIZE+0x2d0>)
    11ba:	2201      	movs	r2, #1
    11bc:	701a      	strb	r2, [r3, #0]
    11be:	e04a      	b.n	1256 <__STACK_SIZE+0x256>
    11c0:	4b44      	ldr	r3, [pc, #272]	@ (12d4 <__STACK_SIZE+0x2d4>)
    11c2:	2201      	movs	r2, #1
    11c4:	701a      	strb	r2, [r3, #0]
    11c6:	e046      	b.n	1256 <__STACK_SIZE+0x256>
    11c8:	4b43      	ldr	r3, [pc, #268]	@ (12d8 <__STACK_SIZE+0x2d8>)
    11ca:	2201      	movs	r2, #1
    11cc:	701a      	strb	r2, [r3, #0]
    11ce:	e042      	b.n	1256 <__STACK_SIZE+0x256>
    11d0:	4b42      	ldr	r3, [pc, #264]	@ (12dc <__STACK_SIZE+0x2dc>)
    11d2:	2201      	movs	r2, #1
    11d4:	701a      	strb	r2, [r3, #0]
    11d6:	e03e      	b.n	1256 <__STACK_SIZE+0x256>
    11d8:	4b41      	ldr	r3, [pc, #260]	@ (12e0 <__STACK_SIZE+0x2e0>)
    11da:	2201      	movs	r2, #1
    11dc:	701a      	strb	r2, [r3, #0]
    11de:	e03a      	b.n	1256 <__STACK_SIZE+0x256>
    11e0:	4b40      	ldr	r3, [pc, #256]	@ (12e4 <__STACK_SIZE+0x2e4>)
    11e2:	2201      	movs	r2, #1
    11e4:	701a      	strb	r2, [r3, #0]
    11e6:	e036      	b.n	1256 <__STACK_SIZE+0x256>
    11e8:	4b3f      	ldr	r3, [pc, #252]	@ (12e8 <__STACK_SIZE+0x2e8>)
    11ea:	2201      	movs	r2, #1
    11ec:	701a      	strb	r2, [r3, #0]
    11ee:	e032      	b.n	1256 <__STACK_SIZE+0x256>
    11f0:	4b3e      	ldr	r3, [pc, #248]	@ (12ec <__STACK_SIZE+0x2ec>)
    11f2:	2201      	movs	r2, #1
    11f4:	701a      	strb	r2, [r3, #0]
    11f6:	e02e      	b.n	1256 <__STACK_SIZE+0x256>
    11f8:	4b3d      	ldr	r3, [pc, #244]	@ (12f0 <__STACK_SIZE+0x2f0>)
    11fa:	2201      	movs	r2, #1
    11fc:	701a      	strb	r2, [r3, #0]
    11fe:	e02a      	b.n	1256 <__STACK_SIZE+0x256>
    1200:	4b3c      	ldr	r3, [pc, #240]	@ (12f4 <__STACK_SIZE+0x2f4>)
    1202:	2201      	movs	r2, #1
    1204:	701a      	strb	r2, [r3, #0]
    1206:	e026      	b.n	1256 <__STACK_SIZE+0x256>
    1208:	4b3b      	ldr	r3, [pc, #236]	@ (12f8 <__STACK_SIZE+0x2f8>)
    120a:	2201      	movs	r2, #1
    120c:	701a      	strb	r2, [r3, #0]
    120e:	e022      	b.n	1256 <__STACK_SIZE+0x256>
    1210:	4b3a      	ldr	r3, [pc, #232]	@ (12fc <__STACK_SIZE+0x2fc>)
    1212:	2201      	movs	r2, #1
    1214:	701a      	strb	r2, [r3, #0]
    1216:	e01e      	b.n	1256 <__STACK_SIZE+0x256>
    1218:	4b39      	ldr	r3, [pc, #228]	@ (1300 <__STACK_SIZE+0x300>)
    121a:	2201      	movs	r2, #1
    121c:	701a      	strb	r2, [r3, #0]
    121e:	e01a      	b.n	1256 <__STACK_SIZE+0x256>
    1220:	4b38      	ldr	r3, [pc, #224]	@ (1304 <__STACK_SIZE+0x304>)
    1222:	2201      	movs	r2, #1
    1224:	701a      	strb	r2, [r3, #0]
    1226:	e016      	b.n	1256 <__STACK_SIZE+0x256>
    1228:	4b37      	ldr	r3, [pc, #220]	@ (1308 <__STACK_SIZE+0x308>)
    122a:	2201      	movs	r2, #1
    122c:	701a      	strb	r2, [r3, #0]
    122e:	e012      	b.n	1256 <__STACK_SIZE+0x256>
    1230:	4b36      	ldr	r3, [pc, #216]	@ (130c <__STACK_SIZE+0x30c>)
    1232:	2201      	movs	r2, #1
    1234:	701a      	strb	r2, [r3, #0]
    1236:	e00e      	b.n	1256 <__STACK_SIZE+0x256>
    1238:	4b35      	ldr	r3, [pc, #212]	@ (1310 <__STACK_SIZE+0x310>)
    123a:	2201      	movs	r2, #1
    123c:	701a      	strb	r2, [r3, #0]
    123e:	e00a      	b.n	1256 <__STACK_SIZE+0x256>
    1240:	4b34      	ldr	r3, [pc, #208]	@ (1314 <__STACK_SIZE+0x314>)
    1242:	2201      	movs	r2, #1
    1244:	701a      	strb	r2, [r3, #0]
    1246:	e006      	b.n	1256 <__STACK_SIZE+0x256>
    1248:	4b33      	ldr	r3, [pc, #204]	@ (1318 <__STACK_SIZE+0x318>)
    124a:	2201      	movs	r2, #1
    124c:	701a      	strb	r2, [r3, #0]
    124e:	e002      	b.n	1256 <__STACK_SIZE+0x256>
    1250:	2304      	movs	r3, #4
    1252:	e001      	b.n	1258 <__STACK_SIZE+0x258>
    1254:	bf00      	nop
    1256:	2300      	movs	r3, #0
    1258:	4618      	mov	r0, r3
    125a:	370c      	adds	r7, #12
    125c:	46bd      	mov	sp, r7
    125e:	f85d 7b04 	ldr.w	r7, [sp], #4
    1262:	4770      	bx	lr
    1264:	42782070 	.word	0x42782070
    1268:	42782060 	.word	0x42782060
    126c:	42782040 	.word	0x42782040
    1270:	42782044 	.word	0x42782044
    1274:	42782048 	.word	0x42782048
    1278:	4278204c 	.word	0x4278204c
    127c:	42782000 	.word	0x42782000
    1280:	42782004 	.word	0x42782004
    1284:	42782008 	.word	0x42782008
    1288:	4278200c 	.word	0x4278200c
    128c:	42782010 	.word	0x42782010
    1290:	42782014 	.word	0x42782014
    1294:	42782018 	.word	0x42782018
    1298:	4278201c 	.word	0x4278201c
    129c:	42782020 	.word	0x42782020
    12a0:	42782024 	.word	0x42782024
    12a4:	42782028 	.word	0x42782028
    12a8:	4278202c 	.word	0x4278202c
    12ac:	42782030 	.word	0x42782030
    12b0:	42782034 	.word	0x42782034
    12b4:	42782038 	.word	0x42782038
    12b8:	4278203c 	.word	0x4278203c
    12bc:	42782240 	.word	0x42782240
    12c0:	42782244 	.word	0x42782244
    12c4:	42782248 	.word	0x42782248
    12c8:	4278224c 	.word	0x4278224c
    12cc:	42782220 	.word	0x42782220
    12d0:	42782224 	.word	0x42782224
    12d4:	42782228 	.word	0x42782228
    12d8:	4278222c 	.word	0x4278222c
    12dc:	42782200 	.word	0x42782200
    12e0:	42782204 	.word	0x42782204
    12e4:	42782208 	.word	0x42782208
    12e8:	4278220c 	.word	0x4278220c
    12ec:	42782068 	.word	0x42782068
    12f0:	42782400 	.word	0x42782400
    12f4:	42782404 	.word	0x42782404
    12f8:	42782410 	.word	0x42782410
    12fc:	42782414 	.word	0x42782414
    1300:	42782418 	.word	0x42782418
    1304:	42782420 	.word	0x42782420
    1308:	42782440 	.word	0x42782440
    130c:	42782444 	.word	0x42782444
    1310:	42782450 	.word	0x42782450
    1314:	42782460 	.word	0x42782460
    1318:	42782464 	.word	0x42782464

0000131c <__NVIC_EnableIRQ>:
    131c:	b480      	push	{r7}
    131e:	b083      	sub	sp, #12
    1320:	af00      	add	r7, sp, #0
    1322:	4603      	mov	r3, r0
    1324:	71fb      	strb	r3, [r7, #7]
    1326:	f997 3007 	ldrsb.w	r3, [r7, #7]
    132a:	2b00      	cmp	r3, #0
    132c:	db0b      	blt.n	1346 <__NVIC_EnableIRQ+0x2a>
    132e:	79fb      	ldrb	r3, [r7, #7]
    1330:	f003 021f 	and.w	r2, r3, #31
    1334:	4907      	ldr	r1, [pc, #28]	@ (1354 <__NVIC_EnableIRQ+0x38>)
    1336:	f997 3007 	ldrsb.w	r3, [r7, #7]
    133a:	095b      	lsrs	r3, r3, #5
    133c:	2001      	movs	r0, #1
    133e:	fa00 f202 	lsl.w	r2, r0, r2
    1342:	f841 2023 	str.w	r2, [r1, r3, lsl #2]
    1346:	bf00      	nop
    1348:	370c      	adds	r7, #12
    134a:	46bd      	mov	sp, r7
    134c:	f85d 7b04 	ldr.w	r7, [sp], #4
    1350:	4770      	bx	lr
    1352:	bf00      	nop
    1354:	e000e100 	.word	0xe000e100

00001358 <__NVIC_ClearPendingIRQ>:
    1358:	b480      	push	{r7}
    135a:	b083      	sub	sp, #12
    135c:	af00      	add	r7, sp, #0
    135e:	4603      	mov	r3, r0
    1360:	71fb      	strb	r3, [r7, #7]
    1362:	f997 3007 	ldrsb.w	r3, [r7, #7]
    1366:	2b00      	cmp	r3, #0
    1368:	db0c      	blt.n	1384 <__NVIC_ClearPendingIRQ+0x2c>
    136a:	79fb      	ldrb	r3, [r7, #7]
    136c:	f003 021f 	and.w	r2, r3, #31
    1370:	4907      	ldr	r1, [pc, #28]	@ (1390 <__NVIC_ClearPendingIRQ+0x38>)
    1372:	f997 3007 	ldrsb.w	r3, [r7, #7]
    1376:	095b      	lsrs	r3, r3, #5
    1378:	2001      	movs	r0, #1
    137a:	fa00 f202 	lsl.w	r2, r0, r2
    137e:	3360      	adds	r3, #96	@ 0x60
    1380:	f841 2023 	str.w	r2, [r1, r3, lsl #2]
    1384:	bf00      	nop
    1386:	370c      	adds	r7, #12
    1388:	46bd      	mov	sp, r7
    138a:	f85d 7b04 	ldr.w	r7, [sp], #4
    138e:	4770      	bx	lr
    1390:	e000e100 	.word	0xe000e100

00001394 <__NVIC_SetPriority>:
    1394:	b480      	push	{r7}
    1396:	b083      	sub	sp, #12
    1398:	af00      	add	r7, sp, #0
    139a:	4603      	mov	r3, r0
    139c:	6039      	str	r1, [r7, #0]
    139e:	71fb      	strb	r3, [r7, #7]
    13a0:	f997 3007 	ldrsb.w	r3, [r7, #7]
    13a4:	2b00      	cmp	r3, #0
    13a6:	db0a      	blt.n	13be <__NVIC_SetPriority+0x2a>
    13a8:	683b      	ldr	r3, [r7, #0]
    13aa:	b2da      	uxtb	r2, r3
    13ac:	490c      	ldr	r1, [pc, #48]	@ (13e0 <__NVIC_SetPriority+0x4c>)
    13ae:	f997 3007 	ldrsb.w	r3, [r7, #7]
    13b2:	0112      	lsls	r2, r2, #4
    13b4:	b2d2      	uxtb	r2, r2
    13b6:	440b      	add	r3, r1
    13b8:	f883 2300 	strb.w	r2, [r3, #768]	@ 0x300
    13bc:	e00a      	b.n	13d4 <__NVIC_SetPriority+0x40>
    13be:	683b      	ldr	r3, [r7, #0]
    13c0:	b2da      	uxtb	r2, r3
    13c2:	4908      	ldr	r1, [pc, #32]	@ (13e4 <__NVIC_SetPriority+0x50>)
    13c4:	79fb      	ldrb	r3, [r7, #7]
    13c6:	f003 030f 	and.w	r3, r3, #15
    13ca:	3b04      	subs	r3, #4
    13cc:	0112      	lsls	r2, r2, #4
    13ce:	b2d2      	uxtb	r2, r2
    13d0:	440b      	add	r3, r1
    13d2:	761a      	strb	r2, [r3, #24]
    13d4:	bf00      	nop
    13d6:	370c      	adds	r7, #12
    13d8:	46bd      	mov	sp, r7
    13da:	f85d 7b04 	ldr.w	r7, [sp], #4
    13de:	4770      	bx	lr
    13e0:	e000e100 	.word	0xe000e100
    13e4:	e000ed00 	.word	0xe000ed00

000013e8 <Dstc_ReleaseStandBy>:
    13e8:	b580      	push	{r7, lr}
    13ea:	b082      	sub	sp, #8
    13ec:	af00      	add	r7, sp, #0
    13ee:	2000      	movs	r0, #0
    13f0:	f000 f91e 	bl	1630 <Dstc_SetCommand>
    13f4:	4b0e      	ldr	r3, [pc, #56]	@ (1430 <Dstc_ReleaseStandBy+0x48>)
    13f6:	607b      	str	r3, [r7, #4]
    13f8:	e002      	b.n	1400 <Dstc_ReleaseStandBy+0x18>
    13fa:	687b      	ldr	r3, [r7, #4]
    13fc:	3b01      	subs	r3, #1
    13fe:	607b      	str	r3, [r7, #4]
    1400:	4b0c      	ldr	r3, [pc, #48]	@ (1434 <Dstc_ReleaseStandBy+0x4c>)
    1402:	7a1b      	ldrb	r3, [r3, #8]
    1404:	b2db      	uxtb	r3, r3
    1406:	2b02      	cmp	r3, #2
    1408:	d102      	bne.n	1410 <Dstc_ReleaseStandBy+0x28>
    140a:	687b      	ldr	r3, [r7, #4]
    140c:	2b00      	cmp	r3, #0
    140e:	d1f4      	bne.n	13fa <Dstc_ReleaseStandBy+0x12>
    1410:	687b      	ldr	r3, [r7, #4]
    1412:	2b00      	cmp	r3, #0
    1414:	d004      	beq.n	1420 <Dstc_ReleaseStandBy+0x38>
    1416:	4b07      	ldr	r3, [pc, #28]	@ (1434 <Dstc_ReleaseStandBy+0x4c>)
    1418:	7a1b      	ldrb	r3, [r3, #8]
    141a:	b2db      	uxtb	r3, r3
    141c:	2b00      	cmp	r3, #0
    141e:	d001      	beq.n	1424 <Dstc_ReleaseStandBy+0x3c>
    1420:	230a      	movs	r3, #10
    1422:	e000      	b.n	1426 <Dstc_ReleaseStandBy+0x3e>
    1424:	2300      	movs	r3, #0
    1426:	4618      	mov	r0, r3
    1428:	3708      	adds	r7, #8
    142a:	46bd      	mov	sp, r7
    142c:	bd80      	pop	{r7, pc}
    142e:	bf00      	nop
    1430:	000186a0 	.word	0x000186a0
    1434:	40061000 	.word	0x40061000

00001438 <Dstc_Init>:
    1438:	b580      	push	{r7, lr}
    143a:	b084      	sub	sp, #16
    143c:	af00      	add	r7, sp, #0
    143e:	6078      	str	r0, [r7, #4]
    1440:	687b      	ldr	r3, [r7, #4]
    1442:	2b00      	cmp	r3, #0
    1444:	d101      	bne.n	144a <Dstc_Init+0x12>
    1446:	2304      	movs	r3, #4
    1448:	e0c6      	b.n	15d8 <Dstc_Init+0x1a0>
    144a:	687b      	ldr	r3, [r7, #4]
    144c:	681b      	ldr	r3, [r3, #0]
    144e:	f003 0303 	and.w	r3, r3, #3
    1452:	2b00      	cmp	r3, #0
    1454:	d001      	beq.n	145a <Dstc_Init+0x22>
    1456:	2302      	movs	r3, #2
    1458:	e0be      	b.n	15d8 <Dstc_Init+0x1a0>
    145a:	f7ff ffc5 	bl	13e8 <Dstc_ReleaseStandBy>
    145e:	4603      	mov	r3, r0
    1460:	2b00      	cmp	r3, #0
    1462:	d001      	beq.n	1468 <Dstc_Init+0x30>
    1464:	230a      	movs	r3, #10
    1466:	e0b7      	b.n	15d8 <Dstc_Init+0x1a0>
    1468:	687b      	ldr	r3, [r7, #4]
    146a:	68db      	ldr	r3, [r3, #12]
    146c:	4a5c      	ldr	r2, [pc, #368]	@ (15e0 <Dstc_Init+0x1a8>)
    146e:	6013      	str	r3, [r2, #0]
    1470:	687b      	ldr	r3, [r7, #4]
    1472:	691b      	ldr	r3, [r3, #16]
    1474:	4a5a      	ldr	r2, [pc, #360]	@ (15e0 <Dstc_Init+0x1a8>)
    1476:	6053      	str	r3, [r2, #4]
    1478:	687b      	ldr	r3, [r7, #4]
    147a:	699b      	ldr	r3, [r3, #24]
    147c:	4a58      	ldr	r2, [pc, #352]	@ (15e0 <Dstc_Init+0x1a8>)
    147e:	60d3      	str	r3, [r2, #12]
    1480:	687b      	ldr	r3, [r7, #4]
    1482:	695b      	ldr	r3, [r3, #20]
    1484:	4a56      	ldr	r2, [pc, #344]	@ (15e0 <Dstc_Init+0x1a8>)
    1486:	6093      	str	r3, [r2, #8]
    1488:	687b      	ldr	r3, [r7, #4]
    148a:	68db      	ldr	r3, [r3, #12]
    148c:	2b00      	cmp	r3, #0
    148e:	d103      	bne.n	1498 <Dstc_Init+0x60>
    1490:	687b      	ldr	r3, [r7, #4]
    1492:	691b      	ldr	r3, [r3, #16]
    1494:	2b00      	cmp	r3, #0
    1496:	d00d      	beq.n	14b4 <Dstc_Init+0x7c>
    1498:	687b      	ldr	r3, [r7, #4]
    149a:	7a5b      	ldrb	r3, [r3, #9]
    149c:	2b01      	cmp	r3, #1
    149e:	d109      	bne.n	14b4 <Dstc_Init+0x7c>
    14a0:	205b      	movs	r0, #91	@ 0x5b
    14a2:	f7ff ff59 	bl	1358 <__NVIC_ClearPendingIRQ>
    14a6:	205b      	movs	r0, #91	@ 0x5b
    14a8:	f7ff ff38 	bl	131c <__NVIC_EnableIRQ>
    14ac:	210f      	movs	r1, #15
    14ae:	205b      	movs	r0, #91	@ 0x5b
    14b0:	f7ff ff70 	bl	1394 <__NVIC_SetPriority>
    14b4:	687b      	ldr	r3, [r7, #4]
    14b6:	699b      	ldr	r3, [r3, #24]
    14b8:	2b00      	cmp	r3, #0
    14ba:	d103      	bne.n	14c4 <Dstc_Init+0x8c>
    14bc:	687b      	ldr	r3, [r7, #4]
    14be:	695b      	ldr	r3, [r3, #20]
    14c0:	2b00      	cmp	r3, #0
    14c2:	d00d      	beq.n	14e0 <Dstc_Init+0xa8>
    14c4:	687b      	ldr	r3, [r7, #4]
    14c6:	7a5b      	ldrb	r3, [r3, #9]
    14c8:	2b01      	cmp	r3, #1
    14ca:	d109      	bne.n	14e0 <Dstc_Init+0xa8>
    14cc:	2070      	movs	r0, #112	@ 0x70
    14ce:	f7ff ff43 	bl	1358 <__NVIC_ClearPendingIRQ>
    14d2:	2070      	movs	r0, #112	@ 0x70
    14d4:	f7ff ff22 	bl	131c <__NVIC_EnableIRQ>
    14d8:	210f      	movs	r1, #15
    14da:	2070      	movs	r0, #112	@ 0x70
    14dc:	f7ff ff5a 	bl	1394 <__NVIC_SetPriority>
    14e0:	4a40      	ldr	r2, [pc, #256]	@ (15e4 <Dstc_Init+0x1ac>)
    14e2:	687b      	ldr	r3, [r7, #4]
    14e4:	681b      	ldr	r3, [r3, #0]
    14e6:	6013      	str	r3, [r2, #0]
    14e8:	687b      	ldr	r3, [r7, #4]
    14ea:	791b      	ldrb	r3, [r3, #4]
    14ec:	2b01      	cmp	r3, #1
    14ee:	d101      	bne.n	14f4 <Dstc_Init+0xbc>
    14f0:	2201      	movs	r2, #1
    14f2:	e000      	b.n	14f6 <Dstc_Init+0xbe>
    14f4:	2200      	movs	r2, #0
    14f6:	7b3b      	ldrb	r3, [r7, #12]
    14f8:	f362 0300 	bfi	r3, r2, #0, #1
    14fc:	733b      	strb	r3, [r7, #12]
    14fe:	687b      	ldr	r3, [r7, #4]
    1500:	795b      	ldrb	r3, [r3, #5]
    1502:	2b01      	cmp	r3, #1
    1504:	d101      	bne.n	150a <Dstc_Init+0xd2>
    1506:	2201      	movs	r2, #1
    1508:	e000      	b.n	150c <Dstc_Init+0xd4>
    150a:	2200      	movs	r2, #0
    150c:	7b3b      	ldrb	r3, [r7, #12]
    150e:	f362 0341 	bfi	r3, r2, #1, #1
    1512:	733b      	strb	r3, [r7, #12]
    1514:	687b      	ldr	r3, [r7, #4]
    1516:	799b      	ldrb	r3, [r3, #6]
    1518:	2b01      	cmp	r3, #1
    151a:	d101      	bne.n	1520 <Dstc_Init+0xe8>
    151c:	2201      	movs	r2, #1
    151e:	e000      	b.n	1522 <Dstc_Init+0xea>
    1520:	2200      	movs	r2, #0
    1522:	7b3b      	ldrb	r3, [r7, #12]
    1524:	f362 0382 	bfi	r3, r2, #2, #1
    1528:	733b      	strb	r3, [r7, #12]
    152a:	687b      	ldr	r3, [r7, #4]
    152c:	79db      	ldrb	r3, [r3, #7]
    152e:	2b01      	cmp	r3, #1
    1530:	d101      	bne.n	1536 <Dstc_Init+0xfe>
    1532:	2201      	movs	r2, #1
    1534:	e000      	b.n	1538 <Dstc_Init+0x100>
    1536:	2200      	movs	r2, #0
    1538:	7b3b      	ldrb	r3, [r7, #12]
    153a:	f362 03c3 	bfi	r3, r2, #3, #1
    153e:	733b      	strb	r3, [r7, #12]
    1540:	687b      	ldr	r3, [r7, #4]
    1542:	7a1b      	ldrb	r3, [r3, #8]
    1544:	2b07      	cmp	r3, #7
    1546:	d841      	bhi.n	15cc <Dstc_Init+0x194>
    1548:	a201      	add	r2, pc, #4	@ (adr r2, 1550 <Dstc_Init+0x118>)
    154a:	f852 f023 	ldr.w	pc, [r2, r3, lsl #2]
    154e:	bf00      	nop
    1550:	00001571 	.word	0x00001571
    1554:	0000157b 	.word	0x0000157b
    1558:	00001587 	.word	0x00001587
    155c:	00001593 	.word	0x00001593
    1560:	0000159f 	.word	0x0000159f
    1564:	000015ab 	.word	0x000015ab
    1568:	000015b7 	.word	0x000015b7
    156c:	000015c3 	.word	0x000015c3
    1570:	7b3b      	ldrb	r3, [r7, #12]
    1572:	f023 0370 	bic.w	r3, r3, #112	@ 0x70
    1576:	733b      	strb	r3, [r7, #12]
    1578:	e02a      	b.n	15d0 <Dstc_Init+0x198>
    157a:	7b3b      	ldrb	r3, [r7, #12]
    157c:	2201      	movs	r2, #1
    157e:	f362 1306 	bfi	r3, r2, #4, #3
    1582:	733b      	strb	r3, [r7, #12]
    1584:	e024      	b.n	15d0 <Dstc_Init+0x198>
    1586:	7b3b      	ldrb	r3, [r7, #12]
    1588:	2202      	movs	r2, #2
    158a:	f362 1306 	bfi	r3, r2, #4, #3
    158e:	733b      	strb	r3, [r7, #12]
    1590:	e01e      	b.n	15d0 <Dstc_Init+0x198>
    1592:	7b3b      	ldrb	r3, [r7, #12]
    1594:	2203      	movs	r2, #3
    1596:	f362 1306 	bfi	r3, r2, #4, #3
    159a:	733b      	strb	r3, [r7, #12]
    159c:	e018      	b.n	15d0 <Dstc_Init+0x198>
    159e:	7b3b      	ldrb	r3, [r7, #12]
    15a0:	2204      	movs	r2, #4
    15a2:	f362 1306 	bfi	r3, r2, #4, #3
    15a6:	733b      	strb	r3, [r7, #12]
    15a8:	e012      	b.n	15d0 <Dstc_Init+0x198>
    15aa:	7b3b      	ldrb	r3, [r7, #12]
    15ac:	2205      	movs	r2, #5
    15ae:	f362 1306 	bfi	r3, r2, #4, #3
    15b2:	733b      	strb	r3, [r7, #12]
    15b4:	e00c      	b.n	15d0 <Dstc_Init+0x198>
    15b6:	7b3b      	ldrb	r3, [r7, #12]
    15b8:	2206      	movs	r2, #6
    15ba:	f362 1306 	bfi	r3, r2, #4, #3
    15be:	733b      	strb	r3, [r7, #12]
    15c0:	e006      	b.n	15d0 <Dstc_Init+0x198>
    15c2:	7b3b      	ldrb	r3, [r7, #12]
    15c4:	f043 0370 	orr.w	r3, r3, #112	@ 0x70
    15c8:	733b      	strb	r3, [r7, #12]
    15ca:	e001      	b.n	15d0 <Dstc_Init+0x198>
    15cc:	2304      	movs	r3, #4
    15ce:	e003      	b.n	15d8 <Dstc_Init+0x1a0>
    15d0:	4a04      	ldr	r2, [pc, #16]	@ (15e4 <Dstc_Init+0x1ac>)
    15d2:	7b3b      	ldrb	r3, [r7, #12]
    15d4:	7253      	strb	r3, [r2, #9]
    15d6:	2300      	movs	r3, #0
    15d8:	4618      	mov	r0, r3
    15da:	3710      	adds	r7, #16
    15dc:	46bd      	mov	sp, r7
    15de:	bd80      	pop	{r7, pc}
    15e0:	1ffd0768 	.word	0x1ffd0768
    15e4:	40061000 	.word	0x40061000

000015e8 <Dstc_SetHwdesp>:
    15e8:	b480      	push	{r7}
    15ea:	b083      	sub	sp, #12
    15ec:	af00      	add	r7, sp, #0
    15ee:	4603      	mov	r3, r0
    15f0:	460a      	mov	r2, r1
    15f2:	71fb      	strb	r3, [r7, #7]
    15f4:	4613      	mov	r3, r2
    15f6:	80bb      	strh	r3, [r7, #4]
    15f8:	88bb      	ldrh	r3, [r7, #4]
    15fa:	f5b3 4f80 	cmp.w	r3, #16384	@ 0x4000
    15fe:	d301      	bcc.n	1604 <Dstc_SetHwdesp+0x1c>
    1600:	2304      	movs	r3, #4
    1602:	e00d      	b.n	1620 <Dstc_SetHwdesp+0x38>
    1604:	88bb      	ldrh	r3, [r7, #4]
    1606:	f003 0303 	and.w	r3, r3, #3
    160a:	2b00      	cmp	r3, #0
    160c:	d001      	beq.n	1612 <Dstc_SetHwdesp+0x2a>
    160e:	2302      	movs	r3, #2
    1610:	e006      	b.n	1620 <Dstc_SetHwdesp+0x38>
    1612:	79fa      	ldrb	r2, [r7, #7]
    1614:	88bb      	ldrh	r3, [r7, #4]
    1616:	041b      	lsls	r3, r3, #16
    1618:	4904      	ldr	r1, [pc, #16]	@ (162c <Dstc_SetHwdesp+0x44>)
    161a:	4313      	orrs	r3, r2
    161c:	604b      	str	r3, [r1, #4]
    161e:	2300      	movs	r3, #0
    1620:	4618      	mov	r0, r3
    1622:	370c      	adds	r7, #12
    1624:	46bd      	mov	sp, r7
    1626:	f85d 7b04 	ldr.w	r7, [sp], #4
    162a:	4770      	bx	lr
    162c:	40061000 	.word	0x40061000

00001630 <Dstc_SetCommand>:
    1630:	b480      	push	{r7}
    1632:	b083      	sub	sp, #12
    1634:	af00      	add	r7, sp, #0
    1636:	4603      	mov	r3, r0
    1638:	71fb      	strb	r3, [r7, #7]
    163a:	79fb      	ldrb	r3, [r7, #7]
    163c:	2b05      	cmp	r3, #5
    163e:	d827      	bhi.n	1690 <Dstc_SetCommand+0x60>
    1640:	a201      	add	r2, pc, #4	@ (adr r2, 1648 <Dstc_SetCommand+0x18>)
    1642:	f852 f023 	ldr.w	pc, [r2, r3, lsl #2]
    1646:	bf00      	nop
    1648:	00001661 	.word	0x00001661
    164c:	00001669 	.word	0x00001669
    1650:	00001671 	.word	0x00001671
    1654:	00001679 	.word	0x00001679
    1658:	00001681 	.word	0x00001681
    165c:	00001689 	.word	0x00001689
    1660:	4b10      	ldr	r3, [pc, #64]	@ (16a4 <Dstc_SetCommand+0x74>)
    1662:	2204      	movs	r2, #4
    1664:	721a      	strb	r2, [r3, #8]
    1666:	e015      	b.n	1694 <Dstc_SetCommand+0x64>
    1668:	4b0e      	ldr	r3, [pc, #56]	@ (16a4 <Dstc_SetCommand+0x74>)
    166a:	2208      	movs	r2, #8
    166c:	721a      	strb	r2, [r3, #8]
    166e:	e011      	b.n	1694 <Dstc_SetCommand+0x64>
    1670:	4b0c      	ldr	r3, [pc, #48]	@ (16a4 <Dstc_SetCommand+0x74>)
    1672:	2210      	movs	r2, #16
    1674:	721a      	strb	r2, [r3, #8]
    1676:	e00d      	b.n	1694 <Dstc_SetCommand+0x64>
    1678:	4b0a      	ldr	r3, [pc, #40]	@ (16a4 <Dstc_SetCommand+0x74>)
    167a:	2220      	movs	r2, #32
    167c:	721a      	strb	r2, [r3, #8]
    167e:	e009      	b.n	1694 <Dstc_SetCommand+0x64>
    1680:	4b08      	ldr	r3, [pc, #32]	@ (16a4 <Dstc_SetCommand+0x74>)
    1682:	2240      	movs	r2, #64	@ 0x40
    1684:	721a      	strb	r2, [r3, #8]
    1686:	e005      	b.n	1694 <Dstc_SetCommand+0x64>
    1688:	4b06      	ldr	r3, [pc, #24]	@ (16a4 <Dstc_SetCommand+0x74>)
    168a:	2280      	movs	r2, #128	@ 0x80
    168c:	721a      	strb	r2, [r3, #8]
    168e:	e001      	b.n	1694 <Dstc_SetCommand+0x64>
    1690:	2304      	movs	r3, #4
    1692:	e000      	b.n	1696 <Dstc_SetCommand+0x66>
    1694:	2300      	movs	r3, #0
    1696:	4618      	mov	r0, r3
    1698:	370c      	adds	r7, #12
    169a:	46bd      	mov	sp, r7
    169c:	f85d 7b04 	ldr.w	r7, [sp], #4
    16a0:	4770      	bx	lr
    16a2:	bf00      	nop
    16a4:	40061000 	.word	0x40061000

000016a8 <Dstc_SetDreqenbBit>:
    16a8:	b480      	push	{r7}
    16aa:	b087      	sub	sp, #28
    16ac:	af00      	add	r7, sp, #0
    16ae:	4603      	mov	r3, r0
    16b0:	71fb      	strb	r3, [r7, #7]
    16b2:	79fb      	ldrb	r3, [r7, #7]
    16b4:	f003 031f 	and.w	r3, r3, #31
    16b8:	75fb      	strb	r3, [r7, #23]
    16ba:	7dfb      	ldrb	r3, [r7, #23]
    16bc:	2201      	movs	r2, #1
    16be:	fa02 f303 	lsl.w	r3, r2, r3
    16c2:	613b      	str	r3, [r7, #16]
    16c4:	79fb      	ldrb	r3, [r7, #7]
    16c6:	095b      	lsrs	r3, r3, #5
    16c8:	73fb      	strb	r3, [r7, #15]
    16ca:	7bfa      	ldrb	r2, [r7, #15]
    16cc:	4b09      	ldr	r3, [pc, #36]	@ (16f4 <Dstc_SetDreqenbBit+0x4c>)
    16ce:	4413      	add	r3, r2
    16d0:	009b      	lsls	r3, r3, #2
    16d2:	681a      	ldr	r2, [r3, #0]
    16d4:	7bf9      	ldrb	r1, [r7, #15]
    16d6:	4b07      	ldr	r3, [pc, #28]	@ (16f4 <Dstc_SetDreqenbBit+0x4c>)
    16d8:	440b      	add	r3, r1
    16da:	009b      	lsls	r3, r3, #2
    16dc:	4619      	mov	r1, r3
    16de:	693b      	ldr	r3, [r7, #16]
    16e0:	4313      	orrs	r3, r2
    16e2:	600b      	str	r3, [r1, #0]
    16e4:	2300      	movs	r3, #0
    16e6:	4618      	mov	r0, r3
    16e8:	371c      	adds	r7, #28
    16ea:	46bd      	mov	sp, r7
    16ec:	f85d 7b04 	ldr.w	r7, [sp], #4
    16f0:	4770      	bx	lr
    16f2:	bf00      	nop
    16f4:	10018404 	.word	0x10018404

000016f8 <Dstc_ReadHwintBit>:
    16f8:	b480      	push	{r7}
    16fa:	b087      	sub	sp, #28
    16fc:	af00      	add	r7, sp, #0
    16fe:	4603      	mov	r3, r0
    1700:	71fb      	strb	r3, [r7, #7]
    1702:	79fb      	ldrb	r3, [r7, #7]
    1704:	f003 031f 	and.w	r3, r3, #31
    1708:	75fb      	strb	r3, [r7, #23]
    170a:	7dfb      	ldrb	r3, [r7, #23]
    170c:	2201      	movs	r2, #1
    170e:	fa02 f303 	lsl.w	r3, r2, r3
    1712:	613b      	str	r3, [r7, #16]
    1714:	79fb      	ldrb	r3, [r7, #7]
    1716:	095b      	lsrs	r3, r3, #5
    1718:	73fb      	strb	r3, [r7, #15]
    171a:	7bfa      	ldrb	r2, [r7, #15]
    171c:	4b08      	ldr	r3, [pc, #32]	@ (1740 <Dstc_ReadHwintBit+0x48>)
    171e:	4413      	add	r3, r2
    1720:	009b      	lsls	r3, r3, #2
    1722:	681a      	ldr	r2, [r3, #0]
    1724:	693b      	ldr	r3, [r7, #16]
    1726:	4013      	ands	r3, r2
    1728:	693a      	ldr	r2, [r7, #16]
    172a:	429a      	cmp	r2, r3
    172c:	d101      	bne.n	1732 <Dstc_ReadHwintBit+0x3a>
    172e:	2301      	movs	r3, #1
    1730:	e000      	b.n	1734 <Dstc_ReadHwintBit+0x3c>
    1732:	2300      	movs	r3, #0
    1734:	4618      	mov	r0, r3
    1736:	371c      	adds	r7, #28
    1738:	46bd      	mov	sp, r7
    173a:	f85d 7b04 	ldr.w	r7, [sp], #4
    173e:	4770      	bx	lr
    1740:	1001840c 	.word	0x1001840c

00001744 <Dstc_SetHwintclrBit>:
    1744:	b480      	push	{r7}
    1746:	b087      	sub	sp, #28
    1748:	af00      	add	r7, sp, #0
    174a:	4603      	mov	r3, r0
    174c:	71fb      	strb	r3, [r7, #7]
    174e:	79fb      	ldrb	r3, [r7, #7]
    1750:	f003 031f 	and.w	r3, r3, #31
    1754:	75fb      	strb	r3, [r7, #23]
    1756:	7dfb      	ldrb	r3, [r7, #23]
    1758:	2201      	movs	r2, #1
    175a:	fa02 f303 	lsl.w	r3, r2, r3
    175e:	613b      	str	r3, [r7, #16]
    1760:	79fb      	ldrb	r3, [r7, #7]
    1762:	095b      	lsrs	r3, r3, #5
    1764:	73fb      	strb	r3, [r7, #15]
    1766:	7bfa      	ldrb	r2, [r7, #15]
    1768:	4b06      	ldr	r3, [pc, #24]	@ (1784 <Dstc_SetHwintclrBit+0x40>)
    176a:	4413      	add	r3, r2
    176c:	009b      	lsls	r3, r3, #2
    176e:	461a      	mov	r2, r3
    1770:	693b      	ldr	r3, [r7, #16]
    1772:	6013      	str	r3, [r2, #0]
    1774:	2300      	movs	r3, #0
    1776:	4618      	mov	r0, r3
    1778:	371c      	adds	r7, #28
    177a:	46bd      	mov	sp, r7
    177c:	f85d 7b04 	ldr.w	r7, [sp], #4
    1780:	4770      	bx	lr
    1782:	bf00      	nop
    1784:	10018414 	.word	0x10018414

00001788 <Dstc_SetDqmskclrBit>:
    1788:	b480      	push	{r7}
    178a:	b087      	sub	sp, #28
    178c:	af00      	add	r7, sp, #0
    178e:	4603      	mov	r3, r0
    1790:	71fb      	strb	r3, [r7, #7]
    1792:	79fb      	ldrb	r3, [r7, #7]
    1794:	f003 031f 	and.w	r3, r3, #31
    1798:	75fb      	strb	r3, [r7, #23]
    179a:	7dfb      	ldrb	r3, [r7, #23]
    179c:	2201      	movs	r2, #1
    179e:	fa02 f303 	lsl.w	r3, r2, r3
    17a2:	613b      	str	r3, [r7, #16]
    17a4:	79fb      	ldrb	r3, [r7, #7]
    17a6:	095b      	lsrs	r3, r3, #5
    17a8:	73fb      	strb	r3, [r7, #15]
    17aa:	7bfa      	ldrb	r2, [r7, #15]
    17ac:	4b0a      	ldr	r3, [pc, #40]	@ (17d8 <Dstc_SetDqmskclrBit+0x50>)
    17ae:	4413      	add	r3, r2
    17b0:	009b      	lsls	r3, r3, #2
    17b2:	6819      	ldr	r1, [r3, #0]
    17b4:	693b      	ldr	r3, [r7, #16]
    17b6:	43da      	mvns	r2, r3
    17b8:	7bf8      	ldrb	r0, [r7, #15]
    17ba:	4b07      	ldr	r3, [pc, #28]	@ (17d8 <Dstc_SetDqmskclrBit+0x50>)
    17bc:	4403      	add	r3, r0
    17be:	009b      	lsls	r3, r3, #2
    17c0:	4618      	mov	r0, r3
    17c2:	ea01 0302 	and.w	r3, r1, r2
    17c6:	6003      	str	r3, [r0, #0]
    17c8:	2300      	movs	r3, #0
    17ca:	4618      	mov	r0, r3
    17cc:	371c      	adds	r7, #28
    17ce:	46bd      	mov	sp, r7
    17d0:	f85d 7b04 	ldr.w	r7, [sp], #4
    17d4:	4770      	bx	lr
    17d6:	bf00      	nop
    17d8:	10018424 	.word	0x10018424

000017dc <Dstc_I2sIrqHandler>:
    17dc:	b580      	push	{r7, lr}
    17de:	b084      	sub	sp, #16
    17e0:	af00      	add	r7, sp, #0
    17e2:	4603      	mov	r3, r0
    17e4:	71fb      	strb	r3, [r7, #7]
    17e6:	79fb      	ldrb	r3, [r7, #7]
    17e8:	2bda      	cmp	r3, #218	@ 0xda
    17ea:	d005      	beq.n	17f8 <Dstc_I2sIrqHandler+0x1c>
    17ec:	2bdb      	cmp	r3, #219	@ 0xdb
    17ee:	d107      	bne.n	1800 <Dstc_I2sIrqHandler+0x24>
    17f0:	4b0f      	ldr	r3, [pc, #60]	@ (1830 <Dstc_I2sIrqHandler+0x54>)
    17f2:	68db      	ldr	r3, [r3, #12]
    17f4:	60fb      	str	r3, [r7, #12]
    17f6:	e006      	b.n	1806 <Dstc_I2sIrqHandler+0x2a>
    17f8:	4b0d      	ldr	r3, [pc, #52]	@ (1830 <Dstc_I2sIrqHandler+0x54>)
    17fa:	689b      	ldr	r3, [r3, #8]
    17fc:	60fb      	str	r3, [r7, #12]
    17fe:	e002      	b.n	1806 <Dstc_I2sIrqHandler+0x2a>
    1800:	2300      	movs	r3, #0
    1802:	60fb      	str	r3, [r7, #12]
    1804:	bf00      	nop
    1806:	79fb      	ldrb	r3, [r7, #7]
    1808:	4618      	mov	r0, r3
    180a:	f7ff ff75 	bl	16f8 <Dstc_ReadHwintBit>
    180e:	4603      	mov	r3, r0
    1810:	2b01      	cmp	r3, #1
    1812:	d108      	bne.n	1826 <Dstc_I2sIrqHandler+0x4a>
    1814:	79fb      	ldrb	r3, [r7, #7]
    1816:	4618      	mov	r0, r3
    1818:	f7ff ff94 	bl	1744 <Dstc_SetHwintclrBit>
    181c:	68fb      	ldr	r3, [r7, #12]
    181e:	2b00      	cmp	r3, #0
    1820:	d001      	beq.n	1826 <Dstc_I2sIrqHandler+0x4a>
    1822:	68fb      	ldr	r3, [r7, #12]
    1824:	4798      	blx	r3
    1826:	bf00      	nop
    1828:	3710      	adds	r7, #16
    182a:	46bd      	mov	sp, r7
    182c:	bd80      	pop	{r7, pc}
    182e:	bf00      	nop
    1830:	1ffd0768 	.word	0x1ffd0768

00001834 <__NVIC_EnableIRQ>:
    1834:	b480      	push	{r7}
    1836:	b083      	sub	sp, #12
    1838:	af00      	add	r7, sp, #0
    183a:	4603      	mov	r3, r0
    183c:	71fb      	strb	r3, [r7, #7]
    183e:	f997 3007 	ldrsb.w	r3, [r7, #7]
    1842:	2b00      	cmp	r3, #0
    1844:	db0b      	blt.n	185e <__NVIC_EnableIRQ+0x2a>
    1846:	79fb      	ldrb	r3, [r7, #7]
    1848:	f003 021f 	and.w	r2, r3, #31
    184c:	4907      	ldr	r1, [pc, #28]	@ (186c <__NVIC_EnableIRQ+0x38>)
    184e:	f997 3007 	ldrsb.w	r3, [r7, #7]
    1852:	095b      	lsrs	r3, r3, #5
    1854:	2001      	movs	r0, #1
    1856:	fa00 f202 	lsl.w	r2, r0, r2
    185a:	f841 2023 	str.w	r2, [r1, r3, lsl #2]
    185e:	bf00      	nop
    1860:	370c      	adds	r7, #12
    1862:	46bd      	mov	sp, r7
    1864:	f85d 7b04 	ldr.w	r7, [sp], #4
    1868:	4770      	bx	lr
    186a:	bf00      	nop
    186c:	e000e100 	.word	0xe000e100

00001870 <__NVIC_ClearPendingIRQ>:
    1870:	b480      	push	{r7}
    1872:	b083      	sub	sp, #12
    1874:	af00      	add	r7, sp, #0
    1876:	4603      	mov	r3, r0
    1878:	71fb      	strb	r3, [r7, #7]
    187a:	f997 3007 	ldrsb.w	r3, [r7, #7]
    187e:	2b00      	cmp	r3, #0
    1880:	db0c      	blt.n	189c <__NVIC_ClearPendingIRQ+0x2c>
    1882:	79fb      	ldrb	r3, [r7, #7]
    1884:	f003 021f 	and.w	r2, r3, #31
    1888:	4907      	ldr	r1, [pc, #28]	@ (18a8 <__NVIC_ClearPendingIRQ+0x38>)
    188a:	f997 3007 	ldrsb.w	r3, [r7, #7]
    188e:	095b      	lsrs	r3, r3, #5
    1890:	2001      	movs	r0, #1
    1892:	fa00 f202 	lsl.w	r2, r0, r2
    1896:	3360      	adds	r3, #96	@ 0x60
    1898:	f841 2023 	str.w	r2, [r1, r3, lsl #2]
    189c:	bf00      	nop
    189e:	370c      	adds	r7, #12
    18a0:	46bd      	mov	sp, r7
    18a2:	f85d 7b04 	ldr.w	r7, [sp], #4
    18a6:	4770      	bx	lr
    18a8:	e000e100 	.word	0xe000e100

000018ac <__NVIC_SetPriority>:
    18ac:	b480      	push	{r7}
    18ae:	b083      	sub	sp, #12
    18b0:	af00      	add	r7, sp, #0
    18b2:	4603      	mov	r3, r0
    18b4:	6039      	str	r1, [r7, #0]
    18b6:	71fb      	strb	r3, [r7, #7]
    18b8:	f997 3007 	ldrsb.w	r3, [r7, #7]
    18bc:	2b00      	cmp	r3, #0
    18be:	db0a      	blt.n	18d6 <__NVIC_SetPriority+0x2a>
    18c0:	683b      	ldr	r3, [r7, #0]
    18c2:	b2da      	uxtb	r2, r3
    18c4:	490c      	ldr	r1, [pc, #48]	@ (18f8 <__NVIC_SetPriority+0x4c>)
    18c6:	f997 3007 	ldrsb.w	r3, [r7, #7]
    18ca:	0112      	lsls	r2, r2, #4
    18cc:	b2d2      	uxtb	r2, r2
    18ce:	440b      	add	r3, r1
    18d0:	f883 2300 	strb.w	r2, [r3, #768]	@ 0x300
    18d4:	e00a      	b.n	18ec <__NVIC_SetPriority+0x40>
    18d6:	683b      	ldr	r3, [r7, #0]
    18d8:	b2da      	uxtb	r2, r3
    18da:	4908      	ldr	r1, [pc, #32]	@ (18fc <__NVIC_SetPriority+0x50>)
    18dc:	79fb      	ldrb	r3, [r7, #7]
    18de:	f003 030f 	and.w	r3, r3, #15
    18e2:	3b04      	subs	r3, #4
    18e4:	0112      	lsls	r2, r2, #4
    18e6:	b2d2      	uxtb	r2, r2
    18e8:	440b      	add	r3, r1
    18ea:	761a      	strb	r2, [r3, #24]
    18ec:	bf00      	nop
    18ee:	370c      	adds	r7, #12
    18f0:	46bd      	mov	sp, r7
    18f2:	f85d 7b04 	ldr.w	r7, [sp], #4
    18f6:	4770      	bx	lr
    18f8:	e000e100 	.word	0xe000e100
    18fc:	e000ed00 	.word	0xe000ed00

00001900 <I2sGetInternDataPtr>:
    1900:	b480      	push	{r7}
    1902:	b085      	sub	sp, #20
    1904:	af00      	add	r7, sp, #0
    1906:	6078      	str	r0, [r7, #4]
    1908:	2300      	movs	r3, #0
    190a:	73fb      	strb	r3, [r7, #15]
    190c:	e016      	b.n	193c <I2sGetInternDataPtr+0x3c>
    190e:	7bfa      	ldrb	r2, [r7, #15]
    1910:	490f      	ldr	r1, [pc, #60]	@ (1950 <I2sGetInternDataPtr+0x50>)
    1912:	4613      	mov	r3, r2
    1914:	005b      	lsls	r3, r3, #1
    1916:	4413      	add	r3, r2
    1918:	011b      	lsls	r3, r3, #4
    191a:	440b      	add	r3, r1
    191c:	681b      	ldr	r3, [r3, #0]
    191e:	687a      	ldr	r2, [r7, #4]
    1920:	429a      	cmp	r2, r3
    1922:	d108      	bne.n	1936 <I2sGetInternDataPtr+0x36>
    1924:	7bfa      	ldrb	r2, [r7, #15]
    1926:	4613      	mov	r3, r2
    1928:	005b      	lsls	r3, r3, #1
    192a:	4413      	add	r3, r2
    192c:	011b      	lsls	r3, r3, #4
    192e:	4a08      	ldr	r2, [pc, #32]	@ (1950 <I2sGetInternDataPtr+0x50>)
    1930:	4413      	add	r3, r2
    1932:	3304      	adds	r3, #4
    1934:	e006      	b.n	1944 <I2sGetInternDataPtr+0x44>
    1936:	7bfb      	ldrb	r3, [r7, #15]
    1938:	3301      	adds	r3, #1
    193a:	73fb      	strb	r3, [r7, #15]
    193c:	7bfb      	ldrb	r3, [r7, #15]
    193e:	2b00      	cmp	r3, #0
    1940:	d0e5      	beq.n	190e <I2sGetInternDataPtr+0xe>
    1942:	2300      	movs	r3, #0
    1944:	4618      	mov	r0, r3
    1946:	3714      	adds	r7, #20
    1948:	46bd      	mov	sp, r7
    194a:	f85d 7b04 	ldr.w	r7, [sp], #4
    194e:	4770      	bx	lr
    1950:	1ffd004c 	.word	0x1ffd004c

00001954 <I2sIrqHandler>:
    1954:	b580      	push	{r7, lr}
    1956:	b082      	sub	sp, #8
    1958:	af00      	add	r7, sp, #0
    195a:	6078      	str	r0, [r7, #4]
    195c:	6039      	str	r1, [r7, #0]
    195e:	687b      	ldr	r3, [r7, #4]
    1960:	6a5b      	ldr	r3, [r3, #36]	@ 0x24
    1962:	f3c3 73c0 	ubfx	r3, r3, #31, #1
    1966:	b2db      	uxtb	r3, r3
    1968:	2b01      	cmp	r3, #1
    196a:	d10b      	bne.n	1984 <I2sIrqHandler+0x30>
    196c:	687a      	ldr	r2, [r7, #4]
    196e:	6a53      	ldr	r3, [r2, #36]	@ 0x24
    1970:	f023 4300 	bic.w	r3, r3, #2147483648	@ 0x80000000
    1974:	6253      	str	r3, [r2, #36]	@ 0x24
    1976:	683b      	ldr	r3, [r7, #0]
    1978:	689b      	ldr	r3, [r3, #8]
    197a:	2b00      	cmp	r3, #0
    197c:	d002      	beq.n	1984 <I2sIrqHandler+0x30>
    197e:	683b      	ldr	r3, [r7, #0]
    1980:	689b      	ldr	r3, [r3, #8]
    1982:	4798      	blx	r3
    1984:	687b      	ldr	r3, [r7, #4]
    1986:	6a5b      	ldr	r3, [r3, #36]	@ 0x24
    1988:	f3c3 7380 	ubfx	r3, r3, #30, #1
    198c:	b2db      	uxtb	r3, r3
    198e:	2b01      	cmp	r3, #1
    1990:	d10b      	bne.n	19aa <I2sIrqHandler+0x56>
    1992:	687a      	ldr	r2, [r7, #4]
    1994:	6a53      	ldr	r3, [r2, #36]	@ 0x24
    1996:	f023 4380 	bic.w	r3, r3, #1073741824	@ 0x40000000
    199a:	6253      	str	r3, [r2, #36]	@ 0x24
    199c:	683b      	ldr	r3, [r7, #0]
    199e:	699b      	ldr	r3, [r3, #24]
    19a0:	2b00      	cmp	r3, #0
    19a2:	d002      	beq.n	19aa <I2sIrqHandler+0x56>
    19a4:	683b      	ldr	r3, [r7, #0]
    19a6:	699b      	ldr	r3, [r3, #24]
    19a8:	4798      	blx	r3
    19aa:	687b      	ldr	r3, [r7, #4]
    19ac:	6a5b      	ldr	r3, [r3, #36]	@ 0x24
    19ae:	f3c3 7340 	ubfx	r3, r3, #29, #1
    19b2:	b2db      	uxtb	r3, r3
    19b4:	2b01      	cmp	r3, #1
    19b6:	d10b      	bne.n	19d0 <I2sIrqHandler+0x7c>
    19b8:	687a      	ldr	r2, [r7, #4]
    19ba:	6a53      	ldr	r3, [r2, #36]	@ 0x24
    19bc:	f023 5300 	bic.w	r3, r3, #536870912	@ 0x20000000
    19c0:	6253      	str	r3, [r2, #36]	@ 0x24
    19c2:	683b      	ldr	r3, [r7, #0]
    19c4:	68db      	ldr	r3, [r3, #12]
    19c6:	2b00      	cmp	r3, #0
    19c8:	d002      	beq.n	19d0 <I2sIrqHandler+0x7c>
    19ca:	683b      	ldr	r3, [r7, #0]
    19cc:	68db      	ldr	r3, [r3, #12]
    19ce:	4798      	blx	r3
    19d0:	687b      	ldr	r3, [r7, #4]
    19d2:	6a5b      	ldr	r3, [r3, #36]	@ 0x24
    19d4:	f3c3 7300 	ubfx	r3, r3, #28, #1
    19d8:	b2db      	uxtb	r3, r3
    19da:	2b01      	cmp	r3, #1
    19dc:	d10b      	bne.n	19f6 <I2sIrqHandler+0xa2>
    19de:	687a      	ldr	r2, [r7, #4]
    19e0:	6a53      	ldr	r3, [r2, #36]	@ 0x24
    19e2:	f023 5380 	bic.w	r3, r3, #268435456	@ 0x10000000
    19e6:	6253      	str	r3, [r2, #36]	@ 0x24
    19e8:	683b      	ldr	r3, [r7, #0]
    19ea:	685b      	ldr	r3, [r3, #4]
    19ec:	2b00      	cmp	r3, #0
    19ee:	d002      	beq.n	19f6 <I2sIrqHandler+0xa2>
    19f0:	683b      	ldr	r3, [r7, #0]
    19f2:	685b      	ldr	r3, [r3, #4]
    19f4:	4798      	blx	r3
    19f6:	687b      	ldr	r3, [r7, #4]
    19f8:	6a5b      	ldr	r3, [r3, #36]	@ 0x24
    19fa:	f3c3 63c0 	ubfx	r3, r3, #27, #1
    19fe:	b2db      	uxtb	r3, r3
    1a00:	2b01      	cmp	r3, #1
    1a02:	d10b      	bne.n	1a1c <I2sIrqHandler+0xc8>
    1a04:	687a      	ldr	r2, [r7, #4]
    1a06:	6a53      	ldr	r3, [r2, #36]	@ 0x24
    1a08:	f023 6300 	bic.w	r3, r3, #134217728	@ 0x8000000
    1a0c:	6253      	str	r3, [r2, #36]	@ 0x24
    1a0e:	683b      	ldr	r3, [r7, #0]
    1a10:	681b      	ldr	r3, [r3, #0]
    1a12:	2b00      	cmp	r3, #0
    1a14:	d002      	beq.n	1a1c <I2sIrqHandler+0xc8>
    1a16:	683b      	ldr	r3, [r7, #0]
    1a18:	681b      	ldr	r3, [r3, #0]
    1a1a:	4798      	blx	r3
    1a1c:	687b      	ldr	r3, [r7, #4]
    1a1e:	6a5b      	ldr	r3, [r3, #36]	@ 0x24
    1a20:	f3c3 6380 	ubfx	r3, r3, #26, #1
    1a24:	b2db      	uxtb	r3, r3
    1a26:	2b01      	cmp	r3, #1
    1a28:	d10b      	bne.n	1a42 <I2sIrqHandler+0xee>
    1a2a:	687a      	ldr	r2, [r7, #4]
    1a2c:	6a53      	ldr	r3, [r2, #36]	@ 0x24
    1a2e:	f023 6380 	bic.w	r3, r3, #67108864	@ 0x4000000
    1a32:	6253      	str	r3, [r2, #36]	@ 0x24
    1a34:	683b      	ldr	r3, [r7, #0]
    1a36:	691b      	ldr	r3, [r3, #16]
    1a38:	2b00      	cmp	r3, #0
    1a3a:	d002      	beq.n	1a42 <I2sIrqHandler+0xee>
    1a3c:	683b      	ldr	r3, [r7, #0]
    1a3e:	691b      	ldr	r3, [r3, #16]
    1a40:	4798      	blx	r3
    1a42:	687b      	ldr	r3, [r7, #4]
    1a44:	6a5b      	ldr	r3, [r3, #36]	@ 0x24
    1a46:	f3c3 6340 	ubfx	r3, r3, #25, #1
    1a4a:	b2db      	uxtb	r3, r3
    1a4c:	2b01      	cmp	r3, #1
    1a4e:	d10b      	bne.n	1a68 <I2sIrqHandler+0x114>
    1a50:	687a      	ldr	r2, [r7, #4]
    1a52:	6a53      	ldr	r3, [r2, #36]	@ 0x24
    1a54:	f023 7300 	bic.w	r3, r3, #33554432	@ 0x2000000
    1a58:	6253      	str	r3, [r2, #36]	@ 0x24
    1a5a:	683b      	ldr	r3, [r7, #0]
    1a5c:	69db      	ldr	r3, [r3, #28]
    1a5e:	2b00      	cmp	r3, #0
    1a60:	d002      	beq.n	1a68 <I2sIrqHandler+0x114>
    1a62:	683b      	ldr	r3, [r7, #0]
    1a64:	69db      	ldr	r3, [r3, #28]
    1a66:	4798      	blx	r3
    1a68:	687b      	ldr	r3, [r7, #4]
    1a6a:	6a5b      	ldr	r3, [r3, #36]	@ 0x24
    1a6c:	f3c3 6300 	ubfx	r3, r3, #24, #1
    1a70:	b2db      	uxtb	r3, r3
    1a72:	2b01      	cmp	r3, #1
    1a74:	d10b      	bne.n	1a8e <I2sIrqHandler+0x13a>
    1a76:	687a      	ldr	r2, [r7, #4]
    1a78:	6a53      	ldr	r3, [r2, #36]	@ 0x24
    1a7a:	f023 7380 	bic.w	r3, r3, #16777216	@ 0x1000000
    1a7e:	6253      	str	r3, [r2, #36]	@ 0x24
    1a80:	683b      	ldr	r3, [r7, #0]
    1a82:	6a1b      	ldr	r3, [r3, #32]
    1a84:	2b00      	cmp	r3, #0
    1a86:	d002      	beq.n	1a8e <I2sIrqHandler+0x13a>
    1a88:	683b      	ldr	r3, [r7, #0]
    1a8a:	6a1b      	ldr	r3, [r3, #32]
    1a8c:	4798      	blx	r3
    1a8e:	687b      	ldr	r3, [r7, #4]
    1a90:	6a5b      	ldr	r3, [r3, #36]	@ 0x24
    1a92:	f3c3 43c0 	ubfx	r3, r3, #19, #1
    1a96:	b2db      	uxtb	r3, r3
    1a98:	2b01      	cmp	r3, #1
    1a9a:	d10b      	bne.n	1ab4 <I2sIrqHandler+0x160>
    1a9c:	687a      	ldr	r2, [r7, #4]
    1a9e:	6a53      	ldr	r3, [r2, #36]	@ 0x24
    1aa0:	f423 2300 	bic.w	r3, r3, #524288	@ 0x80000
    1aa4:	6253      	str	r3, [r2, #36]	@ 0x24
    1aa6:	683b      	ldr	r3, [r7, #0]
    1aa8:	6a5b      	ldr	r3, [r3, #36]	@ 0x24
    1aaa:	2b00      	cmp	r3, #0
    1aac:	d002      	beq.n	1ab4 <I2sIrqHandler+0x160>
    1aae:	683b      	ldr	r3, [r7, #0]
    1ab0:	6a5b      	ldr	r3, [r3, #36]	@ 0x24
    1ab2:	4798      	blx	r3
    1ab4:	687b      	ldr	r3, [r7, #4]
    1ab6:	6a5b      	ldr	r3, [r3, #36]	@ 0x24
    1ab8:	f3c3 4300 	ubfx	r3, r3, #16, #1
    1abc:	b2db      	uxtb	r3, r3
    1abe:	2b01      	cmp	r3, #1
    1ac0:	d106      	bne.n	1ad0 <I2sIrqHandler+0x17c>
    1ac2:	683b      	ldr	r3, [r7, #0]
    1ac4:	6a9b      	ldr	r3, [r3, #40]	@ 0x28
    1ac6:	2b00      	cmp	r3, #0
    1ac8:	d002      	beq.n	1ad0 <I2sIrqHandler+0x17c>
    1aca:	683b      	ldr	r3, [r7, #0]
    1acc:	6a9b      	ldr	r3, [r3, #40]	@ 0x28
    1ace:	4798      	blx	r3
    1ad0:	687b      	ldr	r3, [r7, #4]
    1ad2:	6a5b      	ldr	r3, [r3, #36]	@ 0x24
    1ad4:	f3c3 4340 	ubfx	r3, r3, #17, #1
    1ad8:	b2db      	uxtb	r3, r3
    1ada:	2b01      	cmp	r3, #1
    1adc:	d107      	bne.n	1aee <I2sIrqHandler+0x19a>
    1ade:	683b      	ldr	r3, [r7, #0]
    1ae0:	695b      	ldr	r3, [r3, #20]
    1ae2:	2b00      	cmp	r3, #0
    1ae4:	d003      	beq.n	1aee <I2sIrqHandler+0x19a>
    1ae6:	683b      	ldr	r3, [r7, #0]
    1ae8:	695b      	ldr	r3, [r3, #20]
    1aea:	4798      	blx	r3
    1aec:	bf00      	nop
    1aee:	bf00      	nop
    1af0:	3708      	adds	r7, #8
    1af2:	46bd      	mov	sp, r7
    1af4:	bd80      	pop	{r7, pc}

00001af6 <I2sInitNvic>:
    1af6:	b580      	push	{r7, lr}
    1af8:	b082      	sub	sp, #8
    1afa:	af00      	add	r7, sp, #0
    1afc:	6078      	str	r0, [r7, #4]
    1afe:	2075      	movs	r0, #117	@ 0x75
    1b00:	f7ff feb6 	bl	1870 <__NVIC_ClearPendingIRQ>
    1b04:	2075      	movs	r0, #117	@ 0x75
    1b06:	f7ff fe95 	bl	1834 <__NVIC_EnableIRQ>
    1b0a:	210f      	movs	r1, #15
    1b0c:	2075      	movs	r0, #117	@ 0x75
    1b0e:	f7ff fecd 	bl	18ac <__NVIC_SetPriority>
    1b12:	bf00      	nop
    1b14:	3708      	adds	r7, #8
    1b16:	46bd      	mov	sp, r7
    1b18:	bd80      	pop	{r7, pc}
	...

00001b1c <I2s_DisablePll>:
    1b1c:	b480      	push	{r7}
    1b1e:	af00      	add	r7, sp, #0
    1b20:	4a05      	ldr	r2, [pc, #20]	@ (1b38 <I2s_DisablePll+0x1c>)
    1b22:	6853      	ldr	r3, [r2, #4]
    1b24:	f023 0301 	bic.w	r3, r3, #1
    1b28:	6053      	str	r3, [r2, #4]
    1b2a:	2300      	movs	r3, #0
    1b2c:	4618      	mov	r0, r3
    1b2e:	46bd      	mov	sp, r7
    1b30:	f85d 7b04 	ldr.w	r7, [sp], #4
    1b34:	4770      	bx	lr
    1b36:	bf00      	nop
    1b38:	4003d000 	.word	0x4003d000

00001b3c <I2s_StartClk>:
    1b3c:	b480      	push	{r7}
    1b3e:	b083      	sub	sp, #12
    1b40:	af00      	add	r7, sp, #0
    1b42:	6078      	str	r0, [r7, #4]
    1b44:	687b      	ldr	r3, [r7, #4]
    1b46:	4a07      	ldr	r2, [pc, #28]	@ (1b64 <I2s_StartClk+0x28>)
    1b48:	4293      	cmp	r3, r2
    1b4a:	d104      	bne.n	1b56 <I2s_StartClk+0x1a>
    1b4c:	4a06      	ldr	r2, [pc, #24]	@ (1b68 <I2s_StartClk+0x2c>)
    1b4e:	6813      	ldr	r3, [r2, #0]
    1b50:	f043 0301 	orr.w	r3, r3, #1
    1b54:	6013      	str	r3, [r2, #0]
    1b56:	bf00      	nop
    1b58:	370c      	adds	r7, #12
    1b5a:	46bd      	mov	sp, r7
    1b5c:	f85d 7b04 	ldr.w	r7, [sp], #4
    1b60:	4770      	bx	lr
    1b62:	bf00      	nop
    1b64:	4006c000 	.word	0x4006c000
    1b68:	4003d000 	.word	0x4003d000

00001b6c <I2s_StopClk>:
    1b6c:	b480      	push	{r7}
    1b6e:	b083      	sub	sp, #12
    1b70:	af00      	add	r7, sp, #0
    1b72:	6078      	str	r0, [r7, #4]
    1b74:	687b      	ldr	r3, [r7, #4]
    1b76:	4a07      	ldr	r2, [pc, #28]	@ (1b94 <I2s_StopClk+0x28>)
    1b78:	4293      	cmp	r3, r2
    1b7a:	d104      	bne.n	1b86 <I2s_StopClk+0x1a>
    1b7c:	4a06      	ldr	r2, [pc, #24]	@ (1b98 <I2s_StopClk+0x2c>)
    1b7e:	6813      	ldr	r3, [r2, #0]
    1b80:	f023 0301 	bic.w	r3, r3, #1
    1b84:	6013      	str	r3, [r2, #0]
    1b86:	bf00      	nop
    1b88:	370c      	adds	r7, #12
    1b8a:	46bd      	mov	sp, r7
    1b8c:	f85d 7b04 	ldr.w	r7, [sp], #4
    1b90:	4770      	bx	lr
    1b92:	bf00      	nop
    1b94:	4006c000 	.word	0x4006c000
    1b98:	4003d000 	.word	0x4003d000

00001b9c <I2s_Init>:
    1b9c:	b580      	push	{r7, lr}
    1b9e:	b084      	sub	sp, #16
    1ba0:	af00      	add	r7, sp, #0
    1ba2:	6078      	str	r0, [r7, #4]
    1ba4:	6039      	str	r1, [r7, #0]
    1ba6:	687b      	ldr	r3, [r7, #4]
    1ba8:	2b00      	cmp	r3, #0
    1baa:	d002      	beq.n	1bb2 <I2s_Init+0x16>
    1bac:	683b      	ldr	r3, [r7, #0]
    1bae:	2b00      	cmp	r3, #0
    1bb0:	d101      	bne.n	1bb6 <I2s_Init+0x1a>
    1bb2:	2304      	movs	r3, #4
    1bb4:	e27d      	b.n	20b2 <I2s_Init+0x516>
    1bb6:	6878      	ldr	r0, [r7, #4]
    1bb8:	f7ff fea2 	bl	1900 <I2sGetInternDataPtr>
    1bbc:	60f8      	str	r0, [r7, #12]
    1bbe:	68fb      	ldr	r3, [r7, #12]
    1bc0:	2b00      	cmp	r3, #0
    1bc2:	d101      	bne.n	1bc8 <I2s_Init+0x2c>
    1bc4:	2304      	movs	r3, #4
    1bc6:	e274      	b.n	20b2 <I2s_Init+0x516>
    1bc8:	687a      	ldr	r2, [r7, #4]
    1bca:	6993      	ldr	r3, [r2, #24]
    1bcc:	f023 0301 	bic.w	r3, r3, #1
    1bd0:	6193      	str	r3, [r2, #24]
    1bd2:	683b      	ldr	r3, [r7, #0]
    1bd4:	781b      	ldrb	r3, [r3, #0]
    1bd6:	f003 033f 	and.w	r3, r3, #63	@ 0x3f
    1bda:	b2d9      	uxtb	r1, r3
    1bdc:	687a      	ldr	r2, [r7, #4]
    1bde:	6893      	ldr	r3, [r2, #8]
    1be0:	f361 639f 	bfi	r3, r1, #26, #6
    1be4:	6093      	str	r3, [r2, #8]
    1be6:	683b      	ldr	r3, [r7, #0]
    1be8:	885b      	ldrh	r3, [r3, #2]
    1bea:	f3c3 0309 	ubfx	r3, r3, #0, #10
    1bee:	b299      	uxth	r1, r3
    1bf0:	687a      	ldr	r2, [r7, #4]
    1bf2:	6893      	ldr	r3, [r2, #8]
    1bf4:	f361 4319 	bfi	r3, r1, #16, #10
    1bf8:	6093      	str	r3, [r2, #8]
    1bfa:	683b      	ldr	r3, [r7, #0]
    1bfc:	791b      	ldrb	r3, [r3, #4]
    1bfe:	f003 0301 	and.w	r3, r3, #1
    1c02:	b2d9      	uxtb	r1, r3
    1c04:	687a      	ldr	r2, [r7, #4]
    1c06:	6893      	ldr	r3, [r2, #8]
    1c08:	f361 338e 	bfi	r3, r1, #14, #1
    1c0c:	6093      	str	r3, [r2, #8]
    1c0e:	683b      	ldr	r3, [r7, #0]
    1c10:	795b      	ldrb	r3, [r3, #5]
    1c12:	f003 0301 	and.w	r3, r3, #1
    1c16:	b2d9      	uxtb	r1, r3
    1c18:	687a      	ldr	r2, [r7, #4]
    1c1a:	6893      	ldr	r3, [r2, #8]
    1c1c:	f361 334d 	bfi	r3, r1, #13, #1
    1c20:	6093      	str	r3, [r2, #8]
    1c22:	683b      	ldr	r3, [r7, #0]
    1c24:	799b      	ldrb	r3, [r3, #6]
    1c26:	f003 0301 	and.w	r3, r3, #1
    1c2a:	b2d9      	uxtb	r1, r3
    1c2c:	687a      	ldr	r2, [r7, #4]
    1c2e:	6893      	ldr	r3, [r2, #8]
    1c30:	f361 330c 	bfi	r3, r1, #12, #1
    1c34:	6093      	str	r3, [r2, #8]
    1c36:	683b      	ldr	r3, [r7, #0]
    1c38:	79db      	ldrb	r3, [r3, #7]
    1c3a:	f003 0301 	and.w	r3, r3, #1
    1c3e:	b2d9      	uxtb	r1, r3
    1c40:	687a      	ldr	r2, [r7, #4]
    1c42:	6893      	ldr	r3, [r2, #8]
    1c44:	f361 23cb 	bfi	r3, r1, #11, #1
    1c48:	6093      	str	r3, [r2, #8]
    1c4a:	683b      	ldr	r3, [r7, #0]
    1c4c:	7a1b      	ldrb	r3, [r3, #8]
    1c4e:	f003 0301 	and.w	r3, r3, #1
    1c52:	b2d9      	uxtb	r1, r3
    1c54:	687a      	ldr	r2, [r7, #4]
    1c56:	6893      	ldr	r3, [r2, #8]
    1c58:	f361 238a 	bfi	r3, r1, #10, #1
    1c5c:	6093      	str	r3, [r2, #8]
    1c5e:	683b      	ldr	r3, [r7, #0]
    1c60:	7a5b      	ldrb	r3, [r3, #9]
    1c62:	f003 0301 	and.w	r3, r3, #1
    1c66:	b2d9      	uxtb	r1, r3
    1c68:	687a      	ldr	r2, [r7, #4]
    1c6a:	6893      	ldr	r3, [r2, #8]
    1c6c:	f361 2349 	bfi	r3, r1, #9, #1
    1c70:	6093      	str	r3, [r2, #8]
    1c72:	683b      	ldr	r3, [r7, #0]
    1c74:	7a9b      	ldrb	r3, [r3, #10]
    1c76:	f003 0301 	and.w	r3, r3, #1
    1c7a:	b2d9      	uxtb	r1, r3
    1c7c:	687a      	ldr	r2, [r7, #4]
    1c7e:	6893      	ldr	r3, [r2, #8]
    1c80:	f361 2308 	bfi	r3, r1, #8, #1
    1c84:	6093      	str	r3, [r2, #8]
    1c86:	683b      	ldr	r3, [r7, #0]
    1c88:	7adb      	ldrb	r3, [r3, #11]
    1c8a:	f003 0301 	and.w	r3, r3, #1
    1c8e:	b2d9      	uxtb	r1, r3
    1c90:	687a      	ldr	r2, [r7, #4]
    1c92:	6893      	ldr	r3, [r2, #8]
    1c94:	f361 13c7 	bfi	r3, r1, #7, #1
    1c98:	6093      	str	r3, [r2, #8]
    1c9a:	683b      	ldr	r3, [r7, #0]
    1c9c:	7b1b      	ldrb	r3, [r3, #12]
    1c9e:	f003 0301 	and.w	r3, r3, #1
    1ca2:	b2d9      	uxtb	r1, r3
    1ca4:	687a      	ldr	r2, [r7, #4]
    1ca6:	6893      	ldr	r3, [r2, #8]
    1ca8:	f361 1304 	bfi	r3, r1, #4, #1
    1cac:	6093      	str	r3, [r2, #8]
    1cae:	683b      	ldr	r3, [r7, #0]
    1cb0:	7b5b      	ldrb	r3, [r3, #13]
    1cb2:	f003 0301 	and.w	r3, r3, #1
    1cb6:	b2d9      	uxtb	r1, r3
    1cb8:	687a      	ldr	r2, [r7, #4]
    1cba:	6893      	ldr	r3, [r2, #8]
    1cbc:	f361 03c3 	bfi	r3, r1, #3, #1
    1cc0:	6093      	str	r3, [r2, #8]
    1cc2:	683b      	ldr	r3, [r7, #0]
    1cc4:	7b9b      	ldrb	r3, [r3, #14]
    1cc6:	f003 0301 	and.w	r3, r3, #1
    1cca:	b2d9      	uxtb	r1, r3
    1ccc:	687a      	ldr	r2, [r7, #4]
    1cce:	6893      	ldr	r3, [r2, #8]
    1cd0:	f361 0382 	bfi	r3, r1, #2, #1
    1cd4:	6093      	str	r3, [r2, #8]
    1cd6:	683b      	ldr	r3, [r7, #0]
    1cd8:	7bdb      	ldrb	r3, [r3, #15]
    1cda:	f003 0301 	and.w	r3, r3, #1
    1cde:	b2d9      	uxtb	r1, r3
    1ce0:	687a      	ldr	r2, [r7, #4]
    1ce2:	6893      	ldr	r3, [r2, #8]
    1ce4:	f361 0341 	bfi	r3, r1, #1, #1
    1ce8:	6093      	str	r3, [r2, #8]
    1cea:	683b      	ldr	r3, [r7, #0]
    1cec:	7c1b      	ldrb	r3, [r3, #16]
    1cee:	f003 0301 	and.w	r3, r3, #1
    1cf2:	b2d9      	uxtb	r1, r3
    1cf4:	687a      	ldr	r2, [r7, #4]
    1cf6:	6893      	ldr	r3, [r2, #8]
    1cf8:	f361 0300 	bfi	r3, r1, #0, #1
    1cfc:	6093      	str	r3, [r2, #8]
    1cfe:	683b      	ldr	r3, [r7, #0]
    1d00:	7c5b      	ldrb	r3, [r3, #17]
    1d02:	f003 031f 	and.w	r3, r3, #31
    1d06:	b2d9      	uxtb	r1, r3
    1d08:	687a      	ldr	r2, [r7, #4]
    1d0a:	68d3      	ldr	r3, [r2, #12]
    1d0c:	f361 238e 	bfi	r3, r1, #10, #5
    1d10:	60d3      	str	r3, [r2, #12]
    1d12:	683b      	ldr	r3, [r7, #0]
    1d14:	7c9b      	ldrb	r3, [r3, #18]
    1d16:	f003 031f 	and.w	r3, r3, #31
    1d1a:	b2d9      	uxtb	r1, r3
    1d1c:	687a      	ldr	r2, [r7, #4]
    1d1e:	68d3      	ldr	r3, [r2, #12]
    1d20:	f361 1349 	bfi	r3, r1, #5, #5
    1d24:	60d3      	str	r3, [r2, #12]
    1d26:	683b      	ldr	r3, [r7, #0]
    1d28:	7cdb      	ldrb	r3, [r3, #19]
    1d2a:	f003 031f 	and.w	r3, r3, #31
    1d2e:	b2d9      	uxtb	r1, r3
    1d30:	687a      	ldr	r2, [r7, #4]
    1d32:	68d3      	ldr	r3, [r2, #12]
    1d34:	f361 0304 	bfi	r3, r1, #0, #5
    1d38:	60d3      	str	r3, [r2, #12]
    1d3a:	683b      	ldr	r3, [r7, #0]
    1d3c:	7d1b      	ldrb	r3, [r3, #20]
    1d3e:	f003 031f 	and.w	r3, r3, #31
    1d42:	b2d9      	uxtb	r1, r3
    1d44:	687a      	ldr	r2, [r7, #4]
    1d46:	68d3      	ldr	r3, [r2, #12]
    1d48:	f361 639e 	bfi	r3, r1, #26, #5
    1d4c:	60d3      	str	r3, [r2, #12]
    1d4e:	683b      	ldr	r3, [r7, #0]
    1d50:	7d5b      	ldrb	r3, [r3, #21]
    1d52:	f003 031f 	and.w	r3, r3, #31
    1d56:	b2d9      	uxtb	r1, r3
    1d58:	687a      	ldr	r2, [r7, #4]
    1d5a:	68d3      	ldr	r3, [r2, #12]
    1d5c:	f361 5359 	bfi	r3, r1, #21, #5
    1d60:	60d3      	str	r3, [r2, #12]
    1d62:	683b      	ldr	r3, [r7, #0]
    1d64:	7d9b      	ldrb	r3, [r3, #22]
    1d66:	f003 031f 	and.w	r3, r3, #31
    1d6a:	b2d9      	uxtb	r1, r3
    1d6c:	687a      	ldr	r2, [r7, #4]
    1d6e:	68d3      	ldr	r3, [r2, #12]
    1d70:	f361 4314 	bfi	r3, r1, #16, #5
    1d74:	60d3      	str	r3, [r2, #12]
    1d76:	683b      	ldr	r3, [r7, #0]
    1d78:	699a      	ldr	r2, [r3, #24]
    1d7a:	687b      	ldr	r3, [r7, #4]
    1d7c:	611a      	str	r2, [r3, #16]
    1d7e:	683b      	ldr	r3, [r7, #0]
    1d80:	69da      	ldr	r2, [r3, #28]
    1d82:	687b      	ldr	r3, [r7, #4]
    1d84:	615a      	str	r2, [r3, #20]
    1d86:	683b      	ldr	r3, [r7, #0]
    1d88:	f893 3025 	ldrb.w	r3, [r3, #37]	@ 0x25
    1d8c:	2b01      	cmp	r3, #1
    1d8e:	bf14      	ite	ne
    1d90:	2301      	movne	r3, #1
    1d92:	2300      	moveq	r3, #0
    1d94:	b2db      	uxtb	r3, r3
    1d96:	f003 0301 	and.w	r3, r3, #1
    1d9a:	b2d9      	uxtb	r1, r3
    1d9c:	687a      	ldr	r2, [r7, #4]
    1d9e:	6a13      	ldr	r3, [r2, #32]
    1da0:	f361 6359 	bfi	r3, r1, #25, #1
    1da4:	6213      	str	r3, [r2, #32]
    1da6:	683b      	ldr	r3, [r7, #0]
    1da8:	f893 3026 	ldrb.w	r3, [r3, #38]	@ 0x26
    1dac:	2b01      	cmp	r3, #1
    1dae:	bf14      	ite	ne
    1db0:	2301      	movne	r3, #1
    1db2:	2300      	moveq	r3, #0
    1db4:	b2db      	uxtb	r3, r3
    1db6:	f003 0301 	and.w	r3, r3, #1
    1dba:	b2d9      	uxtb	r1, r3
    1dbc:	687a      	ldr	r2, [r7, #4]
    1dbe:	6a13      	ldr	r3, [r2, #32]
    1dc0:	f361 4351 	bfi	r3, r1, #17, #1
    1dc4:	6213      	str	r3, [r2, #32]
    1dc6:	683b      	ldr	r3, [r7, #0]
    1dc8:	f893 3020 	ldrb.w	r3, [r3, #32]
    1dcc:	f003 030f 	and.w	r3, r3, #15
    1dd0:	b2d9      	uxtb	r1, r3
    1dd2:	687a      	ldr	r2, [r7, #4]
    1dd4:	6a13      	ldr	r3, [r2, #32]
    1dd6:	f361 230b 	bfi	r3, r1, #8, #4
    1dda:	6213      	str	r3, [r2, #32]
    1ddc:	683b      	ldr	r3, [r7, #0]
    1dde:	f893 3021 	ldrb.w	r3, [r3, #33]	@ 0x21
    1de2:	f003 030f 	and.w	r3, r3, #15
    1de6:	b2d9      	uxtb	r1, r3
    1de8:	687a      	ldr	r2, [r7, #4]
    1dea:	6a13      	ldr	r3, [r2, #32]
    1dec:	f361 0303 	bfi	r3, r1, #0, #4
    1df0:	6213      	str	r3, [r2, #32]
    1df2:	683b      	ldr	r3, [r7, #0]
    1df4:	f893 3022 	ldrb.w	r3, [r3, #34]	@ 0x22
    1df8:	2b03      	cmp	r3, #3
    1dfa:	d825      	bhi.n	1e48 <I2s_Init+0x2ac>
    1dfc:	a201      	add	r2, pc, #4	@ (adr r2, 1e04 <I2s_Init+0x268>)
    1dfe:	f852 f023 	ldr.w	pc, [r2, r3, lsl #2]
    1e02:	bf00      	nop
    1e04:	00001e15 	.word	0x00001e15
    1e08:	00001e21 	.word	0x00001e21
    1e0c:	00001e2f 	.word	0x00001e2f
    1e10:	00001e3d 	.word	0x00001e3d
    1e14:	687a      	ldr	r2, [r7, #4]
    1e16:	6a13      	ldr	r3, [r2, #32]
    1e18:	f023 0330 	bic.w	r3, r3, #48	@ 0x30
    1e1c:	6213      	str	r3, [r2, #32]
    1e1e:	e015      	b.n	1e4c <I2s_Init+0x2b0>
    1e20:	687a      	ldr	r2, [r7, #4]
    1e22:	6a13      	ldr	r3, [r2, #32]
    1e24:	2101      	movs	r1, #1
    1e26:	f361 1305 	bfi	r3, r1, #4, #2
    1e2a:	6213      	str	r3, [r2, #32]
    1e2c:	e00e      	b.n	1e4c <I2s_Init+0x2b0>
    1e2e:	687a      	ldr	r2, [r7, #4]
    1e30:	6a13      	ldr	r3, [r2, #32]
    1e32:	2102      	movs	r1, #2
    1e34:	f361 1305 	bfi	r3, r1, #4, #2
    1e38:	6213      	str	r3, [r2, #32]
    1e3a:	e007      	b.n	1e4c <I2s_Init+0x2b0>
    1e3c:	687a      	ldr	r2, [r7, #4]
    1e3e:	6a13      	ldr	r3, [r2, #32]
    1e40:	f043 0330 	orr.w	r3, r3, #48	@ 0x30
    1e44:	6213      	str	r3, [r2, #32]
    1e46:	e001      	b.n	1e4c <I2s_Init+0x2b0>
    1e48:	2304      	movs	r3, #4
    1e4a:	e132      	b.n	20b2 <I2s_Init+0x516>
    1e4c:	683b      	ldr	r3, [r7, #0]
    1e4e:	6a9b      	ldr	r3, [r3, #40]	@ 0x28
    1e50:	2b00      	cmp	r3, #0
    1e52:	f000 80b0 	beq.w	1fb6 <I2s_Init+0x41a>
    1e56:	683b      	ldr	r3, [r7, #0]
    1e58:	6a9b      	ldr	r3, [r3, #40]	@ 0x28
    1e5a:	781b      	ldrb	r3, [r3, #0]
    1e5c:	2b01      	cmp	r3, #1
    1e5e:	bf14      	ite	ne
    1e60:	2301      	movne	r3, #1
    1e62:	2300      	moveq	r3, #0
    1e64:	b2db      	uxtb	r3, r3
    1e66:	f003 0301 	and.w	r3, r3, #1
    1e6a:	b2d9      	uxtb	r1, r3
    1e6c:	687a      	ldr	r2, [r7, #4]
    1e6e:	6a13      	ldr	r3, [r2, #32]
    1e70:	f361 63db 	bfi	r3, r1, #27, #1
    1e74:	6213      	str	r3, [r2, #32]
    1e76:	683b      	ldr	r3, [r7, #0]
    1e78:	6a9b      	ldr	r3, [r3, #40]	@ 0x28
    1e7a:	785b      	ldrb	r3, [r3, #1]
    1e7c:	2b01      	cmp	r3, #1
    1e7e:	bf14      	ite	ne
    1e80:	2301      	movne	r3, #1
    1e82:	2300      	moveq	r3, #0
    1e84:	b2db      	uxtb	r3, r3
    1e86:	f003 0301 	and.w	r3, r3, #1
    1e8a:	b2d9      	uxtb	r1, r3
    1e8c:	687a      	ldr	r2, [r7, #4]
    1e8e:	6a13      	ldr	r3, [r2, #32]
    1e90:	f361 739e 	bfi	r3, r1, #30, #1
    1e94:	6213      	str	r3, [r2, #32]
    1e96:	683b      	ldr	r3, [r7, #0]
    1e98:	6a9b      	ldr	r3, [r3, #40]	@ 0x28
    1e9a:	789b      	ldrb	r3, [r3, #2]
    1e9c:	2b01      	cmp	r3, #1
    1e9e:	bf14      	ite	ne
    1ea0:	2301      	movne	r3, #1
    1ea2:	2300      	moveq	r3, #0
    1ea4:	b2db      	uxtb	r3, r3
    1ea6:	f003 0301 	and.w	r3, r3, #1
    1eaa:	b2d9      	uxtb	r1, r3
    1eac:	687a      	ldr	r2, [r7, #4]
    1eae:	6a13      	ldr	r3, [r2, #32]
    1eb0:	f361 735d 	bfi	r3, r1, #29, #1
    1eb4:	6213      	str	r3, [r2, #32]
    1eb6:	683b      	ldr	r3, [r7, #0]
    1eb8:	6a9b      	ldr	r3, [r3, #40]	@ 0x28
    1eba:	78db      	ldrb	r3, [r3, #3]
    1ebc:	2b01      	cmp	r3, #1
    1ebe:	bf14      	ite	ne
    1ec0:	2301      	movne	r3, #1
    1ec2:	2300      	moveq	r3, #0
    1ec4:	b2db      	uxtb	r3, r3
    1ec6:	f003 0301 	and.w	r3, r3, #1
    1eca:	b2d9      	uxtb	r1, r3
    1ecc:	687a      	ldr	r2, [r7, #4]
    1ece:	6a13      	ldr	r3, [r2, #32]
    1ed0:	f361 731c 	bfi	r3, r1, #28, #1
    1ed4:	6213      	str	r3, [r2, #32]
    1ed6:	683b      	ldr	r3, [r7, #0]
    1ed8:	6a9b      	ldr	r3, [r3, #40]	@ 0x28
    1eda:	791b      	ldrb	r3, [r3, #4]
    1edc:	2b01      	cmp	r3, #1
    1ede:	bf14      	ite	ne
    1ee0:	2301      	movne	r3, #1
    1ee2:	2300      	moveq	r3, #0
    1ee4:	b2db      	uxtb	r3, r3
    1ee6:	f003 0301 	and.w	r3, r3, #1
    1eea:	b2d9      	uxtb	r1, r3
    1eec:	687a      	ldr	r2, [r7, #4]
    1eee:	6a13      	ldr	r3, [r2, #32]
    1ef0:	f361 639a 	bfi	r3, r1, #26, #1
    1ef4:	6213      	str	r3, [r2, #32]
    1ef6:	683b      	ldr	r3, [r7, #0]
    1ef8:	6a9b      	ldr	r3, [r3, #40]	@ 0x28
    1efa:	795b      	ldrb	r3, [r3, #5]
    1efc:	2b01      	cmp	r3, #1
    1efe:	bf14      	ite	ne
    1f00:	2301      	movne	r3, #1
    1f02:	2300      	moveq	r3, #0
    1f04:	b2db      	uxtb	r3, r3
    1f06:	f003 0301 	and.w	r3, r3, #1
    1f0a:	b2d9      	uxtb	r1, r3
    1f0c:	687a      	ldr	r2, [r7, #4]
    1f0e:	6a13      	ldr	r3, [r2, #32]
    1f10:	f361 6318 	bfi	r3, r1, #24, #1
    1f14:	6213      	str	r3, [r2, #32]
    1f16:	683b      	ldr	r3, [r7, #0]
    1f18:	6a9b      	ldr	r3, [r3, #40]	@ 0x28
    1f1a:	799b      	ldrb	r3, [r3, #6]
    1f1c:	2b01      	cmp	r3, #1
    1f1e:	bf14      	ite	ne
    1f20:	2301      	movne	r3, #1
    1f22:	2300      	moveq	r3, #0
    1f24:	b2db      	uxtb	r3, r3
    1f26:	f003 0301 	and.w	r3, r3, #1
    1f2a:	b2d9      	uxtb	r1, r3
    1f2c:	687a      	ldr	r2, [r7, #4]
    1f2e:	6a13      	ldr	r3, [r2, #32]
    1f30:	f361 5355 	bfi	r3, r1, #21, #1
    1f34:	6213      	str	r3, [r2, #32]
    1f36:	683b      	ldr	r3, [r7, #0]
    1f38:	6a9b      	ldr	r3, [r3, #40]	@ 0x28
    1f3a:	79db      	ldrb	r3, [r3, #7]
    1f3c:	2b01      	cmp	r3, #1
    1f3e:	bf14      	ite	ne
    1f40:	2301      	movne	r3, #1
    1f42:	2300      	moveq	r3, #0
    1f44:	b2db      	uxtb	r3, r3
    1f46:	f003 0301 	and.w	r3, r3, #1
    1f4a:	b2d9      	uxtb	r1, r3
    1f4c:	687a      	ldr	r2, [r7, #4]
    1f4e:	6a13      	ldr	r3, [r2, #32]
    1f50:	f361 5314 	bfi	r3, r1, #20, #1
    1f54:	6213      	str	r3, [r2, #32]
    1f56:	683b      	ldr	r3, [r7, #0]
    1f58:	6a9b      	ldr	r3, [r3, #40]	@ 0x28
    1f5a:	7a1b      	ldrb	r3, [r3, #8]
    1f5c:	2b01      	cmp	r3, #1
    1f5e:	bf14      	ite	ne
    1f60:	2301      	movne	r3, #1
    1f62:	2300      	moveq	r3, #0
    1f64:	b2db      	uxtb	r3, r3
    1f66:	f003 0301 	and.w	r3, r3, #1
    1f6a:	b2d9      	uxtb	r1, r3
    1f6c:	687a      	ldr	r2, [r7, #4]
    1f6e:	6a13      	ldr	r3, [r2, #32]
    1f70:	f361 43d3 	bfi	r3, r1, #19, #1
    1f74:	6213      	str	r3, [r2, #32]
    1f76:	683b      	ldr	r3, [r7, #0]
    1f78:	6a9b      	ldr	r3, [r3, #40]	@ 0x28
    1f7a:	7a5b      	ldrb	r3, [r3, #9]
    1f7c:	2b01      	cmp	r3, #1
    1f7e:	bf14      	ite	ne
    1f80:	2301      	movne	r3, #1
    1f82:	2300      	moveq	r3, #0
    1f84:	b2db      	uxtb	r3, r3
    1f86:	f003 0301 	and.w	r3, r3, #1
    1f8a:	b2d9      	uxtb	r1, r3
    1f8c:	687a      	ldr	r2, [r7, #4]
    1f8e:	6a13      	ldr	r3, [r2, #32]
    1f90:	f361 4392 	bfi	r3, r1, #18, #1
    1f94:	6213      	str	r3, [r2, #32]
    1f96:	683b      	ldr	r3, [r7, #0]
    1f98:	6a9b      	ldr	r3, [r3, #40]	@ 0x28
    1f9a:	7a9b      	ldrb	r3, [r3, #10]
    1f9c:	2b01      	cmp	r3, #1
    1f9e:	bf14      	ite	ne
    1fa0:	2301      	movne	r3, #1
    1fa2:	2300      	moveq	r3, #0
    1fa4:	b2db      	uxtb	r3, r3
    1fa6:	f003 0301 	and.w	r3, r3, #1
    1faa:	b2d9      	uxtb	r1, r3
    1fac:	687a      	ldr	r2, [r7, #4]
    1fae:	6a13      	ldr	r3, [r2, #32]
    1fb0:	f361 4310 	bfi	r3, r1, #16, #1
    1fb4:	6213      	str	r3, [r2, #32]
    1fb6:	683b      	ldr	r3, [r7, #0]
    1fb8:	6adb      	ldr	r3, [r3, #44]	@ 0x2c
    1fba:	2b00      	cmp	r3, #0
    1fbc:	d036      	beq.n	202c <I2s_Init+0x490>
    1fbe:	683b      	ldr	r3, [r7, #0]
    1fc0:	6adb      	ldr	r3, [r3, #44]	@ 0x2c
    1fc2:	681a      	ldr	r2, [r3, #0]
    1fc4:	68fb      	ldr	r3, [r7, #12]
    1fc6:	601a      	str	r2, [r3, #0]
    1fc8:	683b      	ldr	r3, [r7, #0]
    1fca:	6adb      	ldr	r3, [r3, #44]	@ 0x2c
    1fcc:	685a      	ldr	r2, [r3, #4]
    1fce:	68fb      	ldr	r3, [r7, #12]
    1fd0:	605a      	str	r2, [r3, #4]
    1fd2:	683b      	ldr	r3, [r7, #0]
    1fd4:	6adb      	ldr	r3, [r3, #44]	@ 0x2c
    1fd6:	689a      	ldr	r2, [r3, #8]
    1fd8:	68fb      	ldr	r3, [r7, #12]
    1fda:	609a      	str	r2, [r3, #8]
    1fdc:	683b      	ldr	r3, [r7, #0]
    1fde:	6adb      	ldr	r3, [r3, #44]	@ 0x2c
    1fe0:	68da      	ldr	r2, [r3, #12]
    1fe2:	68fb      	ldr	r3, [r7, #12]
    1fe4:	60da      	str	r2, [r3, #12]
    1fe6:	683b      	ldr	r3, [r7, #0]
    1fe8:	6adb      	ldr	r3, [r3, #44]	@ 0x2c
    1fea:	691a      	ldr	r2, [r3, #16]
    1fec:	68fb      	ldr	r3, [r7, #12]
    1fee:	611a      	str	r2, [r3, #16]
    1ff0:	683b      	ldr	r3, [r7, #0]
    1ff2:	6adb      	ldr	r3, [r3, #44]	@ 0x2c
    1ff4:	695a      	ldr	r2, [r3, #20]
    1ff6:	68fb      	ldr	r3, [r7, #12]
    1ff8:	615a      	str	r2, [r3, #20]
    1ffa:	683b      	ldr	r3, [r7, #0]
    1ffc:	6adb      	ldr	r3, [r3, #44]	@ 0x2c
    1ffe:	699a      	ldr	r2, [r3, #24]
    2000:	68fb      	ldr	r3, [r7, #12]
    2002:	619a      	str	r2, [r3, #24]
    2004:	683b      	ldr	r3, [r7, #0]
    2006:	6adb      	ldr	r3, [r3, #44]	@ 0x2c
    2008:	69da      	ldr	r2, [r3, #28]
    200a:	68fb      	ldr	r3, [r7, #12]
    200c:	61da      	str	r2, [r3, #28]
    200e:	683b      	ldr	r3, [r7, #0]
    2010:	6adb      	ldr	r3, [r3, #44]	@ 0x2c
    2012:	6a1a      	ldr	r2, [r3, #32]
    2014:	68fb      	ldr	r3, [r7, #12]
    2016:	621a      	str	r2, [r3, #32]
    2018:	683b      	ldr	r3, [r7, #0]
    201a:	6adb      	ldr	r3, [r3, #44]	@ 0x2c
    201c:	6a5a      	ldr	r2, [r3, #36]	@ 0x24
    201e:	68fb      	ldr	r3, [r7, #12]
    2020:	625a      	str	r2, [r3, #36]	@ 0x24
    2022:	683b      	ldr	r3, [r7, #0]
    2024:	6adb      	ldr	r3, [r3, #44]	@ 0x2c
    2026:	6a9a      	ldr	r2, [r3, #40]	@ 0x28
    2028:	68fb      	ldr	r3, [r7, #12]
    202a:	629a      	str	r2, [r3, #40]	@ 0x28
    202c:	683b      	ldr	r3, [r7, #0]
    202e:	f893 3030 	ldrb.w	r3, [r3, #48]	@ 0x30
    2032:	2b01      	cmp	r3, #1
    2034:	d102      	bne.n	203c <I2s_Init+0x4a0>
    2036:	6878      	ldr	r0, [r7, #4]
    2038:	f7ff fd5d 	bl	1af6 <I2sInitNvic>
    203c:	683b      	ldr	r3, [r7, #0]
    203e:	f893 3023 	ldrb.w	r3, [r3, #35]	@ 0x23
    2042:	2b00      	cmp	r3, #0
    2044:	bf14      	ite	ne
    2046:	2301      	movne	r3, #1
    2048:	2300      	moveq	r3, #0
    204a:	b2db      	uxtb	r3, r3
    204c:	f003 0301 	and.w	r3, r3, #1
    2050:	b2d9      	uxtb	r1, r3
    2052:	687a      	ldr	r2, [r7, #4]
    2054:	6993      	ldr	r3, [r2, #24]
    2056:	f361 4310 	bfi	r3, r1, #16, #1
    205a:	6193      	str	r3, [r2, #24]
    205c:	683b      	ldr	r3, [r7, #0]
    205e:	f893 3023 	ldrb.w	r3, [r3, #35]	@ 0x23
    2062:	2b00      	cmp	r3, #0
    2064:	d101      	bne.n	206a <I2s_Init+0x4ce>
    2066:	2101      	movs	r1, #1
    2068:	e000      	b.n	206c <I2s_Init+0x4d0>
    206a:	2100      	movs	r1, #0
    206c:	687a      	ldr	r2, [r7, #4]
    206e:	6893      	ldr	r3, [r2, #8]
    2070:	f361 1386 	bfi	r3, r1, #6, #1
    2074:	6093      	str	r3, [r2, #8]
    2076:	683b      	ldr	r3, [r7, #0]
    2078:	f893 3024 	ldrb.w	r3, [r3, #36]	@ 0x24
    207c:	2b00      	cmp	r3, #0
    207e:	bf14      	ite	ne
    2080:	2301      	movne	r3, #1
    2082:	2300      	moveq	r3, #0
    2084:	b2db      	uxtb	r3, r3
    2086:	f003 0301 	and.w	r3, r3, #1
    208a:	b2d9      	uxtb	r1, r3
    208c:	687a      	ldr	r2, [r7, #4]
    208e:	6993      	ldr	r3, [r2, #24]
    2090:	f361 6318 	bfi	r3, r1, #24, #1
    2094:	6193      	str	r3, [r2, #24]
    2096:	683b      	ldr	r3, [r7, #0]
    2098:	f893 3024 	ldrb.w	r3, [r3, #36]	@ 0x24
    209c:	2b00      	cmp	r3, #0
    209e:	d101      	bne.n	20a4 <I2s_Init+0x508>
    20a0:	2101      	movs	r1, #1
    20a2:	e000      	b.n	20a6 <I2s_Init+0x50a>
    20a4:	2100      	movs	r1, #0
    20a6:	687a      	ldr	r2, [r7, #4]
    20a8:	6893      	ldr	r3, [r2, #8]
    20aa:	f361 1345 	bfi	r3, r1, #5, #1
    20ae:	6093      	str	r3, [r2, #8]
    20b0:	2300      	movs	r3, #0
    20b2:	4618      	mov	r0, r3
    20b4:	3710      	adds	r7, #16
    20b6:	46bd      	mov	sp, r7
    20b8:	bd80      	pop	{r7, pc}
    20ba:	bf00      	nop

000020bc <I2s_Start>:
    20bc:	b480      	push	{r7}
    20be:	b083      	sub	sp, #12
    20c0:	af00      	add	r7, sp, #0
    20c2:	6078      	str	r0, [r7, #4]
    20c4:	687a      	ldr	r2, [r7, #4]
    20c6:	6993      	ldr	r3, [r2, #24]
    20c8:	f043 0301 	orr.w	r3, r3, #1
    20cc:	6193      	str	r3, [r2, #24]
    20ce:	2300      	movs	r3, #0
    20d0:	4618      	mov	r0, r3
    20d2:	370c      	adds	r7, #12
    20d4:	46bd      	mov	sp, r7
    20d6:	f85d 7b04 	ldr.w	r7, [sp], #4
    20da:	4770      	bx	lr

000020dc <I2s_EnableTx>:
    20dc:	b480      	push	{r7}
    20de:	b083      	sub	sp, #12
    20e0:	af00      	add	r7, sp, #0
    20e2:	6078      	str	r0, [r7, #4]
    20e4:	687a      	ldr	r2, [r7, #4]
    20e6:	6993      	ldr	r3, [r2, #24]
    20e8:	f443 3380 	orr.w	r3, r3, #65536	@ 0x10000
    20ec:	6193      	str	r3, [r2, #24]
    20ee:	687a      	ldr	r2, [r7, #4]
    20f0:	6893      	ldr	r3, [r2, #8]
    20f2:	f023 0340 	bic.w	r3, r3, #64	@ 0x40
    20f6:	6093      	str	r3, [r2, #8]
    20f8:	2300      	movs	r3, #0
    20fa:	4618      	mov	r0, r3
    20fc:	370c      	adds	r7, #12
    20fe:	46bd      	mov	sp, r7
    2100:	f85d 7b04 	ldr.w	r7, [sp], #4
    2104:	4770      	bx	lr

00002106 <I2s_EnableRx>:
    2106:	b480      	push	{r7}
    2108:	b083      	sub	sp, #12
    210a:	af00      	add	r7, sp, #0
    210c:	6078      	str	r0, [r7, #4]
    210e:	687a      	ldr	r2, [r7, #4]
    2110:	6993      	ldr	r3, [r2, #24]
    2112:	f043 7380 	orr.w	r3, r3, #16777216	@ 0x1000000
    2116:	6193      	str	r3, [r2, #24]
    2118:	687a      	ldr	r2, [r7, #4]
    211a:	6893      	ldr	r3, [r2, #8]
    211c:	f023 0320 	bic.w	r3, r3, #32
    2120:	6093      	str	r3, [r2, #8]
    2122:	2300      	movs	r3, #0
    2124:	4618      	mov	r0, r3
    2126:	370c      	adds	r7, #12
    2128:	46bd      	mov	sp, r7
    212a:	f85d 7b04 	ldr.w	r7, [sp], #4
    212e:	4770      	bx	lr

00002130 <PCRC_I2S0_1_IRQHandler>:
    2130:	b580      	push	{r7, lr}
    2132:	b082      	sub	sp, #8
    2134:	af00      	add	r7, sp, #0
    2136:	4b08      	ldr	r3, [pc, #32]	@ (2158 <PCRC_I2S0_1_IRQHandler+0x28>)
    2138:	f8d3 33d8 	ldr.w	r3, [r3, #984]	@ 0x3d8
    213c:	607b      	str	r3, [r7, #4]
    213e:	687b      	ldr	r3, [r7, #4]
    2140:	f003 0301 	and.w	r3, r3, #1
    2144:	2b00      	cmp	r3, #0
    2146:	d003      	beq.n	2150 <PCRC_I2S0_1_IRQHandler+0x20>
    2148:	4904      	ldr	r1, [pc, #16]	@ (215c <PCRC_I2S0_1_IRQHandler+0x2c>)
    214a:	4805      	ldr	r0, [pc, #20]	@ (2160 <PCRC_I2S0_1_IRQHandler+0x30>)
    214c:	f7ff fc02 	bl	1954 <I2sIrqHandler>
    2150:	bf00      	nop
    2152:	3708      	adds	r7, #8
    2154:	46bd      	mov	sp, r7
    2156:	bd80      	pop	{r7, pc}
    2158:	40031000 	.word	0x40031000
    215c:	1ffd0050 	.word	0x1ffd0050
    2160:	4006c000 	.word	0x4006c000

00002164 <DSTC_HW_IRQHandler>:
    2164:	b580      	push	{r7, lr}
    2166:	af00      	add	r7, sp, #0
    2168:	20da      	movs	r0, #218	@ 0xda
    216a:	f7ff fac5 	bl	16f8 <Dstc_ReadHwintBit>
    216e:	4603      	mov	r3, r0
    2170:	2b01      	cmp	r3, #1
    2172:	d102      	bne.n	217a <DSTC_HW_IRQHandler+0x16>
    2174:	20da      	movs	r0, #218	@ 0xda
    2176:	f7ff fb31 	bl	17dc <Dstc_I2sIrqHandler>
    217a:	20db      	movs	r0, #219	@ 0xdb
    217c:	f7ff fabc 	bl	16f8 <Dstc_ReadHwintBit>
    2180:	4603      	mov	r3, r0
    2182:	2b01      	cmp	r3, #1
    2184:	d102      	bne.n	218c <DSTC_HW_IRQHandler+0x28>
    2186:	20db      	movs	r0, #219	@ 0xdb
    2188:	f7ff fb28 	bl	17dc <Dstc_I2sIrqHandler>
    218c:	bf00      	nop
    218e:	bd80      	pop	{r7, pc}

00002190 <I2cCheckErrorStatus>:
    2190:	b580      	push	{r7, lr}
    2192:	af00      	add	r7, sp, #0
    2194:	4b0c      	ldr	r3, [pc, #48]	@ (21c8 <I2cCheckErrorStatus+0x38>)
    2196:	681b      	ldr	r3, [r3, #0]
    2198:	2109      	movs	r1, #9
    219a:	4618      	mov	r0, r3
    219c:	f7fe fe4e 	bl	e3c <Mfs_I2c_GetStatus>
    21a0:	4603      	mov	r3, r0
    21a2:	2b01      	cmp	r3, #1
    21a4:	d101      	bne.n	21aa <I2cCheckErrorStatus+0x1a>
    21a6:	2301      	movs	r3, #1
    21a8:	e00b      	b.n	21c2 <I2cCheckErrorStatus+0x32>
    21aa:	4b07      	ldr	r3, [pc, #28]	@ (21c8 <I2cCheckErrorStatus+0x38>)
    21ac:	681b      	ldr	r3, [r3, #0]
    21ae:	2100      	movs	r1, #0
    21b0:	4618      	mov	r0, r3
    21b2:	f7fe fe43 	bl	e3c <Mfs_I2c_GetStatus>
    21b6:	4603      	mov	r3, r0
    21b8:	2b01      	cmp	r3, #1
    21ba:	d101      	bne.n	21c0 <I2cCheckErrorStatus+0x30>
    21bc:	2301      	movs	r3, #1
    21be:	e000      	b.n	21c2 <I2cCheckErrorStatus+0x32>
    21c0:	2300      	movs	r3, #0
    21c2:	4618      	mov	r0, r3
    21c4:	bd80      	pop	{r7, pc}
    21c6:	bf00      	nop
    21c8:	1ffd0778 	.word	0x1ffd0778

000021cc <I2cStart>:
    21cc:	b580      	push	{r7, lr}
    21ce:	b082      	sub	sp, #8
    21d0:	af00      	add	r7, sp, #0
    21d2:	4603      	mov	r3, r0
    21d4:	71fb      	strb	r3, [r7, #7]
    21d6:	4b1c      	ldr	r3, [pc, #112]	@ (2248 <I2cStart+0x7c>)
    21d8:	681b      	ldr	r3, [r3, #0]
    21da:	79fa      	ldrb	r2, [r7, #7]
    21dc:	4611      	mov	r1, r2
    21de:	4618      	mov	r0, r3
    21e0:	f7fe fdda 	bl	d98 <Mfs_I2c_SendData>
    21e4:	4b18      	ldr	r3, [pc, #96]	@ (2248 <I2cStart+0x7c>)
    21e6:	681b      	ldr	r3, [r3, #0]
    21e8:	2100      	movs	r1, #0
    21ea:	4618      	mov	r0, r3
    21ec:	f7fe fdea 	bl	dc4 <Mfs_I2c_ConfigAck>
    21f0:	4b15      	ldr	r3, [pc, #84]	@ (2248 <I2cStart+0x7c>)
    21f2:	681b      	ldr	r3, [r3, #0]
    21f4:	4618      	mov	r0, r3
    21f6:	f7fe fd6d 	bl	cd4 <Mfs_I2c_GenerateStart>
    21fa:	4603      	mov	r3, r0
    21fc:	2b00      	cmp	r3, #0
    21fe:	d001      	beq.n	2204 <I2cStart+0x38>
    2200:	2309      	movs	r3, #9
    2202:	e01c      	b.n	223e <I2cStart+0x72>
    2204:	4b10      	ldr	r3, [pc, #64]	@ (2248 <I2cStart+0x7c>)
    2206:	681b      	ldr	r3, [r3, #0]
    2208:	210a      	movs	r1, #10
    220a:	4618      	mov	r0, r3
    220c:	f7fe fe16 	bl	e3c <Mfs_I2c_GetStatus>
    2210:	4603      	mov	r3, r0
    2212:	2b01      	cmp	r3, #1
    2214:	d100      	bne.n	2218 <I2cStart+0x4c>
    2216:	e7f5      	b.n	2204 <I2cStart+0x38>
    2218:	bf00      	nop
    221a:	4b0b      	ldr	r3, [pc, #44]	@ (2248 <I2cStart+0x7c>)
    221c:	681b      	ldr	r3, [r3, #0]
    221e:	4618      	mov	r0, r3
    2220:	f7fe fdfa 	bl	e18 <Mfs_I2c_GetAck>
    2224:	4603      	mov	r3, r0
    2226:	2b01      	cmp	r3, #1
    2228:	d101      	bne.n	222e <I2cStart+0x62>
    222a:	2301      	movs	r3, #1
    222c:	e007      	b.n	223e <I2cStart+0x72>
    222e:	f7ff ffaf 	bl	2190 <I2cCheckErrorStatus>
    2232:	4603      	mov	r3, r0
    2234:	2b01      	cmp	r3, #1
    2236:	d101      	bne.n	223c <I2cStart+0x70>
    2238:	2301      	movs	r3, #1
    223a:	e000      	b.n	223e <I2cStart+0x72>
    223c:	2300      	movs	r3, #0
    223e:	4618      	mov	r0, r3
    2240:	3708      	adds	r7, #8
    2242:	46bd      	mov	sp, r7
    2244:	bd80      	pop	{r7, pc}
    2246:	bf00      	nop
    2248:	1ffd0778 	.word	0x1ffd0778

0000224c <I2cSendData>:
    224c:	b580      	push	{r7, lr}
    224e:	b084      	sub	sp, #16
    2250:	af00      	add	r7, sp, #0
    2252:	6078      	str	r0, [r7, #4]
    2254:	460b      	mov	r3, r1
    2256:	70fb      	strb	r3, [r7, #3]
    2258:	2300      	movs	r3, #0
    225a:	73fb      	strb	r3, [r7, #15]
    225c:	2300      	movs	r3, #0
    225e:	73fb      	strb	r3, [r7, #15]
    2260:	e038      	b.n	22d4 <I2cSendData+0x88>
    2262:	4b21      	ldr	r3, [pc, #132]	@ (22e8 <I2cSendData+0x9c>)
    2264:	681b      	ldr	r3, [r3, #0]
    2266:	210a      	movs	r1, #10
    2268:	4618      	mov	r0, r3
    226a:	f7fe fde7 	bl	e3c <Mfs_I2c_GetStatus>
    226e:	4603      	mov	r3, r0
    2270:	2b01      	cmp	r3, #1
    2272:	d000      	beq.n	2276 <I2cSendData+0x2a>
    2274:	e7f5      	b.n	2262 <I2cSendData+0x16>
    2276:	bf00      	nop
    2278:	4b1b      	ldr	r3, [pc, #108]	@ (22e8 <I2cSendData+0x9c>)
    227a:	6818      	ldr	r0, [r3, #0]
    227c:	7bfb      	ldrb	r3, [r7, #15]
    227e:	687a      	ldr	r2, [r7, #4]
    2280:	4413      	add	r3, r2
    2282:	781b      	ldrb	r3, [r3, #0]
    2284:	4619      	mov	r1, r3
    2286:	f7fe fd87 	bl	d98 <Mfs_I2c_SendData>
    228a:	4b17      	ldr	r3, [pc, #92]	@ (22e8 <I2cSendData+0x9c>)
    228c:	681b      	ldr	r3, [r3, #0]
    228e:	210a      	movs	r1, #10
    2290:	4618      	mov	r0, r3
    2292:	f7fe fe63 	bl	f5c <Mfs_I2c_ClrStatus>
    2296:	4b14      	ldr	r3, [pc, #80]	@ (22e8 <I2cSendData+0x9c>)
    2298:	681b      	ldr	r3, [r3, #0]
    229a:	2102      	movs	r1, #2
    229c:	4618      	mov	r0, r3
    229e:	f7fe fdcd 	bl	e3c <Mfs_I2c_GetStatus>
    22a2:	4603      	mov	r3, r0
    22a4:	2b01      	cmp	r3, #1
    22a6:	d000      	beq.n	22aa <I2cSendData+0x5e>
    22a8:	e7f5      	b.n	2296 <I2cSendData+0x4a>
    22aa:	bf00      	nop
    22ac:	4b0e      	ldr	r3, [pc, #56]	@ (22e8 <I2cSendData+0x9c>)
    22ae:	681b      	ldr	r3, [r3, #0]
    22b0:	4618      	mov	r0, r3
    22b2:	f7fe fdb1 	bl	e18 <Mfs_I2c_GetAck>
    22b6:	4603      	mov	r3, r0
    22b8:	2b01      	cmp	r3, #1
    22ba:	d101      	bne.n	22c0 <I2cSendData+0x74>
    22bc:	2301      	movs	r3, #1
    22be:	e00e      	b.n	22de <I2cSendData+0x92>
    22c0:	f7ff ff66 	bl	2190 <I2cCheckErrorStatus>
    22c4:	4603      	mov	r3, r0
    22c6:	2b01      	cmp	r3, #1
    22c8:	d101      	bne.n	22ce <I2cSendData+0x82>
    22ca:	2301      	movs	r3, #1
    22cc:	e007      	b.n	22de <I2cSendData+0x92>
    22ce:	7bfb      	ldrb	r3, [r7, #15]
    22d0:	3301      	adds	r3, #1
    22d2:	73fb      	strb	r3, [r7, #15]
    22d4:	7bfa      	ldrb	r2, [r7, #15]
    22d6:	78fb      	ldrb	r3, [r7, #3]
    22d8:	429a      	cmp	r2, r3
    22da:	d3c2      	bcc.n	2262 <I2cSendData+0x16>
    22dc:	2300      	movs	r3, #0
    22de:	4618      	mov	r0, r3
    22e0:	3710      	adds	r7, #16
    22e2:	46bd      	mov	sp, r7
    22e4:	bd80      	pop	{r7, pc}
    22e6:	bf00      	nop
    22e8:	1ffd0778 	.word	0x1ffd0778

000022ec <I2cStop>:
    22ec:	b580      	push	{r7, lr}
    22ee:	af00      	add	r7, sp, #0
    22f0:	4b17      	ldr	r3, [pc, #92]	@ (2350 <I2cStop+0x64>)
    22f2:	681b      	ldr	r3, [r3, #0]
    22f4:	4618      	mov	r0, r3
    22f6:	f7fe fd1d 	bl	d34 <Mfs_I2c_GenerateStop>
    22fa:	4603      	mov	r3, r0
    22fc:	2b00      	cmp	r3, #0
    22fe:	d001      	beq.n	2304 <I2cStop+0x18>
    2300:	2309      	movs	r3, #9
    2302:	e022      	b.n	234a <I2cStop+0x5e>
    2304:	4b12      	ldr	r3, [pc, #72]	@ (2350 <I2cStop+0x64>)
    2306:	681b      	ldr	r3, [r3, #0]
    2308:	2107      	movs	r1, #7
    230a:	4618      	mov	r0, r3
    230c:	f7fe fd96 	bl	e3c <Mfs_I2c_GetStatus>
    2310:	4603      	mov	r3, r0
    2312:	2b01      	cmp	r3, #1
    2314:	d000      	beq.n	2318 <I2cStop+0x2c>
    2316:	e7f5      	b.n	2304 <I2cStop+0x18>
    2318:	bf00      	nop
    231a:	4b0d      	ldr	r3, [pc, #52]	@ (2350 <I2cStop+0x64>)
    231c:	681b      	ldr	r3, [r3, #0]
    231e:	2109      	movs	r1, #9
    2320:	4618      	mov	r0, r3
    2322:	f7fe fd8b 	bl	e3c <Mfs_I2c_GetStatus>
    2326:	4603      	mov	r3, r0
    2328:	2b01      	cmp	r3, #1
    232a:	d101      	bne.n	2330 <I2cStop+0x44>
    232c:	2301      	movs	r3, #1
    232e:	e00c      	b.n	234a <I2cStop+0x5e>
    2330:	4b07      	ldr	r3, [pc, #28]	@ (2350 <I2cStop+0x64>)
    2332:	681b      	ldr	r3, [r3, #0]
    2334:	2107      	movs	r1, #7
    2336:	4618      	mov	r0, r3
    2338:	f7fe fe10 	bl	f5c <Mfs_I2c_ClrStatus>
    233c:	4b04      	ldr	r3, [pc, #16]	@ (2350 <I2cStop+0x64>)
    233e:	681b      	ldr	r3, [r3, #0]
    2340:	210a      	movs	r1, #10
    2342:	4618      	mov	r0, r3
    2344:	f7fe fe0a 	bl	f5c <Mfs_I2c_ClrStatus>
    2348:	2300      	movs	r3, #0
    234a:	4618      	mov	r0, r3
    234c:	bd80      	pop	{r7, pc}
    234e:	bf00      	nop
    2350:	1ffd0778 	.word	0x1ffd0778

00002354 <Wm8731_SendCmd>:
    2354:	b580      	push	{r7, lr}
    2356:	b084      	sub	sp, #16
    2358:	af00      	add	r7, sp, #0
    235a:	4603      	mov	r3, r0
    235c:	460a      	mov	r2, r1
    235e:	71fb      	strb	r3, [r7, #7]
    2360:	4613      	mov	r3, r2
    2362:	80bb      	strh	r3, [r7, #4]
    2364:	f997 3007 	ldrsb.w	r3, [r7, #7]
    2368:	005b      	lsls	r3, r3, #1
    236a:	b25a      	sxtb	r2, r3
    236c:	88bb      	ldrh	r3, [r7, #4]
    236e:	0a1b      	lsrs	r3, r3, #8
    2370:	b29b      	uxth	r3, r3
    2372:	b25b      	sxtb	r3, r3
    2374:	f003 0301 	and.w	r3, r3, #1
    2378:	b25b      	sxtb	r3, r3
    237a:	4313      	orrs	r3, r2
    237c:	b25b      	sxtb	r3, r3
    237e:	b2db      	uxtb	r3, r3
    2380:	733b      	strb	r3, [r7, #12]
    2382:	88bb      	ldrh	r3, [r7, #4]
    2384:	b2db      	uxtb	r3, r3
    2386:	737b      	strb	r3, [r7, #13]
    2388:	2034      	movs	r0, #52	@ 0x34
    238a:	f7ff ff1f 	bl	21cc <I2cStart>
    238e:	f107 030c 	add.w	r3, r7, #12
    2392:	2102      	movs	r1, #2
    2394:	4618      	mov	r0, r3
    2396:	f7ff ff59 	bl	224c <I2cSendData>
    239a:	f7ff ffa7 	bl	22ec <I2cStop>
    239e:	bf00      	nop
    23a0:	3710      	adds	r7, #16
    23a2:	46bd      	mov	sp, r7
    23a4:	bd80      	pop	{r7, pc}
	...

000023a8 <Wm8731_Init>:
    23a8:	b580      	push	{r7, lr}
    23aa:	b086      	sub	sp, #24
    23ac:	af00      	add	r7, sp, #0
    23ae:	6078      	str	r0, [r7, #4]
    23b0:	6039      	str	r1, [r7, #0]
    23b2:	687b      	ldr	r3, [r7, #4]
    23b4:	2b00      	cmp	r3, #0
    23b6:	d002      	beq.n	23be <Wm8731_Init+0x16>
    23b8:	683b      	ldr	r3, [r7, #0]
    23ba:	2b00      	cmp	r3, #0
    23bc:	d101      	bne.n	23c2 <Wm8731_Init+0x1a>
    23be:	2304      	movs	r3, #4
    23c0:	e07b      	b.n	24ba <Wm8731_Init+0x112>
    23c2:	f107 0308 	add.w	r3, r7, #8
    23c6:	2110      	movs	r1, #16
    23c8:	4618      	mov	r0, r3
    23ca:	f7fd ff95 	bl	2f8 <pdl_memclr>
    23ce:	4a3d      	ldr	r2, [pc, #244]	@ (24c4 <Wm8731_Init+0x11c>)
    23d0:	687b      	ldr	r3, [r7, #4]
    23d2:	6013      	str	r3, [r2, #0]
    23d4:	2300      	movs	r3, #0
    23d6:	723b      	strb	r3, [r7, #8]
    23d8:	4b3b      	ldr	r3, [pc, #236]	@ (24c8 <Wm8731_Init+0x120>)
    23da:	60fb      	str	r3, [r7, #12]
    23dc:	2300      	movs	r3, #0
    23de:	74bb      	strb	r3, [r7, #18]
    23e0:	2300      	movs	r3, #0
    23e2:	74fb      	strb	r3, [r7, #19]
    23e4:	2300      	movs	r3, #0
    23e6:	617b      	str	r3, [r7, #20]
    23e8:	4b36      	ldr	r3, [pc, #216]	@ (24c4 <Wm8731_Init+0x11c>)
    23ea:	681b      	ldr	r3, [r3, #0]
    23ec:	f107 0208 	add.w	r2, r7, #8
    23f0:	4611      	mov	r1, r2
    23f2:	4618      	mov	r0, r3
    23f4:	f7fe fb56 	bl	aa4 <Mfs_I2c_Init>
    23f8:	4603      	mov	r3, r0
    23fa:	2b00      	cmp	r3, #0
    23fc:	d001      	beq.n	2402 <Wm8731_Init+0x5a>
    23fe:	2301      	movs	r3, #1
    2400:	e05b      	b.n	24ba <Wm8731_Init+0x112>
    2402:	683b      	ldr	r3, [r7, #0]
    2404:	8a9b      	ldrh	r3, [r3, #20]
    2406:	b29b      	uxth	r3, r3
    2408:	4619      	mov	r1, r3
    240a:	200f      	movs	r0, #15
    240c:	f7ff ffa2 	bl	2354 <Wm8731_SendCmd>
    2410:	2112      	movs	r1, #18
    2412:	2006      	movs	r0, #6
    2414:	f7ff ff9e 	bl	2354 <Wm8731_SendCmd>
    2418:	683b      	ldr	r3, [r7, #0]
    241a:	881b      	ldrh	r3, [r3, #0]
    241c:	b29b      	uxth	r3, r3
    241e:	4619      	mov	r1, r3
    2420:	2000      	movs	r0, #0
    2422:	f7ff ff97 	bl	2354 <Wm8731_SendCmd>
    2426:	683b      	ldr	r3, [r7, #0]
    2428:	885b      	ldrh	r3, [r3, #2]
    242a:	b29b      	uxth	r3, r3
    242c:	4619      	mov	r1, r3
    242e:	2001      	movs	r0, #1
    2430:	f7ff ff90 	bl	2354 <Wm8731_SendCmd>
    2434:	683b      	ldr	r3, [r7, #0]
    2436:	889b      	ldrh	r3, [r3, #4]
    2438:	b29b      	uxth	r3, r3
    243a:	4619      	mov	r1, r3
    243c:	2002      	movs	r0, #2
    243e:	f7ff ff89 	bl	2354 <Wm8731_SendCmd>
    2442:	683b      	ldr	r3, [r7, #0]
    2444:	88db      	ldrh	r3, [r3, #6]
    2446:	b29b      	uxth	r3, r3
    2448:	4619      	mov	r1, r3
    244a:	2003      	movs	r0, #3
    244c:	f7ff ff82 	bl	2354 <Wm8731_SendCmd>
    2450:	683b      	ldr	r3, [r7, #0]
    2452:	891b      	ldrh	r3, [r3, #8]
    2454:	b29b      	uxth	r3, r3
    2456:	4619      	mov	r1, r3
    2458:	2004      	movs	r0, #4
    245a:	f7ff ff7b 	bl	2354 <Wm8731_SendCmd>
    245e:	683b      	ldr	r3, [r7, #0]
    2460:	895b      	ldrh	r3, [r3, #10]
    2462:	b29b      	uxth	r3, r3
    2464:	4619      	mov	r1, r3
    2466:	2005      	movs	r0, #5
    2468:	f7ff ff74 	bl	2354 <Wm8731_SendCmd>
    246c:	683b      	ldr	r3, [r7, #0]
    246e:	89db      	ldrh	r3, [r3, #14]
    2470:	b29b      	uxth	r3, r3
    2472:	4619      	mov	r1, r3
    2474:	2007      	movs	r0, #7
    2476:	f7ff ff6d 	bl	2354 <Wm8731_SendCmd>
    247a:	683b      	ldr	r3, [r7, #0]
    247c:	8a1b      	ldrh	r3, [r3, #16]
    247e:	b29b      	uxth	r3, r3
    2480:	4619      	mov	r1, r3
    2482:	2008      	movs	r0, #8
    2484:	f7ff ff66 	bl	2354 <Wm8731_SendCmd>
    2488:	683b      	ldr	r3, [r7, #0]
    248a:	8a5b      	ldrh	r3, [r3, #18]
    248c:	b29b      	uxth	r3, r3
    248e:	4619      	mov	r1, r3
    2490:	2009      	movs	r0, #9
    2492:	f7ff ff5f 	bl	2354 <Wm8731_SendCmd>
    2496:	683b      	ldr	r3, [r7, #0]
    2498:	899b      	ldrh	r3, [r3, #12]
    249a:	b29b      	uxth	r3, r3
    249c:	4619      	mov	r1, r3
    249e:	2006      	movs	r0, #6
    24a0:	f7ff ff58 	bl	2354 <Wm8731_SendCmd>
    24a4:	683b      	ldr	r3, [r7, #0]
    24a6:	889b      	ldrh	r3, [r3, #4]
    24a8:	b29a      	uxth	r2, r3
    24aa:	4b08      	ldr	r3, [pc, #32]	@ (24cc <Wm8731_Init+0x124>)
    24ac:	801a      	strh	r2, [r3, #0]
    24ae:	683b      	ldr	r3, [r7, #0]
    24b0:	88db      	ldrh	r3, [r3, #6]
    24b2:	b29a      	uxth	r2, r3
    24b4:	4b06      	ldr	r3, [pc, #24]	@ (24d0 <Wm8731_Init+0x128>)
    24b6:	801a      	strh	r2, [r3, #0]
    24b8:	2300      	movs	r3, #0
    24ba:	4618      	mov	r0, r3
    24bc:	3718      	adds	r7, #24
    24be:	46bd      	mov	sp, r7
    24c0:	bd80      	pop	{r7, pc}
    24c2:	bf00      	nop
    24c4:	1ffd0778 	.word	0x1ffd0778
    24c8:	00061a80 	.word	0x00061a80
    24cc:	1ffd077c 	.word	0x1ffd077c
    24d0:	1ffd077e 	.word	0x1ffd077e

000024d4 <_close>:
    24d4:	b480      	push	{r7}
    24d6:	b083      	sub	sp, #12
    24d8:	af00      	add	r7, sp, #0
    24da:	6078      	str	r0, [r7, #4]
    24dc:	f04f 33ff 	mov.w	r3, #4294967295
    24e0:	4618      	mov	r0, r3
    24e2:	370c      	adds	r7, #12
    24e4:	46bd      	mov	sp, r7
    24e6:	f85d 7b04 	ldr.w	r7, [sp], #4
    24ea:	4770      	bx	lr

000024ec <_fstat>:
    24ec:	b480      	push	{r7}
    24ee:	b083      	sub	sp, #12
    24f0:	af00      	add	r7, sp, #0
    24f2:	6078      	str	r0, [r7, #4]
    24f4:	6039      	str	r1, [r7, #0]
    24f6:	683b      	ldr	r3, [r7, #0]
    24f8:	f44f 5200 	mov.w	r2, #8192	@ 0x2000
    24fc:	605a      	str	r2, [r3, #4]
    24fe:	2300      	movs	r3, #0
    2500:	4618      	mov	r0, r3
    2502:	370c      	adds	r7, #12
    2504:	46bd      	mov	sp, r7
    2506:	f85d 7b04 	ldr.w	r7, [sp], #4
    250a:	4770      	bx	lr

0000250c <_getpid>:
    250c:	b480      	push	{r7}
    250e:	af00      	add	r7, sp, #0
    2510:	2301      	movs	r3, #1
    2512:	4618      	mov	r0, r3
    2514:	46bd      	mov	sp, r7
    2516:	f85d 7b04 	ldr.w	r7, [sp], #4
    251a:	4770      	bx	lr

0000251c <_isatty>:
    251c:	b480      	push	{r7}
    251e:	b083      	sub	sp, #12
    2520:	af00      	add	r7, sp, #0
    2522:	6078      	str	r0, [r7, #4]
    2524:	2301      	movs	r3, #1
    2526:	4618      	mov	r0, r3
    2528:	370c      	adds	r7, #12
    252a:	46bd      	mov	sp, r7
    252c:	f85d 7b04 	ldr.w	r7, [sp], #4
    2530:	4770      	bx	lr

00002532 <_kill>:
    2532:	b580      	push	{r7, lr}
    2534:	b082      	sub	sp, #8
    2536:	af00      	add	r7, sp, #0
    2538:	6078      	str	r0, [r7, #4]
    253a:	6039      	str	r1, [r7, #0]
    253c:	f001 fa48 	bl	39d0 <__errno>
    2540:	4603      	mov	r3, r0
    2542:	2216      	movs	r2, #22
    2544:	601a      	str	r2, [r3, #0]
    2546:	f04f 33ff 	mov.w	r3, #4294967295
    254a:	4618      	mov	r0, r3
    254c:	3708      	adds	r7, #8
    254e:	46bd      	mov	sp, r7
    2550:	bd80      	pop	{r7, pc}

00002552 <_lseek>:
    2552:	b480      	push	{r7}
    2554:	b085      	sub	sp, #20
    2556:	af00      	add	r7, sp, #0
    2558:	60f8      	str	r0, [r7, #12]
    255a:	60b9      	str	r1, [r7, #8]
    255c:	607a      	str	r2, [r7, #4]
    255e:	f04f 33ff 	mov.w	r3, #4294967295
    2562:	4618      	mov	r0, r3
    2564:	3714      	adds	r7, #20
    2566:	46bd      	mov	sp, r7
    2568:	f85d 7b04 	ldr.w	r7, [sp], #4
    256c:	4770      	bx	lr

0000256e <_read>:
    256e:	b480      	push	{r7}
    2570:	b085      	sub	sp, #20
    2572:	af00      	add	r7, sp, #0
    2574:	60f8      	str	r0, [r7, #12]
    2576:	60b9      	str	r1, [r7, #8]
    2578:	607a      	str	r2, [r7, #4]
    257a:	f04f 33ff 	mov.w	r3, #4294967295
    257e:	4618      	mov	r0, r3
    2580:	3714      	adds	r7, #20
    2582:	46bd      	mov	sp, r7
    2584:	f85d 7b04 	ldr.w	r7, [sp], #4
    2588:	4770      	bx	lr

0000258a <_write>:
    258a:	b480      	push	{r7}
    258c:	b085      	sub	sp, #20
    258e:	af00      	add	r7, sp, #0
    2590:	60f8      	str	r0, [r7, #12]
    2592:	60b9      	str	r1, [r7, #8]
    2594:	607a      	str	r2, [r7, #4]
    2596:	f04f 33ff 	mov.w	r3, #4294967295
    259a:	4618      	mov	r0, r3
    259c:	3714      	adds	r7, #20
    259e:	46bd      	mov	sp, r7
    25a0:	f85d 7b04 	ldr.w	r7, [sp], #4
    25a4:	4770      	bx	lr

000025a6 <init_platform(unsigned long, sampling_rate, audio_input)>:
    25a6:	b580      	push	{r7, lr}
    25a8:	b082      	sub	sp, #8
    25aa:	af00      	add	r7, sp, #0
    25ac:	6078      	str	r0, [r7, #4]
    25ae:	460b      	mov	r3, r1
    25b0:	70fb      	strb	r3, [r7, #3]
    25b2:	4613      	mov	r3, r2
    25b4:	70bb      	strb	r3, [r7, #2]
    25b6:	f000 fb8b 	bl	2cd0 <init_gpio()>
    25ba:	6878      	ldr	r0, [r7, #4]
    25bc:	f000 fb26 	bl	2c0c <init_uart0(unsigned long)>
    25c0:	78ba      	ldrb	r2, [r7, #2]
    25c2:	78fb      	ldrb	r3, [r7, #3]
    25c4:	4611      	mov	r1, r2
    25c6:	4618      	mov	r0, r3
    25c8:	f000 f81c 	bl	2604 <init_codec(sampling_rate, audio_input)>
    25cc:	78fb      	ldrb	r3, [r7, #3]
    25ce:	4618      	mov	r0, r3
    25d0:	f000 fa08 	bl	29e4 <init_I2S0(sampling_rate)>
    25d4:	f000 f868 	bl	26a8 <init_dstc()>
    25d8:	bf00      	nop
    25da:	3708      	adds	r7, #8
    25dc:	46bd      	mov	sp, r7
    25de:	bd80      	pop	{r7, pc}

000025e0 <platform_start()>:
    25e0:	b580      	push	{r7, lr}
    25e2:	af00      	add	r7, sp, #0
    25e4:	4806      	ldr	r0, [pc, #24]	@ (2600 <platform_start()+0x20>)
    25e6:	f7ff faa9 	bl	1b3c <I2s_StartClk>
    25ea:	4805      	ldr	r0, [pc, #20]	@ (2600 <platform_start()+0x20>)
    25ec:	f7ff fd76 	bl	20dc <I2s_EnableTx>
    25f0:	4803      	ldr	r0, [pc, #12]	@ (2600 <platform_start()+0x20>)
    25f2:	f7ff fd88 	bl	2106 <I2s_EnableRx>
    25f6:	4802      	ldr	r0, [pc, #8]	@ (2600 <platform_start()+0x20>)
    25f8:	f7ff fd60 	bl	20bc <I2s_Start>
    25fc:	bf00      	nop
    25fe:	bd80      	pop	{r7, pc}
    2600:	4006c000 	.word	0x4006c000

00002604 <init_codec(sampling_rate, audio_input)>:
    2604:	b580      	push	{r7, lr}
    2606:	b088      	sub	sp, #32
    2608:	af00      	add	r7, sp, #0
    260a:	4603      	mov	r3, r0
    260c:	460a      	mov	r2, r1
    260e:	71fb      	strb	r3, [r7, #7]
    2610:	4613      	mov	r3, r2
    2612:	71bb      	strb	r3, [r7, #6]
    2614:	4b20      	ldr	r3, [pc, #128]	@ (2698 <init_codec(sampling_rate, audio_input)+0x94>)
    2616:	f8d3 361c 	ldr.w	r3, [r3, #1564]	@ 0x61c
    261a:	f423 2340 	bic.w	r3, r3, #786432	@ 0xc0000
    261e:	4a1e      	ldr	r2, [pc, #120]	@ (2698 <init_codec(sampling_rate, audio_input)+0x94>)
    2620:	f443 2300 	orr.w	r3, r3, #524288	@ 0x80000
    2624:	f8c2 361c 	str.w	r3, [r2, #1564]	@ 0x61c
    2628:	4b1c      	ldr	r3, [pc, #112]	@ (269c <init_codec(sampling_rate, audio_input)+0x98>)
    262a:	2201      	movs	r2, #1
    262c:	701a      	strb	r2, [r3, #0]
    262e:	4b1a      	ldr	r3, [pc, #104]	@ (2698 <init_codec(sampling_rate, audio_input)+0x94>)
    2630:	f8d3 361c 	ldr.w	r3, [r3, #1564]	@ 0x61c
    2634:	f423 1340 	bic.w	r3, r3, #3145728	@ 0x300000
    2638:	4a17      	ldr	r2, [pc, #92]	@ (2698 <init_codec(sampling_rate, audio_input)+0x94>)
    263a:	f443 1300 	orr.w	r3, r3, #2097152	@ 0x200000
    263e:	f8c2 361c 	str.w	r3, [r2, #1564]	@ 0x61c
    2642:	4b17      	ldr	r3, [pc, #92]	@ (26a0 <init_codec(sampling_rate, audio_input)+0x9c>)
    2644:	2201      	movs	r2, #1
    2646:	701a      	strb	r2, [r3, #0]
    2648:	f107 0308 	add.w	r3, r7, #8
    264c:	2116      	movs	r1, #22
    264e:	4618      	mov	r0, r3
    2650:	f7fd fe52 	bl	2f8 <pdl_memclr>
    2654:	2300      	movs	r3, #0
    2656:	83bb      	strh	r3, [r7, #28]
    2658:	2317      	movs	r3, #23
    265a:	813b      	strh	r3, [r7, #8]
    265c:	2317      	movs	r3, #23
    265e:	817b      	strh	r3, [r7, #10]
    2660:	2378      	movs	r3, #120	@ 0x78
    2662:	81bb      	strh	r3, [r7, #12]
    2664:	2378      	movs	r3, #120	@ 0x78
    2666:	81fb      	strh	r3, [r7, #14]
    2668:	79bb      	ldrb	r3, [r7, #6]
    266a:	b29b      	uxth	r3, r3
    266c:	823b      	strh	r3, [r7, #16]
    266e:	2300      	movs	r3, #0
    2670:	827b      	strh	r3, [r7, #18]
    2672:	2353      	movs	r3, #83	@ 0x53
    2674:	82fb      	strh	r3, [r7, #22]
    2676:	79fb      	ldrb	r3, [r7, #7]
    2678:	b29b      	uxth	r3, r3
    267a:	833b      	strh	r3, [r7, #24]
    267c:	2301      	movs	r3, #1
    267e:	837b      	strh	r3, [r7, #26]
    2680:	2302      	movs	r3, #2
    2682:	82bb      	strh	r3, [r7, #20]
    2684:	f107 0308 	add.w	r3, r7, #8
    2688:	4619      	mov	r1, r3
    268a:	4806      	ldr	r0, [pc, #24]	@ (26a4 <init_codec(sampling_rate, audio_input)+0xa0>)
    268c:	f7ff fe8c 	bl	23a8 <Wm8731_Init>
    2690:	bf00      	nop
    2692:	3720      	adds	r7, #32
    2694:	46bd      	mov	sp, r7
    2696:	bd80      	pop	{r7, pc}
    2698:	4006f000 	.word	0x4006f000
    269c:	42de01a8 	.word	0x42de01a8
    26a0:	42de01ac 	.word	0x42de01ac
    26a4:	40038200 	.word	0x40038200

000026a8 <init_dstc()>:
    26a8:	b580      	push	{r7, lr}
    26aa:	b088      	sub	sp, #32
    26ac:	af00      	add	r7, sp, #0
    26ae:	1d3b      	adds	r3, r7, #4
    26b0:	211c      	movs	r1, #28
    26b2:	4618      	mov	r0, r3
    26b4:	f7fd fe20 	bl	2f8 <pdl_memclr>
    26b8:	211c      	movs	r1, #28
    26ba:	48ac      	ldr	r0, [pc, #688]	@ (296c <init_dstc()+0x2c4>)
    26bc:	f7fd fe1c 	bl	2f8 <pdl_memclr>
    26c0:	211c      	movs	r1, #28
    26c2:	48ab      	ldr	r0, [pc, #684]	@ (2970 <init_dstc()+0x2c8>)
    26c4:	f7fd fe18 	bl	2f8 <pdl_memclr>
    26c8:	bf00      	nop
    26ca:	f7fe fe8d 	bl	13e8 <Dstc_ReleaseStandBy>
    26ce:	4603      	mov	r3, r0
    26d0:	2b00      	cmp	r3, #0
    26d2:	bf14      	ite	ne
    26d4:	2301      	movne	r3, #1
    26d6:	2300      	moveq	r3, #0
    26d8:	b2db      	uxtb	r3, r3
    26da:	2b00      	cmp	r3, #0
    26dc:	d1f5      	bne.n	26ca <init_dstc()+0x22>
    26de:	4aa3      	ldr	r2, [pc, #652]	@ (296c <init_dstc()+0x2c4>)
    26e0:	7813      	ldrb	r3, [r2, #0]
    26e2:	f043 0303 	orr.w	r3, r3, #3
    26e6:	7013      	strb	r3, [r2, #0]
    26e8:	4aa0      	ldr	r2, [pc, #640]	@ (296c <init_dstc()+0x2c4>)
    26ea:	7813      	ldrb	r3, [r2, #0]
    26ec:	f023 030c 	bic.w	r3, r3, #12
    26f0:	7013      	strb	r3, [r2, #0]
    26f2:	4a9e      	ldr	r2, [pc, #632]	@ (296c <init_dstc()+0x2c4>)
    26f4:	7813      	ldrb	r3, [r2, #0]
    26f6:	f043 0310 	orr.w	r3, r3, #16
    26fa:	7013      	strb	r3, [r2, #0]
    26fc:	4a9b      	ldr	r2, [pc, #620]	@ (296c <init_dstc()+0x2c4>)
    26fe:	7813      	ldrb	r3, [r2, #0]
    2700:	2103      	movs	r1, #3
    2702:	f361 1347 	bfi	r3, r1, #5, #3
    2706:	7013      	strb	r3, [r2, #0]
    2708:	4a98      	ldr	r2, [pc, #608]	@ (296c <init_dstc()+0x2c4>)
    270a:	7853      	ldrb	r3, [r2, #1]
    270c:	2102      	movs	r1, #2
    270e:	f361 0301 	bfi	r3, r1, #0, #2
    2712:	7053      	strb	r3, [r2, #1]
    2714:	4a95      	ldr	r2, [pc, #596]	@ (296c <init_dstc()+0x2c4>)
    2716:	7853      	ldrb	r3, [r2, #1]
    2718:	f023 031c 	bic.w	r3, r3, #28
    271c:	7053      	strb	r3, [r2, #1]
    271e:	4a93      	ldr	r2, [pc, #588]	@ (296c <init_dstc()+0x2c4>)
    2720:	7853      	ldrb	r3, [r2, #1]
    2722:	2105      	movs	r1, #5
    2724:	f361 1347 	bfi	r3, r1, #5, #3
    2728:	7053      	strb	r3, [r2, #1]
    272a:	4a90      	ldr	r2, [pc, #576]	@ (296c <init_dstc()+0x2c4>)
    272c:	7893      	ldrb	r3, [r2, #2]
    272e:	2110      	movs	r1, #16
    2730:	f361 0305 	bfi	r3, r1, #0, #6
    2734:	7093      	strb	r3, [r2, #2]
    2736:	4a8d      	ldr	r2, [pc, #564]	@ (296c <init_dstc()+0x2c4>)
    2738:	7893      	ldrb	r3, [r2, #2]
    273a:	f043 0340 	orr.w	r3, r3, #64	@ 0x40
    273e:	7093      	strb	r3, [r2, #2]
    2740:	4a8a      	ldr	r2, [pc, #552]	@ (296c <init_dstc()+0x2c4>)
    2742:	7893      	ldrb	r3, [r2, #2]
    2744:	f023 0380 	bic.w	r3, r3, #128	@ 0x80
    2748:	7093      	strb	r3, [r2, #2]
    274a:	4a88      	ldr	r2, [pc, #544]	@ (296c <init_dstc()+0x2c4>)
    274c:	78d3      	ldrb	r3, [r2, #3]
    274e:	2101      	movs	r1, #1
    2750:	f361 0301 	bfi	r3, r1, #0, #2
    2754:	70d3      	strb	r3, [r2, #3]
    2756:	4a85      	ldr	r2, [pc, #532]	@ (296c <init_dstc()+0x2c4>)
    2758:	78d3      	ldrb	r3, [r2, #3]
    275a:	f023 030c 	bic.w	r3, r3, #12
    275e:	70d3      	strb	r3, [r2, #3]
    2760:	4b82      	ldr	r3, [pc, #520]	@ (296c <init_dstc()+0x2c4>)
    2762:	681b      	ldr	r3, [r3, #0]
    2764:	0e1b      	lsrs	r3, r3, #24
    2766:	b2da      	uxtb	r2, r3
    2768:	4b80      	ldr	r3, [pc, #512]	@ (296c <init_dstc()+0x2c4>)
    276a:	681b      	ldr	r3, [r3, #0]
    276c:	0d1b      	lsrs	r3, r3, #20
    276e:	b2db      	uxtb	r3, r3
    2770:	4053      	eors	r3, r2
    2772:	b2da      	uxtb	r2, r3
    2774:	4b7d      	ldr	r3, [pc, #500]	@ (296c <init_dstc()+0x2c4>)
    2776:	681b      	ldr	r3, [r3, #0]
    2778:	0c1b      	lsrs	r3, r3, #16
    277a:	b2db      	uxtb	r3, r3
    277c:	4053      	eors	r3, r2
    277e:	b2da      	uxtb	r2, r3
    2780:	4b7a      	ldr	r3, [pc, #488]	@ (296c <init_dstc()+0x2c4>)
    2782:	681b      	ldr	r3, [r3, #0]
    2784:	0b1b      	lsrs	r3, r3, #12
    2786:	b2db      	uxtb	r3, r3
    2788:	4053      	eors	r3, r2
    278a:	b2da      	uxtb	r2, r3
    278c:	4b77      	ldr	r3, [pc, #476]	@ (296c <init_dstc()+0x2c4>)
    278e:	681b      	ldr	r3, [r3, #0]
    2790:	0a1b      	lsrs	r3, r3, #8
    2792:	b2db      	uxtb	r3, r3
    2794:	4053      	eors	r3, r2
    2796:	b2da      	uxtb	r2, r3
    2798:	4b74      	ldr	r3, [pc, #464]	@ (296c <init_dstc()+0x2c4>)
    279a:	681b      	ldr	r3, [r3, #0]
    279c:	091b      	lsrs	r3, r3, #4
    279e:	b2db      	uxtb	r3, r3
    27a0:	4053      	eors	r3, r2
    27a2:	b2db      	uxtb	r3, r3
    27a4:	f003 030f 	and.w	r3, r3, #15
    27a8:	b2d9      	uxtb	r1, r3
    27aa:	4a70      	ldr	r2, [pc, #448]	@ (296c <init_dstc()+0x2c4>)
    27ac:	78d3      	ldrb	r3, [r2, #3]
    27ae:	f361 1307 	bfi	r3, r1, #4, #4
    27b2:	70d3      	strb	r3, [r2, #3]
    27b4:	4b6d      	ldr	r3, [pc, #436]	@ (296c <init_dstc()+0x2c4>)
    27b6:	2201      	movs	r2, #1
    27b8:	80da      	strh	r2, [r3, #6]
    27ba:	4b6c      	ldr	r3, [pc, #432]	@ (296c <init_dstc()+0x2c4>)
    27bc:	2200      	movs	r2, #0
    27be:	711a      	strb	r2, [r3, #4]
    27c0:	4b6a      	ldr	r3, [pc, #424]	@ (296c <init_dstc()+0x2c4>)
    27c2:	791a      	ldrb	r2, [r3, #4]
    27c4:	4b69      	ldr	r3, [pc, #420]	@ (296c <init_dstc()+0x2c4>)
    27c6:	715a      	strb	r2, [r3, #5]
    27c8:	f000 fc78 	bl	30bc <get_new_tx_buffer_ptr()>
    27cc:	4603      	mov	r3, r0
    27ce:	461a      	mov	r2, r3
    27d0:	4b66      	ldr	r3, [pc, #408]	@ (296c <init_dstc()+0x2c4>)
    27d2:	609a      	str	r2, [r3, #8]
    27d4:	4b65      	ldr	r3, [pc, #404]	@ (296c <init_dstc()+0x2c4>)
    27d6:	4a67      	ldr	r2, [pc, #412]	@ (2974 <init_dstc()+0x2cc>)
    27d8:	60da      	str	r2, [r3, #12]
    27da:	4a64      	ldr	r2, [pc, #400]	@ (296c <init_dstc()+0x2c4>)
    27dc:	4b63      	ldr	r3, [pc, #396]	@ (296c <init_dstc()+0x2c4>)
    27de:	685b      	ldr	r3, [r3, #4]
    27e0:	6113      	str	r3, [r2, #16]
    27e2:	4b62      	ldr	r3, [pc, #392]	@ (296c <init_dstc()+0x2c4>)
    27e4:	689b      	ldr	r3, [r3, #8]
    27e6:	4a61      	ldr	r2, [pc, #388]	@ (296c <init_dstc()+0x2c4>)
    27e8:	6153      	str	r3, [r2, #20]
    27ea:	2100      	movs	r1, #0
    27ec:	20db      	movs	r0, #219	@ 0xdb
    27ee:	f7fe fefb 	bl	15e8 <Dstc_SetHwdesp>
    27f2:	4a5e      	ldr	r2, [pc, #376]	@ (296c <init_dstc()+0x2c4>)
    27f4:	7f13      	ldrb	r3, [r2, #28]
    27f6:	f043 0303 	orr.w	r3, r3, #3
    27fa:	7713      	strb	r3, [r2, #28]
    27fc:	4a5b      	ldr	r2, [pc, #364]	@ (296c <init_dstc()+0x2c4>)
    27fe:	7f13      	ldrb	r3, [r2, #28]
    2800:	f023 030c 	bic.w	r3, r3, #12
    2804:	7713      	strb	r3, [r2, #28]
    2806:	4a59      	ldr	r2, [pc, #356]	@ (296c <init_dstc()+0x2c4>)
    2808:	7f13      	ldrb	r3, [r2, #28]
    280a:	f043 0310 	orr.w	r3, r3, #16
    280e:	7713      	strb	r3, [r2, #28]
    2810:	4a56      	ldr	r2, [pc, #344]	@ (296c <init_dstc()+0x2c4>)
    2812:	7f13      	ldrb	r3, [r2, #28]
    2814:	2105      	movs	r1, #5
    2816:	f361 1347 	bfi	r3, r1, #5, #3
    281a:	7713      	strb	r3, [r2, #28]
    281c:	4a53      	ldr	r2, [pc, #332]	@ (296c <init_dstc()+0x2c4>)
    281e:	7f53      	ldrb	r3, [r2, #29]
    2820:	2102      	movs	r1, #2
    2822:	f361 0301 	bfi	r3, r1, #0, #2
    2826:	7753      	strb	r3, [r2, #29]
    2828:	4a50      	ldr	r2, [pc, #320]	@ (296c <init_dstc()+0x2c4>)
    282a:	7f53      	ldrb	r3, [r2, #29]
    282c:	2105      	movs	r1, #5
    282e:	f361 0384 	bfi	r3, r1, #2, #3
    2832:	7753      	strb	r3, [r2, #29]
    2834:	4a4d      	ldr	r2, [pc, #308]	@ (296c <init_dstc()+0x2c4>)
    2836:	7f53      	ldrb	r3, [r2, #29]
    2838:	f023 03e0 	bic.w	r3, r3, #224	@ 0xe0
    283c:	7753      	strb	r3, [r2, #29]
    283e:	4a4b      	ldr	r2, [pc, #300]	@ (296c <init_dstc()+0x2c4>)
    2840:	7f93      	ldrb	r3, [r2, #30]
    2842:	2110      	movs	r1, #16
    2844:	f361 0305 	bfi	r3, r1, #0, #6
    2848:	7793      	strb	r3, [r2, #30]
    284a:	4a48      	ldr	r2, [pc, #288]	@ (296c <init_dstc()+0x2c4>)
    284c:	7f93      	ldrb	r3, [r2, #30]
    284e:	f043 0340 	orr.w	r3, r3, #64	@ 0x40
    2852:	7793      	strb	r3, [r2, #30]
    2854:	4a45      	ldr	r2, [pc, #276]	@ (296c <init_dstc()+0x2c4>)
    2856:	7f93      	ldrb	r3, [r2, #30]
    2858:	f023 0380 	bic.w	r3, r3, #128	@ 0x80
    285c:	7793      	strb	r3, [r2, #30]
    285e:	4a43      	ldr	r2, [pc, #268]	@ (296c <init_dstc()+0x2c4>)
    2860:	7fd3      	ldrb	r3, [r2, #31]
    2862:	2101      	movs	r1, #1
    2864:	f361 0301 	bfi	r3, r1, #0, #2
    2868:	77d3      	strb	r3, [r2, #31]
    286a:	4a40      	ldr	r2, [pc, #256]	@ (296c <init_dstc()+0x2c4>)
    286c:	7fd3      	ldrb	r3, [r2, #31]
    286e:	f023 030c 	bic.w	r3, r3, #12
    2872:	77d3      	strb	r3, [r2, #31]
    2874:	4b3d      	ldr	r3, [pc, #244]	@ (296c <init_dstc()+0x2c4>)
    2876:	69db      	ldr	r3, [r3, #28]
    2878:	0e1b      	lsrs	r3, r3, #24
    287a:	b2da      	uxtb	r2, r3
    287c:	4b3b      	ldr	r3, [pc, #236]	@ (296c <init_dstc()+0x2c4>)
    287e:	69db      	ldr	r3, [r3, #28]
    2880:	0d1b      	lsrs	r3, r3, #20
    2882:	b2db      	uxtb	r3, r3
    2884:	4053      	eors	r3, r2
    2886:	b2da      	uxtb	r2, r3
    2888:	4b38      	ldr	r3, [pc, #224]	@ (296c <init_dstc()+0x2c4>)
    288a:	69db      	ldr	r3, [r3, #28]
    288c:	0c1b      	lsrs	r3, r3, #16
    288e:	b2db      	uxtb	r3, r3
    2890:	4053      	eors	r3, r2
    2892:	b2da      	uxtb	r2, r3
    2894:	4b35      	ldr	r3, [pc, #212]	@ (296c <init_dstc()+0x2c4>)
    2896:	69db      	ldr	r3, [r3, #28]
    2898:	0b1b      	lsrs	r3, r3, #12
    289a:	b2db      	uxtb	r3, r3
    289c:	4053      	eors	r3, r2
    289e:	b2da      	uxtb	r2, r3
    28a0:	4b32      	ldr	r3, [pc, #200]	@ (296c <init_dstc()+0x2c4>)
    28a2:	69db      	ldr	r3, [r3, #28]
    28a4:	0a1b      	lsrs	r3, r3, #8
    28a6:	b2db      	uxtb	r3, r3
    28a8:	4053      	eors	r3, r2
    28aa:	b2da      	uxtb	r2, r3
    28ac:	4b2f      	ldr	r3, [pc, #188]	@ (296c <init_dstc()+0x2c4>)
    28ae:	69db      	ldr	r3, [r3, #28]
    28b0:	091b      	lsrs	r3, r3, #4
    28b2:	b2db      	uxtb	r3, r3
    28b4:	4053      	eors	r3, r2
    28b6:	b2db      	uxtb	r3, r3
    28b8:	f003 030f 	and.w	r3, r3, #15
    28bc:	b2d9      	uxtb	r1, r3
    28be:	4a2b      	ldr	r2, [pc, #172]	@ (296c <init_dstc()+0x2c4>)
    28c0:	7fd3      	ldrb	r3, [r2, #31]
    28c2:	f361 1307 	bfi	r3, r1, #4, #4
    28c6:	77d3      	strb	r3, [r2, #31]
    28c8:	4b28      	ldr	r3, [pc, #160]	@ (296c <init_dstc()+0x2c4>)
    28ca:	2201      	movs	r2, #1
    28cc:	845a      	strh	r2, [r3, #34]	@ 0x22
    28ce:	4b27      	ldr	r3, [pc, #156]	@ (296c <init_dstc()+0x2c4>)
    28d0:	2200      	movs	r2, #0
    28d2:	f883 2020 	strb.w	r2, [r3, #32]
    28d6:	4b25      	ldr	r3, [pc, #148]	@ (296c <init_dstc()+0x2c4>)
    28d8:	f893 2020 	ldrb.w	r2, [r3, #32]
    28dc:	4b23      	ldr	r3, [pc, #140]	@ (296c <init_dstc()+0x2c4>)
    28de:	f883 2021 	strb.w	r2, [r3, #33]	@ 0x21
    28e2:	4b22      	ldr	r3, [pc, #136]	@ (296c <init_dstc()+0x2c4>)
    28e4:	4a24      	ldr	r2, [pc, #144]	@ (2978 <init_dstc()+0x2d0>)
    28e6:	625a      	str	r2, [r3, #36]	@ 0x24
    28e8:	f000 fbfc 	bl	30e4 <get_new_rx_buffer_ptr()>
    28ec:	4603      	mov	r3, r0
    28ee:	461a      	mov	r2, r3
    28f0:	4b1e      	ldr	r3, [pc, #120]	@ (296c <init_dstc()+0x2c4>)
    28f2:	629a      	str	r2, [r3, #40]	@ 0x28
    28f4:	4a1d      	ldr	r2, [pc, #116]	@ (296c <init_dstc()+0x2c4>)
    28f6:	4b1d      	ldr	r3, [pc, #116]	@ (296c <init_dstc()+0x2c4>)
    28f8:	6a1b      	ldr	r3, [r3, #32]
    28fa:	62d3      	str	r3, [r2, #44]	@ 0x2c
    28fc:	4b1b      	ldr	r3, [pc, #108]	@ (296c <init_dstc()+0x2c4>)
    28fe:	6a9b      	ldr	r3, [r3, #40]	@ 0x28
    2900:	4a1a      	ldr	r2, [pc, #104]	@ (296c <init_dstc()+0x2c4>)
    2902:	6353      	str	r3, [r2, #52]	@ 0x34
    2904:	211c      	movs	r1, #28
    2906:	20da      	movs	r0, #218	@ 0xda
    2908:	f7fe fe6e 	bl	15e8 <Dstc_SetHwdesp>
    290c:	4b17      	ldr	r3, [pc, #92]	@ (296c <init_dstc()+0x2c4>)
    290e:	607b      	str	r3, [r7, #4]
    2910:	2300      	movs	r3, #0
    2912:	723b      	strb	r3, [r7, #8]
    2914:	2300      	movs	r3, #0
    2916:	727b      	strb	r3, [r7, #9]
    2918:	2300      	movs	r3, #0
    291a:	72bb      	strb	r3, [r7, #10]
    291c:	2300      	movs	r3, #0
    291e:	72fb      	strb	r3, [r7, #11]
    2920:	2307      	movs	r3, #7
    2922:	733b      	strb	r3, [r7, #12]
    2924:	2301      	movs	r3, #1
    2926:	737b      	strb	r3, [r7, #13]
    2928:	4b14      	ldr	r3, [pc, #80]	@ (297c <init_dstc()+0x2d4>)
    292a:	61fb      	str	r3, [r7, #28]
    292c:	4b14      	ldr	r3, [pc, #80]	@ (2980 <init_dstc()+0x2d8>)
    292e:	61bb      	str	r3, [r7, #24]
    2930:	1d3b      	adds	r3, r7, #4
    2932:	4618      	mov	r0, r3
    2934:	f7fe fd80 	bl	1438 <Dstc_Init>
    2938:	2002      	movs	r0, #2
    293a:	f7fe fe79 	bl	1630 <Dstc_SetCommand>
    293e:	2003      	movs	r0, #3
    2940:	f7fe fe76 	bl	1630 <Dstc_SetCommand>
    2944:	2005      	movs	r0, #5
    2946:	f7fe fe73 	bl	1630 <Dstc_SetCommand>
    294a:	20db      	movs	r0, #219	@ 0xdb
    294c:	f7fe feac 	bl	16a8 <Dstc_SetDreqenbBit>
    2950:	20db      	movs	r0, #219	@ 0xdb
    2952:	f7fe fef7 	bl	1744 <Dstc_SetHwintclrBit>
    2956:	20da      	movs	r0, #218	@ 0xda
    2958:	f7fe fea6 	bl	16a8 <Dstc_SetDreqenbBit>
    295c:	20da      	movs	r0, #218	@ 0xda
    295e:	f7fe fef1 	bl	1744 <Dstc_SetHwintclrBit>
    2962:	bf00      	nop
    2964:	3720      	adds	r7, #32
    2966:	46bd      	mov	sp, r7
    2968:	bd80      	pop	{r7, pc}
    296a:	bf00      	nop
    296c:	1ffd0780 	.word	0x1ffd0780
    2970:	1ffd079c 	.word	0x1ffd079c
    2974:	4006c004 	.word	0x4006c004
    2978:	4006c000 	.word	0x4006c000
    297c:	00002985 	.word	0x00002985
    2980:	000029b5 	.word	0x000029b5

00002984 <isr_tx()>:
    2984:	b580      	push	{r7, lr}
    2986:	b082      	sub	sp, #8
    2988:	af00      	add	r7, sp, #0
    298a:	f000 fb97 	bl	30bc <get_new_tx_buffer_ptr()>
    298e:	6078      	str	r0, [r7, #4]
    2990:	687b      	ldr	r3, [r7, #4]
    2992:	2b00      	cmp	r3, #0
    2994:	d101      	bne.n	299a <isr_tx()+0x16>
    2996:	f000 fa97 	bl	2ec8 <fatal_error()>
    299a:	687b      	ldr	r3, [r7, #4]
    299c:	4a04      	ldr	r2, [pc, #16]	@ (29b0 <isr_tx()+0x2c>)
    299e:	6093      	str	r3, [r2, #8]
    29a0:	20db      	movs	r0, #219	@ 0xdb
    29a2:	f7fe fef1 	bl	1788 <Dstc_SetDqmskclrBit>
    29a6:	bf00      	nop
    29a8:	3708      	adds	r7, #8
    29aa:	46bd      	mov	sp, r7
    29ac:	bd80      	pop	{r7, pc}
    29ae:	bf00      	nop
    29b0:	1ffd0780 	.word	0x1ffd0780

000029b4 <isr_rx()>:
    29b4:	b580      	push	{r7, lr}
    29b6:	b082      	sub	sp, #8
    29b8:	af00      	add	r7, sp, #0
    29ba:	f000 fb93 	bl	30e4 <get_new_rx_buffer_ptr()>
    29be:	6078      	str	r0, [r7, #4]
    29c0:	687b      	ldr	r3, [r7, #4]
    29c2:	2b00      	cmp	r3, #0
    29c4:	d101      	bne.n	29ca <isr_rx()+0x16>
    29c6:	f000 fa7f 	bl	2ec8 <fatal_error()>
    29ca:	687b      	ldr	r3, [r7, #4]
    29cc:	4a04      	ldr	r2, [pc, #16]	@ (29e0 <isr_rx()+0x2c>)
    29ce:	6293      	str	r3, [r2, #40]	@ 0x28
    29d0:	20da      	movs	r0, #218	@ 0xda
    29d2:	f7fe fed9 	bl	1788 <Dstc_SetDqmskclrBit>
    29d6:	bf00      	nop
    29d8:	3708      	adds	r7, #8
    29da:	46bd      	mov	sp, r7
    29dc:	bd80      	pop	{r7, pc}
    29de:	bf00      	nop
    29e0:	1ffd0780 	.word	0x1ffd0780

000029e4 <init_I2S0(sampling_rate)>:
    29e4:	b580      	push	{r7, lr}
    29e6:	b09e      	sub	sp, #120	@ 0x78
    29e8:	af00      	add	r7, sp, #0
    29ea:	4603      	mov	r3, r0
    29ec:	71fb      	strb	r3, [r7, #7]
    29ee:	f107 036c 	add.w	r3, r7, #108	@ 0x6c
    29f2:	210b      	movs	r1, #11
    29f4:	4618      	mov	r0, r3
    29f6:	f7fd fc7f 	bl	2f8 <pdl_memclr>
    29fa:	f107 0338 	add.w	r3, r7, #56	@ 0x38
    29fe:	2134      	movs	r1, #52	@ 0x34
    2a00:	4618      	mov	r0, r3
    2a02:	f7fd fc79 	bl	2f8 <pdl_memclr>
    2a06:	f107 030c 	add.w	r3, r7, #12
    2a0a:	212c      	movs	r1, #44	@ 0x2c
    2a0c:	4618      	mov	r0, r3
    2a0e:	f7fd fc73 	bl	2f8 <pdl_memclr>
    2a12:	2027      	movs	r0, #39	@ 0x27
    2a14:	f7fe faf2 	bl	ffc <Clk_PeripheralClockEnable>
    2a18:	4b72      	ldr	r3, [pc, #456]	@ (2be4 <init_I2S0(sampling_rate)+0x200>)
    2a1a:	f8d3 3660 	ldr.w	r3, [r3, #1632]	@ 0x660
    2a1e:	f023 0303 	bic.w	r3, r3, #3
    2a22:	4a70      	ldr	r2, [pc, #448]	@ (2be4 <init_I2S0(sampling_rate)+0x200>)
    2a24:	f043 0301 	orr.w	r3, r3, #1
    2a28:	f8c2 3660 	str.w	r3, [r2, #1632]	@ 0x660
    2a2c:	4b6e      	ldr	r3, [pc, #440]	@ (2be8 <init_I2S0(sampling_rate)+0x204>)
    2a2e:	2201      	movs	r2, #1
    2a30:	701a      	strb	r2, [r3, #0]
    2a32:	4b6c      	ldr	r3, [pc, #432]	@ (2be4 <init_I2S0(sampling_rate)+0x200>)
    2a34:	f8d3 3660 	ldr.w	r3, [r3, #1632]	@ 0x660
    2a38:	f423 6340 	bic.w	r3, r3, #3072	@ 0xc00
    2a3c:	4a69      	ldr	r2, [pc, #420]	@ (2be4 <init_I2S0(sampling_rate)+0x200>)
    2a3e:	f443 6380 	orr.w	r3, r3, #1024	@ 0x400
    2a42:	f8c2 3660 	str.w	r3, [r2, #1632]	@ 0x660
    2a46:	4b69      	ldr	r3, [pc, #420]	@ (2bec <init_I2S0(sampling_rate)+0x208>)
    2a48:	2201      	movs	r2, #1
    2a4a:	701a      	strb	r2, [r3, #0]
    2a4c:	4b65      	ldr	r3, [pc, #404]	@ (2be4 <init_I2S0(sampling_rate)+0x200>)
    2a4e:	f8d3 3660 	ldr.w	r3, [r3, #1632]	@ 0x660
    2a52:	f423 7340 	bic.w	r3, r3, #768	@ 0x300
    2a56:	4a63      	ldr	r2, [pc, #396]	@ (2be4 <init_I2S0(sampling_rate)+0x200>)
    2a58:	f443 7380 	orr.w	r3, r3, #256	@ 0x100
    2a5c:	f8c2 3660 	str.w	r3, [r2, #1632]	@ 0x660
    2a60:	4b63      	ldr	r3, [pc, #396]	@ (2bf0 <init_I2S0(sampling_rate)+0x20c>)
    2a62:	2201      	movs	r2, #1
    2a64:	701a      	strb	r2, [r3, #0]
    2a66:	4b5f      	ldr	r3, [pc, #380]	@ (2be4 <init_I2S0(sampling_rate)+0x200>)
    2a68:	f8d3 3660 	ldr.w	r3, [r3, #1632]	@ 0x660
    2a6c:	f023 0330 	bic.w	r3, r3, #48	@ 0x30
    2a70:	4a5c      	ldr	r2, [pc, #368]	@ (2be4 <init_I2S0(sampling_rate)+0x200>)
    2a72:	f043 0310 	orr.w	r3, r3, #16
    2a76:	f8c2 3660 	str.w	r3, [r2, #1632]	@ 0x660
    2a7a:	4b5e      	ldr	r3, [pc, #376]	@ (2bf4 <init_I2S0(sampling_rate)+0x210>)
    2a7c:	2201      	movs	r2, #1
    2a7e:	701a      	strb	r2, [r3, #0]
    2a80:	4b58      	ldr	r3, [pc, #352]	@ (2be4 <init_I2S0(sampling_rate)+0x200>)
    2a82:	f8d3 3660 	ldr.w	r3, [r3, #1632]	@ 0x660
    2a86:	f023 03c0 	bic.w	r3, r3, #192	@ 0xc0
    2a8a:	4a56      	ldr	r2, [pc, #344]	@ (2be4 <init_I2S0(sampling_rate)+0x200>)
    2a8c:	f043 0340 	orr.w	r3, r3, #64	@ 0x40
    2a90:	f8c2 3660 	str.w	r3, [r2, #1632]	@ 0x660
    2a94:	4b58      	ldr	r3, [pc, #352]	@ (2bf8 <init_I2S0(sampling_rate)+0x214>)
    2a96:	2201      	movs	r2, #1
    2a98:	701a      	strb	r2, [r3, #0]
    2a9a:	4858      	ldr	r0, [pc, #352]	@ (2bfc <init_I2S0(sampling_rate)+0x218>)
    2a9c:	f7ff f866 	bl	1b6c <I2s_StopClk>
    2aa0:	f7ff f83c 	bl	1b1c <I2s_DisablePll>
    2aa4:	4a56      	ldr	r2, [pc, #344]	@ (2c00 <init_I2S0(sampling_rate)+0x21c>)
    2aa6:	6813      	ldr	r3, [r2, #0]
    2aa8:	f043 0302 	orr.w	r3, r3, #2
    2aac:	6013      	str	r3, [r2, #0]
    2aae:	2300      	movs	r3, #0
    2ab0:	637b      	str	r3, [r7, #52]	@ 0x34
    2ab2:	2300      	movs	r3, #0
    2ab4:	f887 306c 	strb.w	r3, [r7, #108]	@ 0x6c
    2ab8:	2300      	movs	r3, #0
    2aba:	f887 306d 	strb.w	r3, [r7, #109]	@ 0x6d
    2abe:	2300      	movs	r3, #0
    2ac0:	f887 306e 	strb.w	r3, [r7, #110]	@ 0x6e
    2ac4:	2300      	movs	r3, #0
    2ac6:	f887 306f 	strb.w	r3, [r7, #111]	@ 0x6f
    2aca:	2300      	movs	r3, #0
    2acc:	f887 3070 	strb.w	r3, [r7, #112]	@ 0x70
    2ad0:	2300      	movs	r3, #0
    2ad2:	f887 3071 	strb.w	r3, [r7, #113]	@ 0x71
    2ad6:	2300      	movs	r3, #0
    2ad8:	f887 3072 	strb.w	r3, [r7, #114]	@ 0x72
    2adc:	2300      	movs	r3, #0
    2ade:	f887 3073 	strb.w	r3, [r7, #115]	@ 0x73
    2ae2:	2300      	movs	r3, #0
    2ae4:	f887 3074 	strb.w	r3, [r7, #116]	@ 0x74
    2ae8:	2300      	movs	r3, #0
    2aea:	f887 3075 	strb.w	r3, [r7, #117]	@ 0x75
    2aee:	2300      	movs	r3, #0
    2af0:	f887 3076 	strb.w	r3, [r7, #118]	@ 0x76
    2af4:	2300      	movs	r3, #0
    2af6:	f887 3038 	strb.w	r3, [r7, #56]	@ 0x38
    2afa:	79fb      	ldrb	r3, [r7, #7]
    2afc:	2b0c      	cmp	r3, #12
    2afe:	d102      	bne.n	2b06 <init_I2S0(sampling_rate)+0x122>
    2b00:	f44f 73b0 	mov.w	r3, #352	@ 0x160
    2b04:	877b      	strh	r3, [r7, #58]	@ 0x3a
    2b06:	79fb      	ldrb	r3, [r7, #7]
    2b08:	2b18      	cmp	r3, #24
    2b0a:	d101      	bne.n	2b10 <init_I2S0(sampling_rate)+0x12c>
    2b0c:	2340      	movs	r3, #64	@ 0x40
    2b0e:	877b      	strh	r3, [r7, #58]	@ 0x3a
    2b10:	79fb      	ldrb	r3, [r7, #7]
    2b12:	2b00      	cmp	r3, #0
    2b14:	d101      	bne.n	2b1a <init_I2S0(sampling_rate)+0x136>
    2b16:	2320      	movs	r3, #32
    2b18:	877b      	strh	r3, [r7, #58]	@ 0x3a
    2b1a:	79fb      	ldrb	r3, [r7, #7]
    2b1c:	2b1c      	cmp	r3, #28
    2b1e:	d101      	bne.n	2b24 <init_I2S0(sampling_rate)+0x140>
    2b20:	2360      	movs	r3, #96	@ 0x60
    2b22:	877b      	strh	r3, [r7, #58]	@ 0x3a
    2b24:	2300      	movs	r3, #0
    2b26:	f887 303c 	strb.w	r3, [r7, #60]	@ 0x3c
    2b2a:	2300      	movs	r3, #0
    2b2c:	f887 303d 	strb.w	r3, [r7, #61]	@ 0x3d
    2b30:	2300      	movs	r3, #0
    2b32:	f887 303e 	strb.w	r3, [r7, #62]	@ 0x3e
    2b36:	2301      	movs	r3, #1
    2b38:	f887 303f 	strb.w	r3, [r7, #63]	@ 0x3f
    2b3c:	2300      	movs	r3, #0
    2b3e:	f887 3040 	strb.w	r3, [r7, #64]	@ 0x40
    2b42:	2300      	movs	r3, #0
    2b44:	f887 3041 	strb.w	r3, [r7, #65]	@ 0x41
    2b48:	2300      	movs	r3, #0
    2b4a:	f887 3042 	strb.w	r3, [r7, #66]	@ 0x42
    2b4e:	2300      	movs	r3, #0
    2b50:	f887 3043 	strb.w	r3, [r7, #67]	@ 0x43
    2b54:	2300      	movs	r3, #0
    2b56:	f887 3044 	strb.w	r3, [r7, #68]	@ 0x44
    2b5a:	2301      	movs	r3, #1
    2b5c:	f887 3045 	strb.w	r3, [r7, #69]	@ 0x45
    2b60:	2300      	movs	r3, #0
    2b62:	f887 3046 	strb.w	r3, [r7, #70]	@ 0x46
    2b66:	2300      	movs	r3, #0
    2b68:	f887 3047 	strb.w	r3, [r7, #71]	@ 0x47
    2b6c:	2300      	movs	r3, #0
    2b6e:	f887 3048 	strb.w	r3, [r7, #72]	@ 0x48
    2b72:	2301      	movs	r3, #1
    2b74:	f887 3049 	strb.w	r3, [r7, #73]	@ 0x49
    2b78:	230f      	movs	r3, #15
    2b7a:	f887 304a 	strb.w	r3, [r7, #74]	@ 0x4a
    2b7e:	230f      	movs	r3, #15
    2b80:	f887 304b 	strb.w	r3, [r7, #75]	@ 0x4b
    2b84:	2303      	movs	r3, #3
    2b86:	653b      	str	r3, [r7, #80]	@ 0x50
    2b88:	2304      	movs	r3, #4
    2b8a:	f887 3058 	strb.w	r3, [r7, #88]	@ 0x58
    2b8e:	2304      	movs	r3, #4
    2b90:	f887 3059 	strb.w	r3, [r7, #89]	@ 0x59
    2b94:	2300      	movs	r3, #0
    2b96:	f887 305a 	strb.w	r3, [r7, #90]	@ 0x5a
    2b9a:	2300      	movs	r3, #0
    2b9c:	f887 305b 	strb.w	r3, [r7, #91]	@ 0x5b
    2ba0:	2300      	movs	r3, #0
    2ba2:	f887 305c 	strb.w	r3, [r7, #92]	@ 0x5c
    2ba6:	2301      	movs	r3, #1
    2ba8:	f887 305d 	strb.w	r3, [r7, #93]	@ 0x5d
    2bac:	2301      	movs	r3, #1
    2bae:	f887 305e 	strb.w	r3, [r7, #94]	@ 0x5e
    2bb2:	4b14      	ldr	r3, [pc, #80]	@ (2c04 <init_I2S0(sampling_rate)+0x220>)
    2bb4:	2201      	movs	r2, #1
    2bb6:	701a      	strb	r2, [r3, #0]
    2bb8:	4b13      	ldr	r3, [pc, #76]	@ (2c08 <init_I2S0(sampling_rate)+0x224>)
    2bba:	2201      	movs	r2, #1
    2bbc:	701a      	strb	r2, [r3, #0]
    2bbe:	f107 036c 	add.w	r3, r7, #108	@ 0x6c
    2bc2:	663b      	str	r3, [r7, #96]	@ 0x60
    2bc4:	f107 030c 	add.w	r3, r7, #12
    2bc8:	667b      	str	r3, [r7, #100]	@ 0x64
    2bca:	2301      	movs	r3, #1
    2bcc:	f887 3068 	strb.w	r3, [r7, #104]	@ 0x68
    2bd0:	f107 0338 	add.w	r3, r7, #56	@ 0x38
    2bd4:	4619      	mov	r1, r3
    2bd6:	4809      	ldr	r0, [pc, #36]	@ (2bfc <init_I2S0(sampling_rate)+0x218>)
    2bd8:	f7fe ffe0 	bl	1b9c <I2s_Init>
    2bdc:	bf00      	nop
    2bde:	3778      	adds	r7, #120	@ 0x78
    2be0:	46bd      	mov	sp, r7
    2be2:	bd80      	pop	{r7, pc}
    2be4:	4006f000 	.word	0x4006f000
    2be8:	42de02b4 	.word	0x42de02b4
    2bec:	42de02b8 	.word	0x42de02b8
    2bf0:	42de0180 	.word	0x42de0180
    2bf4:	42de0184 	.word	0x42de0184
    2bf8:	42de02bc 	.word	0x42de02bc
    2bfc:	4006c000 	.word	0x4006c000
    2c00:	4003d000 	.word	0x4003d000
    2c04:	42d80520 	.word	0x42d80520
    2c08:	42d80560 	.word	0x42d80560

00002c0c <init_uart0(unsigned long)>:
    2c0c:	b580      	push	{r7, lr}
    2c0e:	b088      	sub	sp, #32
    2c10:	af00      	add	r7, sp, #0
    2c12:	6078      	str	r0, [r7, #4]
    2c14:	f107 030c 	add.w	r3, r7, #12
    2c18:	2114      	movs	r1, #20
    2c1a:	4618      	mov	r0, r3
    2c1c:	f7fd fb6c 	bl	2f8 <pdl_memclr>
    2c20:	2300      	movs	r3, #0
    2c22:	733b      	strb	r3, [r7, #12]
    2c24:	687b      	ldr	r3, [r7, #4]
    2c26:	613b      	str	r3, [r7, #16]
    2c28:	2300      	movs	r3, #0
    2c2a:	753b      	strb	r3, [r7, #20]
    2c2c:	2300      	movs	r3, #0
    2c2e:	757b      	strb	r3, [r7, #21]
    2c30:	2300      	movs	r3, #0
    2c32:	75bb      	strb	r3, [r7, #22]
    2c34:	2300      	movs	r3, #0
    2c36:	75fb      	strb	r3, [r7, #23]
    2c38:	2300      	movs	r3, #0
    2c3a:	763b      	strb	r3, [r7, #24]
    2c3c:	2300      	movs	r3, #0
    2c3e:	767b      	strb	r3, [r7, #25]
    2c40:	2300      	movs	r3, #0
    2c42:	76bb      	strb	r3, [r7, #26]
    2c44:	2300      	movs	r3, #0
    2c46:	61fb      	str	r3, [r7, #28]
    2c48:	4b1c      	ldr	r3, [pc, #112]	@ (2cbc <init_uart0(unsigned long)+0xb0>)
    2c4a:	f8d3 361c 	ldr.w	r3, [r3, #1564]	@ 0x61c
    2c4e:	f023 0330 	bic.w	r3, r3, #48	@ 0x30
    2c52:	4a1a      	ldr	r2, [pc, #104]	@ (2cbc <init_uart0(unsigned long)+0xb0>)
    2c54:	f043 0310 	orr.w	r3, r3, #16
    2c58:	f8c2 361c 	str.w	r3, [r2, #1564]	@ 0x61c
    2c5c:	4b18      	ldr	r3, [pc, #96]	@ (2cc0 <init_uart0(unsigned long)+0xb4>)
    2c5e:	2201      	movs	r2, #1
    2c60:	701a      	strb	r2, [r3, #0]
    2c62:	4b18      	ldr	r3, [pc, #96]	@ (2cc4 <init_uart0(unsigned long)+0xb8>)
    2c64:	2200      	movs	r2, #0
    2c66:	701a      	strb	r2, [r3, #0]
    2c68:	4b14      	ldr	r3, [pc, #80]	@ (2cbc <init_uart0(unsigned long)+0xb0>)
    2c6a:	f8d3 361c 	ldr.w	r3, [r3, #1564]	@ 0x61c
    2c6e:	f023 03c0 	bic.w	r3, r3, #192	@ 0xc0
    2c72:	4a12      	ldr	r2, [pc, #72]	@ (2cbc <init_uart0(unsigned long)+0xb0>)
    2c74:	f043 0340 	orr.w	r3, r3, #64	@ 0x40
    2c78:	f8c2 361c 	str.w	r3, [r2, #1564]	@ 0x61c
    2c7c:	4b12      	ldr	r3, [pc, #72]	@ (2cc8 <init_uart0(unsigned long)+0xbc>)
    2c7e:	2201      	movs	r2, #1
    2c80:	701a      	strb	r2, [r3, #0]
    2c82:	f107 030c 	add.w	r3, r7, #12
    2c86:	4619      	mov	r1, r3
    2c88:	4810      	ldr	r0, [pc, #64]	@ (2ccc <init_uart0(unsigned long)+0xc0>)
    2c8a:	f7fd fcaf 	bl	5ec <Mfs_Uart_Init>
    2c8e:	4603      	mov	r3, r0
    2c90:	2b00      	cmp	r3, #0
    2c92:	bf14      	ite	ne
    2c94:	2301      	movne	r3, #1
    2c96:	2300      	moveq	r3, #0
    2c98:	b2db      	uxtb	r3, r3
    2c9a:	2b00      	cmp	r3, #0
    2c9c:	d001      	beq.n	2ca2 <init_uart0(unsigned long)+0x96>
    2c9e:	bf00      	nop
    2ca0:	e7fd      	b.n	2c9e <init_uart0(unsigned long)+0x92>
    2ca2:	2100      	movs	r1, #0
    2ca4:	4809      	ldr	r0, [pc, #36]	@ (2ccc <init_uart0(unsigned long)+0xc0>)
    2ca6:	f7fd fe39 	bl	91c <Mfs_Uart_EnableFunc>
    2caa:	2101      	movs	r1, #1
    2cac:	4807      	ldr	r0, [pc, #28]	@ (2ccc <init_uart0(unsigned long)+0xc0>)
    2cae:	f7fd fe35 	bl	91c <Mfs_Uart_EnableFunc>
    2cb2:	bf00      	nop
    2cb4:	3720      	adds	r7, #32
    2cb6:	46bd      	mov	sp, r7
    2cb8:	bd80      	pop	{r7, pc}
    2cba:	bf00      	nop
    2cbc:	4006f000 	.word	0x4006f000
    2cc0:	42de0104 	.word	0x42de0104
    2cc4:	42dea07c 	.word	0x42dea07c
    2cc8:	42de0108 	.word	0x42de0108
    2ccc:	40038000 	.word	0x40038000

00002cd0 <init_gpio()>:
    2cd0:	b480      	push	{r7}
    2cd2:	b087      	sub	sp, #28
    2cd4:	af00      	add	r7, sp, #0
    2cd6:	2300      	movs	r3, #0
    2cd8:	75bb      	strb	r3, [r7, #22]
    2cda:	2300      	movs	r3, #0
    2cdc:	757b      	strb	r3, [r7, #21]
    2cde:	2301      	movs	r3, #1
    2ce0:	757b      	strb	r3, [r7, #21]
    2ce2:	4b2b      	ldr	r3, [pc, #172]	@ (2d90 <init_gpio()+0xc0>)
    2ce4:	2200      	movs	r2, #0
    2ce6:	701a      	strb	r2, [r3, #0]
    2ce8:	4b2a      	ldr	r3, [pc, #168]	@ (2d94 <init_gpio()+0xc4>)
    2cea:	7d7a      	ldrb	r2, [r7, #21]
    2cec:	701a      	strb	r2, [r3, #0]
    2cee:	4b2a      	ldr	r3, [pc, #168]	@ (2d98 <init_gpio()+0xc8>)
    2cf0:	2201      	movs	r2, #1
    2cf2:	701a      	strb	r2, [r3, #0]
    2cf4:	4b29      	ldr	r3, [pc, #164]	@ (2d9c <init_gpio()+0xcc>)
    2cf6:	2200      	movs	r2, #0
    2cf8:	701a      	strb	r2, [r3, #0]
    2cfa:	2300      	movs	r3, #0
    2cfc:	74bb      	strb	r3, [r7, #18]
    2cfe:	2300      	movs	r3, #0
    2d00:	747b      	strb	r3, [r7, #17]
    2d02:	2301      	movs	r3, #1
    2d04:	747b      	strb	r3, [r7, #17]
    2d06:	4b26      	ldr	r3, [pc, #152]	@ (2da0 <init_gpio()+0xd0>)
    2d08:	2200      	movs	r2, #0
    2d0a:	701a      	strb	r2, [r3, #0]
    2d0c:	4b25      	ldr	r3, [pc, #148]	@ (2da4 <init_gpio()+0xd4>)
    2d0e:	7c7a      	ldrb	r2, [r7, #17]
    2d10:	701a      	strb	r2, [r3, #0]
    2d12:	4b25      	ldr	r3, [pc, #148]	@ (2da8 <init_gpio()+0xd8>)
    2d14:	2201      	movs	r2, #1
    2d16:	701a      	strb	r2, [r3, #0]
    2d18:	4b24      	ldr	r3, [pc, #144]	@ (2dac <init_gpio()+0xdc>)
    2d1a:	2200      	movs	r2, #0
    2d1c:	701a      	strb	r2, [r3, #0]
    2d1e:	2300      	movs	r3, #0
    2d20:	73bb      	strb	r3, [r7, #14]
    2d22:	2300      	movs	r3, #0
    2d24:	737b      	strb	r3, [r7, #13]
    2d26:	2301      	movs	r3, #1
    2d28:	737b      	strb	r3, [r7, #13]
    2d2a:	4b21      	ldr	r3, [pc, #132]	@ (2db0 <init_gpio()+0xe0>)
    2d2c:	2200      	movs	r2, #0
    2d2e:	701a      	strb	r2, [r3, #0]
    2d30:	4b20      	ldr	r3, [pc, #128]	@ (2db4 <init_gpio()+0xe4>)
    2d32:	7b7a      	ldrb	r2, [r7, #13]
    2d34:	701a      	strb	r2, [r3, #0]
    2d36:	4b20      	ldr	r3, [pc, #128]	@ (2db8 <init_gpio()+0xe8>)
    2d38:	2201      	movs	r2, #1
    2d3a:	701a      	strb	r2, [r3, #0]
    2d3c:	4b1f      	ldr	r3, [pc, #124]	@ (2dbc <init_gpio()+0xec>)
    2d3e:	2200      	movs	r2, #0
    2d40:	701a      	strb	r2, [r3, #0]
    2d42:	2300      	movs	r3, #0
    2d44:	72bb      	strb	r3, [r7, #10]
    2d46:	2300      	movs	r3, #0
    2d48:	727b      	strb	r3, [r7, #9]
    2d4a:	2301      	movs	r3, #1
    2d4c:	727b      	strb	r3, [r7, #9]
    2d4e:	4b1c      	ldr	r3, [pc, #112]	@ (2dc0 <init_gpio()+0xf0>)
    2d50:	2200      	movs	r2, #0
    2d52:	701a      	strb	r2, [r3, #0]
    2d54:	4b1b      	ldr	r3, [pc, #108]	@ (2dc4 <init_gpio()+0xf4>)
    2d56:	7a7a      	ldrb	r2, [r7, #9]
    2d58:	701a      	strb	r2, [r3, #0]
    2d5a:	4b1b      	ldr	r3, [pc, #108]	@ (2dc8 <init_gpio()+0xf8>)
    2d5c:	2201      	movs	r2, #1
    2d5e:	701a      	strb	r2, [r3, #0]
    2d60:	4b1a      	ldr	r3, [pc, #104]	@ (2dcc <init_gpio()+0xfc>)
    2d62:	2200      	movs	r2, #0
    2d64:	701a      	strb	r2, [r3, #0]
    2d66:	2300      	movs	r3, #0
    2d68:	71bb      	strb	r3, [r7, #6]
    2d6a:	2300      	movs	r3, #0
    2d6c:	717b      	strb	r3, [r7, #5]
    2d6e:	2300      	movs	r3, #0
    2d70:	71bb      	strb	r3, [r7, #6]
    2d72:	4b17      	ldr	r3, [pc, #92]	@ (2dd0 <init_gpio()+0x100>)
    2d74:	79ba      	ldrb	r2, [r7, #6]
    2d76:	701a      	strb	r2, [r3, #0]
    2d78:	4b16      	ldr	r3, [pc, #88]	@ (2dd4 <init_gpio()+0x104>)
    2d7a:	2200      	movs	r2, #0
    2d7c:	701a      	strb	r2, [r3, #0]
    2d7e:	4b16      	ldr	r3, [pc, #88]	@ (2dd8 <init_gpio()+0x108>)
    2d80:	2200      	movs	r2, #0
    2d82:	701a      	strb	r2, [r3, #0]
    2d84:	bf00      	nop
    2d86:	371c      	adds	r7, #28
    2d88:	46bd      	mov	sp, r7
    2d8a:	f85d 7b04 	ldr.w	r7, [sp], #4
    2d8e:	4770      	bx	lr
    2d90:	42dea028 	.word	0x42dea028
    2d94:	42de80a8 	.word	0x42de80a8
    2d98:	42de40a8 	.word	0x42de40a8
    2d9c:	42de00a8 	.word	0x42de00a8
    2da0:	42dea048 	.word	0x42dea048
    2da4:	42de8588 	.word	0x42de8588
    2da8:	42de4588 	.word	0x42de4588
    2dac:	42de0588 	.word	0x42de0588
    2db0:	42dea020 	.word	0x42dea020
    2db4:	42de80a0 	.word	0x42de80a0
    2db8:	42de40a0 	.word	0x42de40a0
    2dbc:	42de00a0 	.word	0x42de00a0
    2dc0:	42dea000 	.word	0x42dea000
    2dc4:	42de8080 	.word	0x42de8080
    2dc8:	42de4080 	.word	0x42de4080
    2dcc:	42de0080 	.word	0x42de0080
    2dd0:	42de2100 	.word	0x42de2100
    2dd4:	42de4100 	.word	0x42de4100
    2dd8:	42de0100 	.word	0x42de0100

00002ddc <gpio_set(user_gpio, unsigned char)>:
    2ddc:	b480      	push	{r7}
    2dde:	b083      	sub	sp, #12
    2de0:	af00      	add	r7, sp, #0
    2de2:	4603      	mov	r3, r0
    2de4:	460a      	mov	r2, r1
    2de6:	71fb      	strb	r3, [r7, #7]
    2de8:	4613      	mov	r3, r2
    2dea:	71bb      	strb	r3, [r7, #6]
    2dec:	79fb      	ldrb	r3, [r7, #7]
    2dee:	2b04      	cmp	r3, #4
    2df0:	d81d      	bhi.n	2e2e <gpio_set(user_gpio, unsigned char)+0x52>
    2df2:	a201      	add	r2, pc, #4	@ (adr r2, 2df8 <gpio_set(user_gpio, unsigned char)+0x1c>)
    2df4:	f852 f023 	ldr.w	pc, [r2, r3, lsl #2]
    2df8:	00002e15 	.word	0x00002e15
    2dfc:	00002e1d 	.word	0x00002e1d
    2e00:	00002e25 	.word	0x00002e25
    2e04:	00002e0d 	.word	0x00002e0d
    2e08:	00002e2d 	.word	0x00002e2d
    2e0c:	4a0b      	ldr	r2, [pc, #44]	@ (2e3c <gpio_set(user_gpio, unsigned char)+0x60>)
    2e0e:	79bb      	ldrb	r3, [r7, #6]
    2e10:	7013      	strb	r3, [r2, #0]
    2e12:	e00c      	b.n	2e2e <gpio_set(user_gpio, unsigned char)+0x52>
    2e14:	4a0a      	ldr	r2, [pc, #40]	@ (2e40 <gpio_set(user_gpio, unsigned char)+0x64>)
    2e16:	79bb      	ldrb	r3, [r7, #6]
    2e18:	7013      	strb	r3, [r2, #0]
    2e1a:	e008      	b.n	2e2e <gpio_set(user_gpio, unsigned char)+0x52>
    2e1c:	4a09      	ldr	r2, [pc, #36]	@ (2e44 <gpio_set(user_gpio, unsigned char)+0x68>)
    2e1e:	79bb      	ldrb	r3, [r7, #6]
    2e20:	7013      	strb	r3, [r2, #0]
    2e22:	e004      	b.n	2e2e <gpio_set(user_gpio, unsigned char)+0x52>
    2e24:	4a08      	ldr	r2, [pc, #32]	@ (2e48 <gpio_set(user_gpio, unsigned char)+0x6c>)
    2e26:	79bb      	ldrb	r3, [r7, #6]
    2e28:	7013      	strb	r3, [r2, #0]
    2e2a:	e000      	b.n	2e2e <gpio_set(user_gpio, unsigned char)+0x52>
    2e2c:	bf00      	nop
    2e2e:	bf00      	nop
    2e30:	370c      	adds	r7, #12
    2e32:	46bd      	mov	sp, r7
    2e34:	f85d 7b04 	ldr.w	r7, [sp], #4
    2e38:	4770      	bx	lr
    2e3a:	bf00      	nop
    2e3c:	42de8080 	.word	0x42de8080
    2e40:	42de80a8 	.word	0x42de80a8
    2e44:	42de8588 	.word	0x42de8588
    2e48:	42de80a0 	.word	0x42de80a0

00002e4c <write_uart0(char const*)>:
    2e4c:	b580      	push	{r7, lr}
    2e4e:	b082      	sub	sp, #8
    2e50:	af00      	add	r7, sp, #0
    2e52:	6078      	str	r0, [r7, #4]
    2e54:	e015      	b.n	2e82 <write_uart0(char const*)+0x36>
    2e56:	bf00      	nop
    2e58:	2104      	movs	r1, #4
    2e5a:	480e      	ldr	r0, [pc, #56]	@ (2e94 <write_uart0(char const*)+0x48>)
    2e5c:	f7fd fd84 	bl	968 <Mfs_Uart_GetStatus>
    2e60:	4603      	mov	r3, r0
    2e62:	2b01      	cmp	r3, #1
    2e64:	bf14      	ite	ne
    2e66:	2301      	movne	r3, #1
    2e68:	2300      	moveq	r3, #0
    2e6a:	b2db      	uxtb	r3, r3
    2e6c:	2b00      	cmp	r3, #0
    2e6e:	d1f3      	bne.n	2e58 <write_uart0(char const*)+0xc>
    2e70:	687b      	ldr	r3, [r7, #4]
    2e72:	781b      	ldrb	r3, [r3, #0]
    2e74:	4619      	mov	r1, r3
    2e76:	4807      	ldr	r0, [pc, #28]	@ (2e94 <write_uart0(char const*)+0x48>)
    2e78:	f7fd fdcc 	bl	a14 <Mfs_Uart_SendData>
    2e7c:	687b      	ldr	r3, [r7, #4]
    2e7e:	3301      	adds	r3, #1
    2e80:	607b      	str	r3, [r7, #4]
    2e82:	687b      	ldr	r3, [r7, #4]
    2e84:	781b      	ldrb	r3, [r3, #0]
    2e86:	2b00      	cmp	r3, #0
    2e88:	d1e5      	bne.n	2e56 <write_uart0(char const*)+0xa>
    2e8a:	bf00      	nop
    2e8c:	bf00      	nop
    2e8e:	3708      	adds	r7, #8
    2e90:	46bd      	mov	sp, r7
    2e92:	bd80      	pop	{r7, pc}
    2e94:	40038000 	.word	0x40038000

00002e98 <debug_printf(char const*, ...)>:
    2e98:	b40f      	push	{r0, r1, r2, r3}
    2e9a:	b580      	push	{r7, lr}
    2e9c:	b096      	sub	sp, #88	@ 0x58
    2e9e:	af00      	add	r7, sp, #0
    2ea0:	f107 0364 	add.w	r3, r7, #100	@ 0x64
    2ea4:	657b      	str	r3, [r7, #84]	@ 0x54
    2ea6:	1d38      	adds	r0, r7, #4
    2ea8:	6d7b      	ldr	r3, [r7, #84]	@ 0x54
    2eaa:	6e3a      	ldr	r2, [r7, #96]	@ 0x60
    2eac:	2150      	movs	r1, #80	@ 0x50
    2eae:	f000 fcad 	bl	380c <vsnprintf>
    2eb2:	1d3b      	adds	r3, r7, #4
    2eb4:	4618      	mov	r0, r3
    2eb6:	f7ff ffc9 	bl	2e4c <write_uart0(char const*)>
    2eba:	bf00      	nop
    2ebc:	3758      	adds	r7, #88	@ 0x58
    2ebe:	46bd      	mov	sp, r7
    2ec0:	e8bd 4080 	ldmia.w	sp!, {r7, lr}
    2ec4:	b004      	add	sp, #16
    2ec6:	4770      	bx	lr

00002ec8 <fatal_error()>:
    2ec8:	b580      	push	{r7, lr}
    2eca:	af00      	add	r7, sp, #0
    2ecc:	2101      	movs	r1, #1
    2ece:	2001      	movs	r0, #1
    2ed0:	f7ff ff84 	bl	2ddc <gpio_set(user_gpio, unsigned char)>
    2ed4:	2101      	movs	r1, #1
    2ed6:	2002      	movs	r0, #2
    2ed8:	f7ff ff80 	bl	2ddc <gpio_set(user_gpio, unsigned char)>
    2edc:	2100      	movs	r1, #0
    2ede:	2000      	movs	r0, #0
    2ee0:	f7ff ff7c 	bl	2ddc <gpio_set(user_gpio, unsigned char)>
    2ee4:	4802      	ldr	r0, [pc, #8]	@ (2ef0 <fatal_error()+0x28>)
    2ee6:	f7ff ffd7 	bl	2e98 <debug_printf(char const*, ...)>
    2eea:	bf00      	nop
    2eec:	e7fd      	b.n	2eea <fatal_error()+0x22>
    2eee:	bf00      	nop
    2ef0:	0000a27c 	.word	0x0000a27c

00002ef4 <convert_audio_sample_to_2ch(unsigned long*, short*, short*)>:
    2ef4:	b480      	push	{r7}
    2ef6:	b087      	sub	sp, #28
    2ef8:	af00      	add	r7, sp, #0
    2efa:	60f8      	str	r0, [r7, #12]
    2efc:	60b9      	str	r1, [r7, #8]
    2efe:	607a      	str	r2, [r7, #4]
    2f00:	f44f 7380 	mov.w	r3, #256	@ 0x100
    2f04:	617b      	str	r3, [r7, #20]
    2f06:	e014      	b.n	2f32 <convert_audio_sample_to_2ch(unsigned long*, short*, short*)+0x3e>
    2f08:	68fb      	ldr	r3, [r7, #12]
    2f0a:	681b      	ldr	r3, [r3, #0]
    2f0c:	0c19      	lsrs	r1, r3, #16
    2f0e:	68bb      	ldr	r3, [r7, #8]
    2f10:	1c9a      	adds	r2, r3, #2
    2f12:	60ba      	str	r2, [r7, #8]
    2f14:	b20a      	sxth	r2, r1
    2f16:	801a      	strh	r2, [r3, #0]
    2f18:	68fb      	ldr	r3, [r7, #12]
    2f1a:	6819      	ldr	r1, [r3, #0]
    2f1c:	687b      	ldr	r3, [r7, #4]
    2f1e:	1c9a      	adds	r2, r3, #2
    2f20:	607a      	str	r2, [r7, #4]
    2f22:	b20a      	sxth	r2, r1
    2f24:	801a      	strh	r2, [r3, #0]
    2f26:	68fb      	ldr	r3, [r7, #12]
    2f28:	3304      	adds	r3, #4
    2f2a:	60fb      	str	r3, [r7, #12]
    2f2c:	697b      	ldr	r3, [r7, #20]
    2f2e:	3b01      	subs	r3, #1
    2f30:	617b      	str	r3, [r7, #20]
    2f32:	697b      	ldr	r3, [r7, #20]
    2f34:	2b00      	cmp	r3, #0
    2f36:	d1e7      	bne.n	2f08 <convert_audio_sample_to_2ch(unsigned long*, short*, short*)+0x14>
    2f38:	bf00      	nop
    2f3a:	bf00      	nop
    2f3c:	371c      	adds	r7, #28
    2f3e:	46bd      	mov	sp, r7
    2f40:	f85d 7b04 	ldr.w	r7, [sp], #4
    2f44:	4770      	bx	lr

00002f46 <convert_2ch_to_audio_sample(short*, short*, unsigned long*)>:
    2f46:	b480      	push	{r7}
    2f48:	b089      	sub	sp, #36	@ 0x24
    2f4a:	af00      	add	r7, sp, #0
    2f4c:	60f8      	str	r0, [r7, #12]
    2f4e:	60b9      	str	r1, [r7, #8]
    2f50:	607a      	str	r2, [r7, #4]
    2f52:	f44f 7380 	mov.w	r3, #256	@ 0x100
    2f56:	61fb      	str	r3, [r7, #28]
    2f58:	e01a      	b.n	2f90 <convert_2ch_to_audio_sample(short*, short*, unsigned long*)+0x4a>
    2f5a:	68fb      	ldr	r3, [r7, #12]
    2f5c:	f9b3 3000 	ldrsh.w	r3, [r3]
    2f60:	b29b      	uxth	r3, r3
    2f62:	61bb      	str	r3, [r7, #24]
    2f64:	68bb      	ldr	r3, [r7, #8]
    2f66:	f9b3 3000 	ldrsh.w	r3, [r3]
    2f6a:	b29b      	uxth	r3, r3
    2f6c:	617b      	str	r3, [r7, #20]
    2f6e:	69bb      	ldr	r3, [r7, #24]
    2f70:	0419      	lsls	r1, r3, #16
    2f72:	687b      	ldr	r3, [r7, #4]
    2f74:	1d1a      	adds	r2, r3, #4
    2f76:	607a      	str	r2, [r7, #4]
    2f78:	697a      	ldr	r2, [r7, #20]
    2f7a:	430a      	orrs	r2, r1
    2f7c:	601a      	str	r2, [r3, #0]
    2f7e:	68fb      	ldr	r3, [r7, #12]
    2f80:	3302      	adds	r3, #2
    2f82:	60fb      	str	r3, [r7, #12]
    2f84:	68bb      	ldr	r3, [r7, #8]
    2f86:	3302      	adds	r3, #2
    2f88:	60bb      	str	r3, [r7, #8]
    2f8a:	69fb      	ldr	r3, [r7, #28]
    2f8c:	3b01      	subs	r3, #1
    2f8e:	61fb      	str	r3, [r7, #28]
    2f90:	69fb      	ldr	r3, [r7, #28]
    2f92:	2b00      	cmp	r3, #0
    2f94:	d1e1      	bne.n	2f5a <convert_2ch_to_audio_sample(short*, short*, unsigned long*)+0x14>
    2f96:	bf00      	nop
    2f98:	bf00      	nop
    2f9a:	3724      	adds	r7, #36	@ 0x24
    2f9c:	46bd      	mov	sp, r7
    2f9e:	f85d 7b04 	ldr.w	r7, [sp], #4
    2fa2:	4770      	bx	lr

00002fa4 <main>:
    2fa4:	b580      	push	{r7, lr}
    2fa6:	b082      	sub	sp, #8
    2fa8:	af00      	add	r7, sp, #0
    2faa:	2212      	movs	r2, #18
    2fac:	2118      	movs	r1, #24
    2fae:	f44f 30e1 	mov.w	r0, #115200	@ 0x1c200
    2fb2:	f7ff faf8 	bl	25a6 <init_platform(unsigned long, sampling_rate, audio_input)>
    2fb6:	4a35      	ldr	r2, [pc, #212]	@ (308c <main+0xe8>)
    2fb8:	4935      	ldr	r1, [pc, #212]	@ (3090 <main+0xec>)
    2fba:	4836      	ldr	r0, [pc, #216]	@ (3094 <main+0xf0>)
    2fbc:	f7ff ff6c 	bl	2e98 <debug_printf(char const*, ...)>
    2fc0:	4835      	ldr	r0, [pc, #212]	@ (3098 <main+0xf4>)
    2fc2:	f7ff ff69 	bl	2e98 <debug_printf(char const*, ...)>
    2fc6:	2100      	movs	r1, #0
    2fc8:	2003      	movs	r0, #3
    2fca:	f7ff ff07 	bl	2ddc <gpio_set(user_gpio, unsigned char)>
    2fce:	4833      	ldr	r0, [pc, #204]	@ (309c <main+0xf8>)
    2fd0:	f000 f90d 	bl	31ee <CircularBuffer::init()>
    2fd4:	4832      	ldr	r0, [pc, #200]	@ (30a0 <main+0xfc>)
    2fd6:	f000 f90a 	bl	31ee <CircularBuffer::init()>
    2fda:	f44f 6280 	mov.w	r2, #1024	@ 0x400
    2fde:	2100      	movs	r1, #0
    2fe0:	4830      	ldr	r0, [pc, #192]	@ (30a4 <main+0x100>)
    2fe2:	f000 fc4f 	bl	3884 <memset>
    2fe6:	f44f 6280 	mov.w	r2, #1024	@ 0x400
    2fea:	2100      	movs	r1, #0
    2fec:	482e      	ldr	r0, [pc, #184]	@ (30a8 <main+0x104>)
    2fee:	f000 fc49 	bl	3884 <memset>
    2ff2:	f7ff faf5 	bl	25e0 <platform_start()>
    2ff6:	bf00      	nop
    2ff8:	492a      	ldr	r1, [pc, #168]	@ (30a4 <main+0x100>)
    2ffa:	4828      	ldr	r0, [pc, #160]	@ (309c <main+0xf8>)
    2ffc:	f000 f906 	bl	320c <CircularBuffer::read(unsigned long*)>
    3000:	4603      	mov	r3, r0
    3002:	f083 0301 	eor.w	r3, r3, #1
    3006:	b2db      	uxtb	r3, r3
    3008:	2b00      	cmp	r3, #0
    300a:	d1f5      	bne.n	2ff8 <main+0x54>
    300c:	2101      	movs	r1, #1
    300e:	2002      	movs	r0, #2
    3010:	f7ff fee4 	bl	2ddc <gpio_set(user_gpio, unsigned char)>
    3014:	2101      	movs	r1, #1
    3016:	2003      	movs	r0, #3
    3018:	f7ff fee0 	bl	2ddc <gpio_set(user_gpio, unsigned char)>
    301c:	4a23      	ldr	r2, [pc, #140]	@ (30ac <main+0x108>)
    301e:	4924      	ldr	r1, [pc, #144]	@ (30b0 <main+0x10c>)
    3020:	4820      	ldr	r0, [pc, #128]	@ (30a4 <main+0x100>)
    3022:	f7ff ff67 	bl	2ef4 <convert_audio_sample_to_2ch(unsigned long*, short*, short*)>
    3026:	2300      	movs	r3, #0
    3028:	607b      	str	r3, [r7, #4]
    302a:	e012      	b.n	3052 <main+0xae>
    302c:	4a20      	ldr	r2, [pc, #128]	@ (30b0 <main+0x10c>)
    302e:	687b      	ldr	r3, [r7, #4]
    3030:	f932 1013 	ldrsh.w	r1, [r2, r3, lsl #1]
    3034:	4a1f      	ldr	r2, [pc, #124]	@ (30b4 <main+0x110>)
    3036:	687b      	ldr	r3, [r7, #4]
    3038:	f822 1013 	strh.w	r1, [r2, r3, lsl #1]
    303c:	4a1b      	ldr	r2, [pc, #108]	@ (30ac <main+0x108>)
    303e:	687b      	ldr	r3, [r7, #4]
    3040:	f932 1013 	ldrsh.w	r1, [r2, r3, lsl #1]
    3044:	4a1c      	ldr	r2, [pc, #112]	@ (30b8 <main+0x114>)
    3046:	687b      	ldr	r3, [r7, #4]
    3048:	f822 1013 	strh.w	r1, [r2, r3, lsl #1]
    304c:	687b      	ldr	r3, [r7, #4]
    304e:	3301      	adds	r3, #1
    3050:	607b      	str	r3, [r7, #4]
    3052:	687b      	ldr	r3, [r7, #4]
    3054:	2bff      	cmp	r3, #255	@ 0xff
    3056:	d9e9      	bls.n	302c <main+0x88>
    3058:	4a13      	ldr	r2, [pc, #76]	@ (30a8 <main+0x104>)
    305a:	4917      	ldr	r1, [pc, #92]	@ (30b8 <main+0x114>)
    305c:	4815      	ldr	r0, [pc, #84]	@ (30b4 <main+0x110>)
    305e:	f7ff ff72 	bl	2f46 <convert_2ch_to_audio_sample(short*, short*, unsigned long*)>
    3062:	bf00      	nop
    3064:	4910      	ldr	r1, [pc, #64]	@ (30a8 <main+0x104>)
    3066:	480e      	ldr	r0, [pc, #56]	@ (30a0 <main+0xfc>)
    3068:	f000 f96a 	bl	3340 <CircularBuffer::write(unsigned long*)>
    306c:	4603      	mov	r3, r0
    306e:	f083 0301 	eor.w	r3, r3, #1
    3072:	b2db      	uxtb	r3, r3
    3074:	2b00      	cmp	r3, #0
    3076:	d1f5      	bne.n	3064 <main+0xc0>
    3078:	2100      	movs	r1, #0
    307a:	2002      	movs	r0, #2
    307c:	f7ff feae 	bl	2ddc <gpio_set(user_gpio, unsigned char)>
    3080:	2100      	movs	r1, #0
    3082:	2003      	movs	r0, #3
    3084:	f7ff feaa 	bl	2ddc <gpio_set(user_gpio, unsigned char)>
    3088:	e7b5      	b.n	2ff6 <main+0x52>
    308a:	bf00      	nop
    308c:	0000a28c 	.word	0x0000a28c
    3090:	0000a298 	.word	0x0000a298
    3094:	0000a2a4 	.word	0x0000a2a4
    3098:	0000a2ac 	.word	0x0000a2ac
    309c:	1ffd07b8 	.word	0x1ffd07b8
    30a0:	1ffd13c4 	.word	0x1ffd13c4
    30a4:	1ffd1fd0 	.word	0x1ffd1fd0
    30a8:	1ffd23d0 	.word	0x1ffd23d0
    30ac:	1ffd29d0 	.word	0x1ffd29d0
    30b0:	1ffd27d0 	.word	0x1ffd27d0
    30b4:	1ffd2bd0 	.word	0x1ffd2bd0
    30b8:	1ffd2dd0 	.word	0x1ffd2dd0

000030bc <get_new_tx_buffer_ptr()>:
    30bc:	b580      	push	{r7, lr}
    30be:	b082      	sub	sp, #8
    30c0:	af00      	add	r7, sp, #0
    30c2:	4807      	ldr	r0, [pc, #28]	@ (30e0 <get_new_tx_buffer_ptr()+0x24>)
    30c4:	f000 f8ed 	bl	32a2 <CircularBuffer::get_read_ptr()>
    30c8:	6078      	str	r0, [r7, #4]
    30ca:	687b      	ldr	r3, [r7, #4]
    30cc:	2b00      	cmp	r3, #0
    30ce:	d101      	bne.n	30d4 <get_new_tx_buffer_ptr()+0x18>
    30d0:	f7ff fefa 	bl	2ec8 <fatal_error()>
    30d4:	687b      	ldr	r3, [r7, #4]
    30d6:	4618      	mov	r0, r3
    30d8:	3708      	adds	r7, #8
    30da:	46bd      	mov	sp, r7
    30dc:	bd80      	pop	{r7, pc}
    30de:	bf00      	nop
    30e0:	1ffd13c4 	.word	0x1ffd13c4

000030e4 <get_new_rx_buffer_ptr()>:
    30e4:	b580      	push	{r7, lr}
    30e6:	b082      	sub	sp, #8
    30e8:	af00      	add	r7, sp, #0
    30ea:	4807      	ldr	r0, [pc, #28]	@ (3108 <get_new_rx_buffer_ptr()+0x24>)
    30ec:	f000 f978 	bl	33e0 <CircularBuffer::get_write_ptr()>
    30f0:	6078      	str	r0, [r7, #4]
    30f2:	687b      	ldr	r3, [r7, #4]
    30f4:	2b00      	cmp	r3, #0
    30f6:	d101      	bne.n	30fc <get_new_rx_buffer_ptr()+0x18>
    30f8:	f7ff fee6 	bl	2ec8 <fatal_error()>
    30fc:	687b      	ldr	r3, [r7, #4]
    30fe:	4618      	mov	r0, r3
    3100:	3708      	adds	r7, #8
    3102:	46bd      	mov	sp, r7
    3104:	bd80      	pop	{r7, pc}
    3106:	bf00      	nop
    3108:	1ffd07b8 	.word	0x1ffd07b8

0000310c <__static_initialization_and_destruction_0()>:
    310c:	b580      	push	{r7, lr}
    310e:	af00      	add	r7, sp, #0
    3110:	4803      	ldr	r0, [pc, #12]	@ (3120 <__static_initialization_and_destruction_0()+0x14>)
    3112:	f000 f851 	bl	31b8 <CircularBuffer::CircularBuffer()>
    3116:	4803      	ldr	r0, [pc, #12]	@ (3124 <__static_initialization_and_destruction_0()+0x18>)
    3118:	f000 f84e 	bl	31b8 <CircularBuffer::CircularBuffer()>
    311c:	bf00      	nop
    311e:	bd80      	pop	{r7, pc}
    3120:	1ffd07b8 	.word	0x1ffd07b8
    3124:	1ffd13c4 	.word	0x1ffd13c4

00003128 <_GLOBAL__sub_I_rx_buffer>:
    3128:	b580      	push	{r7, lr}
    312a:	af00      	add	r7, sp, #0
    312c:	f7ff ffee 	bl	310c <__static_initialization_and_destruction_0()>
    3130:	bd80      	pop	{r7, pc}
	...

00003134 <__NVIC_EnableIRQ>:
    3134:	b480      	push	{r7}
    3136:	b083      	sub	sp, #12
    3138:	af00      	add	r7, sp, #0
    313a:	4603      	mov	r3, r0
    313c:	71fb      	strb	r3, [r7, #7]
    313e:	f997 3007 	ldrsb.w	r3, [r7, #7]
    3142:	2b00      	cmp	r3, #0
    3144:	db0b      	blt.n	315e <__NVIC_EnableIRQ+0x2a>
    3146:	79fb      	ldrb	r3, [r7, #7]
    3148:	f003 021f 	and.w	r2, r3, #31
    314c:	4907      	ldr	r1, [pc, #28]	@ (316c <__NVIC_EnableIRQ+0x38>)
    314e:	f997 3007 	ldrsb.w	r3, [r7, #7]
    3152:	095b      	lsrs	r3, r3, #5
    3154:	2001      	movs	r0, #1
    3156:	fa00 f202 	lsl.w	r2, r0, r2
    315a:	f841 2023 	str.w	r2, [r1, r3, lsl #2]
    315e:	bf00      	nop
    3160:	370c      	adds	r7, #12
    3162:	46bd      	mov	sp, r7
    3164:	f85d 7b04 	ldr.w	r7, [sp], #4
    3168:	4770      	bx	lr
    316a:	bf00      	nop
    316c:	e000e100 	.word	0xe000e100

00003170 <__NVIC_DisableIRQ>:
    3170:	b480      	push	{r7}
    3172:	b083      	sub	sp, #12
    3174:	af00      	add	r7, sp, #0
    3176:	4603      	mov	r3, r0
    3178:	71fb      	strb	r3, [r7, #7]
    317a:	f997 3007 	ldrsb.w	r3, [r7, #7]
    317e:	2b00      	cmp	r3, #0
    3180:	db12      	blt.n	31a8 <__NVIC_DisableIRQ+0x38>
    3182:	79fb      	ldrb	r3, [r7, #7]
    3184:	f003 021f 	and.w	r2, r3, #31
    3188:	490a      	ldr	r1, [pc, #40]	@ (31b4 <__NVIC_DisableIRQ+0x44>)
    318a:	f997 3007 	ldrsb.w	r3, [r7, #7]
    318e:	095b      	lsrs	r3, r3, #5
    3190:	2001      	movs	r0, #1
    3192:	fa00 f202 	lsl.w	r2, r0, r2
    3196:	3320      	adds	r3, #32
    3198:	f841 2023 	str.w	r2, [r1, r3, lsl #2]
    319c:	f3bf 8f4f 	dsb	sy
    31a0:	bf00      	nop
    31a2:	f3bf 8f6f 	isb	sy
    31a6:	bf00      	nop
    31a8:	bf00      	nop
    31aa:	370c      	adds	r7, #12
    31ac:	46bd      	mov	sp, r7
    31ae:	f85d 7b04 	ldr.w	r7, [sp], #4
    31b2:	4770      	bx	lr
    31b4:	e000e100 	.word	0xe000e100

000031b8 <CircularBuffer::CircularBuffer()>:
    31b8:	b480      	push	{r7}
    31ba:	b083      	sub	sp, #12
    31bc:	af00      	add	r7, sp, #0
    31be:	6078      	str	r0, [r7, #4]
    31c0:	687a      	ldr	r2, [r7, #4]
    31c2:	687b      	ldr	r3, [r7, #4]
    31c4:	f8c3 2c00 	str.w	r2, [r3, #3072]	@ 0xc00
    31c8:	687a      	ldr	r2, [r7, #4]
    31ca:	687b      	ldr	r3, [r7, #4]
    31cc:	f8c3 2c04 	str.w	r2, [r3, #3076]	@ 0xc04
    31d0:	687b      	ldr	r3, [r7, #4]
    31d2:	2200      	movs	r2, #0
    31d4:	f883 2c08 	strb.w	r2, [r3, #3080]	@ 0xc08
    31d8:	687b      	ldr	r3, [r7, #4]
    31da:	2201      	movs	r2, #1
    31dc:	f883 2c09 	strb.w	r2, [r3, #3081]	@ 0xc09
    31e0:	687b      	ldr	r3, [r7, #4]
    31e2:	4618      	mov	r0, r3
    31e4:	370c      	adds	r7, #12
    31e6:	46bd      	mov	sp, r7
    31e8:	f85d 7b04 	ldr.w	r7, [sp], #4
    31ec:	4770      	bx	lr

000031ee <CircularBuffer::init()>:
    31ee:	b580      	push	{r7, lr}
    31f0:	b082      	sub	sp, #8
    31f2:	af00      	add	r7, sp, #0
    31f4:	6078      	str	r0, [r7, #4]
    31f6:	687b      	ldr	r3, [r7, #4]
    31f8:	f44f 6240 	mov.w	r2, #3072	@ 0xc00
    31fc:	2100      	movs	r1, #0
    31fe:	4618      	mov	r0, r3
    3200:	f000 fb40 	bl	3884 <memset>
    3204:	bf00      	nop
    3206:	3708      	adds	r7, #8
    3208:	46bd      	mov	sp, r7
    320a:	bd80      	pop	{r7, pc}

0000320c <CircularBuffer::read(unsigned long*)>:
    320c:	b580      	push	{r7, lr}
    320e:	b084      	sub	sp, #16
    3210:	af00      	add	r7, sp, #0
    3212:	6078      	str	r0, [r7, #4]
    3214:	6039      	str	r1, [r7, #0]
    3216:	2070      	movs	r0, #112	@ 0x70
    3218:	f7ff ffaa 	bl	3170 <__NVIC_DisableIRQ>
    321c:	687b      	ldr	r3, [r7, #4]
    321e:	f8d3 2c00 	ldr.w	r2, [r3, #3072]	@ 0xc00
    3222:	687b      	ldr	r3, [r7, #4]
    3224:	f8d3 3c04 	ldr.w	r3, [r3, #3076]	@ 0xc04
    3228:	429a      	cmp	r2, r3
    322a:	d10c      	bne.n	3246 <CircularBuffer::read(unsigned long*)+0x3a>
    322c:	687b      	ldr	r3, [r7, #4]
    322e:	f893 3c08 	ldrb.w	r3, [r3, #3080]	@ 0xc08
    3232:	f083 0301 	eor.w	r3, r3, #1
    3236:	b2db      	uxtb	r3, r3
    3238:	2b00      	cmp	r3, #0
    323a:	d004      	beq.n	3246 <CircularBuffer::read(unsigned long*)+0x3a>
    323c:	2070      	movs	r0, #112	@ 0x70
    323e:	f7ff ff79 	bl	3134 <__NVIC_EnableIRQ>
    3242:	2300      	movs	r3, #0
    3244:	e029      	b.n	329a <CircularBuffer::read(unsigned long*)+0x8e>
    3246:	2070      	movs	r0, #112	@ 0x70
    3248:	f7ff ff74 	bl	3134 <__NVIC_EnableIRQ>
    324c:	f44f 7380 	mov.w	r3, #256	@ 0x100
    3250:	60fb      	str	r3, [r7, #12]
    3252:	e00e      	b.n	3272 <CircularBuffer::read(unsigned long*)+0x66>
    3254:	687b      	ldr	r3, [r7, #4]
    3256:	f8d3 2c00 	ldr.w	r2, [r3, #3072]	@ 0xc00
    325a:	1d11      	adds	r1, r2, #4
    325c:	687b      	ldr	r3, [r7, #4]
    325e:	f8c3 1c00 	str.w	r1, [r3, #3072]	@ 0xc00
    3262:	683b      	ldr	r3, [r7, #0]
    3264:	1d19      	adds	r1, r3, #4
    3266:	6039      	str	r1, [r7, #0]
    3268:	6812      	ldr	r2, [r2, #0]
    326a:	601a      	str	r2, [r3, #0]
    326c:	68fb      	ldr	r3, [r7, #12]
    326e:	3b01      	subs	r3, #1
    3270:	60fb      	str	r3, [r7, #12]
    3272:	68fb      	ldr	r3, [r7, #12]
    3274:	2b00      	cmp	r3, #0
    3276:	d1ed      	bne.n	3254 <CircularBuffer::read(unsigned long*)+0x48>
    3278:	687b      	ldr	r3, [r7, #4]
    327a:	f8d3 2c00 	ldr.w	r2, [r3, #3072]	@ 0xc00
    327e:	687b      	ldr	r3, [r7, #4]
    3280:	f503 6340 	add.w	r3, r3, #3072	@ 0xc00
    3284:	429a      	cmp	r2, r3
    3286:	d303      	bcc.n	3290 <CircularBuffer::read(unsigned long*)+0x84>
    3288:	687a      	ldr	r2, [r7, #4]
    328a:	687b      	ldr	r3, [r7, #4]
    328c:	f8c3 2c00 	str.w	r2, [r3, #3072]	@ 0xc00
    3290:	687b      	ldr	r3, [r7, #4]
    3292:	2200      	movs	r2, #0
    3294:	f883 2c08 	strb.w	r2, [r3, #3080]	@ 0xc08
    3298:	2301      	movs	r3, #1
    329a:	4618      	mov	r0, r3
    329c:	3710      	adds	r7, #16
    329e:	46bd      	mov	sp, r7
    32a0:	bd80      	pop	{r7, pc}

000032a2 <CircularBuffer::get_read_ptr()>:
    32a2:	b580      	push	{r7, lr}
    32a4:	b082      	sub	sp, #8
    32a6:	af00      	add	r7, sp, #0
    32a8:	6078      	str	r0, [r7, #4]
    32aa:	687b      	ldr	r3, [r7, #4]
    32ac:	f893 3c09 	ldrb.w	r3, [r3, #3081]	@ 0xc09
    32b0:	f083 0301 	eor.w	r3, r3, #1
    32b4:	b2db      	uxtb	r3, r3
    32b6:	2b00      	cmp	r3, #0
    32b8:	d02d      	beq.n	3316 <CircularBuffer::get_read_ptr()+0x74>
    32ba:	687b      	ldr	r3, [r7, #4]
    32bc:	f8d3 3c00 	ldr.w	r3, [r3, #3072]	@ 0xc00
    32c0:	f503 6280 	add.w	r2, r3, #1024	@ 0x400
    32c4:	687b      	ldr	r3, [r7, #4]
    32c6:	f8c3 2c00 	str.w	r2, [r3, #3072]	@ 0xc00
    32ca:	687b      	ldr	r3, [r7, #4]
    32cc:	f8d3 2c00 	ldr.w	r2, [r3, #3072]	@ 0xc00
    32d0:	687b      	ldr	r3, [r7, #4]
    32d2:	f503 6340 	add.w	r3, r3, #3072	@ 0xc00
    32d6:	429a      	cmp	r2, r3
    32d8:	d303      	bcc.n	32e2 <CircularBuffer::get_read_ptr()+0x40>
    32da:	687a      	ldr	r2, [r7, #4]
    32dc:	687b      	ldr	r3, [r7, #4]
    32de:	f8c3 2c00 	str.w	r2, [r3, #3072]	@ 0xc00
    32e2:	687b      	ldr	r3, [r7, #4]
    32e4:	2200      	movs	r2, #0
    32e6:	f883 2c08 	strb.w	r2, [r3, #3080]	@ 0xc08
    32ea:	687b      	ldr	r3, [r7, #4]
    32ec:	f8d3 2c00 	ldr.w	r2, [r3, #3072]	@ 0xc00
    32f0:	687b      	ldr	r3, [r7, #4]
    32f2:	f8d3 3c04 	ldr.w	r3, [r3, #3076]	@ 0xc04
    32f6:	429a      	cmp	r2, r3
    32f8:	d109      	bne.n	330e <CircularBuffer::get_read_ptr()+0x6c>
    32fa:	687b      	ldr	r3, [r7, #4]
    32fc:	f893 3c08 	ldrb.w	r3, [r3, #3080]	@ 0xc08
    3300:	f083 0301 	eor.w	r3, r3, #1
    3304:	b2db      	uxtb	r3, r3
    3306:	2b00      	cmp	r3, #0
    3308:	d001      	beq.n	330e <CircularBuffer::get_read_ptr()+0x6c>
    330a:	f7ff fddd 	bl	2ec8 <fatal_error()>
    330e:	687b      	ldr	r3, [r7, #4]
    3310:	f8d3 3c00 	ldr.w	r3, [r3, #3072]	@ 0xc00
    3314:	e010      	b.n	3338 <CircularBuffer::get_read_ptr()+0x96>
    3316:	687b      	ldr	r3, [r7, #4]
    3318:	f8d3 2c00 	ldr.w	r2, [r3, #3072]	@ 0xc00
    331c:	687b      	ldr	r3, [r7, #4]
    331e:	f503 6340 	add.w	r3, r3, #3072	@ 0xc00
    3322:	429a      	cmp	r2, r3
    3324:	d301      	bcc.n	332a <CircularBuffer::get_read_ptr()+0x88>
    3326:	f7ff fdcf 	bl	2ec8 <fatal_error()>
    332a:	687b      	ldr	r3, [r7, #4]
    332c:	2200      	movs	r2, #0
    332e:	f883 2c09 	strb.w	r2, [r3, #3081]	@ 0xc09
    3332:	687b      	ldr	r3, [r7, #4]
    3334:	f8d3 3c00 	ldr.w	r3, [r3, #3072]	@ 0xc00
    3338:	4618      	mov	r0, r3
    333a:	3708      	adds	r7, #8
    333c:	46bd      	mov	sp, r7
    333e:	bd80      	pop	{r7, pc}

00003340 <CircularBuffer::write(unsigned long*)>:
    3340:	b580      	push	{r7, lr}
    3342:	b084      	sub	sp, #16
    3344:	af00      	add	r7, sp, #0
    3346:	6078      	str	r0, [r7, #4]
    3348:	6039      	str	r1, [r7, #0]
    334a:	2070      	movs	r0, #112	@ 0x70
    334c:	f7ff ff10 	bl	3170 <__NVIC_DisableIRQ>
    3350:	687b      	ldr	r3, [r7, #4]
    3352:	f8d3 2c04 	ldr.w	r2, [r3, #3076]	@ 0xc04
    3356:	687b      	ldr	r3, [r7, #4]
    3358:	f8d3 3c00 	ldr.w	r3, [r3, #3072]	@ 0xc00
    335c:	429a      	cmp	r2, r3
    335e:	d109      	bne.n	3374 <CircularBuffer::write(unsigned long*)+0x34>
    3360:	687b      	ldr	r3, [r7, #4]
    3362:	f893 3c08 	ldrb.w	r3, [r3, #3080]	@ 0xc08
    3366:	2b00      	cmp	r3, #0
    3368:	d004      	beq.n	3374 <CircularBuffer::write(unsigned long*)+0x34>
    336a:	2070      	movs	r0, #112	@ 0x70
    336c:	f7ff fee2 	bl	3134 <__NVIC_EnableIRQ>
    3370:	2300      	movs	r3, #0
    3372:	e031      	b.n	33d8 <CircularBuffer::write(unsigned long*)+0x98>
    3374:	f44f 7380 	mov.w	r3, #256	@ 0x100
    3378:	60fb      	str	r3, [r7, #12]
    337a:	e00e      	b.n	339a <CircularBuffer::write(unsigned long*)+0x5a>
    337c:	683a      	ldr	r2, [r7, #0]
    337e:	1d13      	adds	r3, r2, #4
    3380:	603b      	str	r3, [r7, #0]
    3382:	687b      	ldr	r3, [r7, #4]
    3384:	f8d3 3c04 	ldr.w	r3, [r3, #3076]	@ 0xc04
    3388:	1d18      	adds	r0, r3, #4
    338a:	6879      	ldr	r1, [r7, #4]
    338c:	f8c1 0c04 	str.w	r0, [r1, #3076]	@ 0xc04
    3390:	6812      	ldr	r2, [r2, #0]
    3392:	601a      	str	r2, [r3, #0]
    3394:	68fb      	ldr	r3, [r7, #12]
    3396:	3b01      	subs	r3, #1
    3398:	60fb      	str	r3, [r7, #12]
    339a:	68fb      	ldr	r3, [r7, #12]
    339c:	2b00      	cmp	r3, #0
    339e:	d1ed      	bne.n	337c <CircularBuffer::write(unsigned long*)+0x3c>
    33a0:	687b      	ldr	r3, [r7, #4]
    33a2:	f8d3 2c04 	ldr.w	r2, [r3, #3076]	@ 0xc04
    33a6:	687b      	ldr	r3, [r7, #4]
    33a8:	f503 6340 	add.w	r3, r3, #3072	@ 0xc00
    33ac:	429a      	cmp	r2, r3
    33ae:	d303      	bcc.n	33b8 <CircularBuffer::write(unsigned long*)+0x78>
    33b0:	687a      	ldr	r2, [r7, #4]
    33b2:	687b      	ldr	r3, [r7, #4]
    33b4:	f8c3 2c04 	str.w	r2, [r3, #3076]	@ 0xc04
    33b8:	687b      	ldr	r3, [r7, #4]
    33ba:	f8d3 2c04 	ldr.w	r2, [r3, #3076]	@ 0xc04
    33be:	687b      	ldr	r3, [r7, #4]
    33c0:	f8d3 3c00 	ldr.w	r3, [r3, #3072]	@ 0xc00
    33c4:	429a      	cmp	r2, r3
    33c6:	d103      	bne.n	33d0 <CircularBuffer::write(unsigned long*)+0x90>
    33c8:	687b      	ldr	r3, [r7, #4]
    33ca:	2201      	movs	r2, #1
    33cc:	f883 2c08 	strb.w	r2, [r3, #3080]	@ 0xc08
    33d0:	2070      	movs	r0, #112	@ 0x70
    33d2:	f7ff feaf 	bl	3134 <__NVIC_EnableIRQ>
    33d6:	2301      	movs	r3, #1
    33d8:	4618      	mov	r0, r3
    33da:	3710      	adds	r7, #16
    33dc:	46bd      	mov	sp, r7
    33de:	bd80      	pop	{r7, pc}

000033e0 <CircularBuffer::get_write_ptr()>:
    33e0:	b580      	push	{r7, lr}
    33e2:	b082      	sub	sp, #8
    33e4:	af00      	add	r7, sp, #0
    33e6:	6078      	str	r0, [r7, #4]
    33e8:	687b      	ldr	r3, [r7, #4]
    33ea:	f893 3c09 	ldrb.w	r3, [r3, #3081]	@ 0xc09
    33ee:	f083 0301 	eor.w	r3, r3, #1
    33f2:	b2db      	uxtb	r3, r3
    33f4:	2b00      	cmp	r3, #0
    33f6:	d02a      	beq.n	344e <CircularBuffer::get_write_ptr()+0x6e>
    33f8:	687b      	ldr	r3, [r7, #4]
    33fa:	f8d3 3c04 	ldr.w	r3, [r3, #3076]	@ 0xc04
    33fe:	f503 6280 	add.w	r2, r3, #1024	@ 0x400
    3402:	687b      	ldr	r3, [r7, #4]
    3404:	f8c3 2c04 	str.w	r2, [r3, #3076]	@ 0xc04
    3408:	687b      	ldr	r3, [r7, #4]
    340a:	f8d3 2c04 	ldr.w	r2, [r3, #3076]	@ 0xc04
    340e:	687b      	ldr	r3, [r7, #4]
    3410:	f503 6340 	add.w	r3, r3, #3072	@ 0xc00
    3414:	429a      	cmp	r2, r3
    3416:	d303      	bcc.n	3420 <CircularBuffer::get_write_ptr()+0x40>
    3418:	687a      	ldr	r2, [r7, #4]
    341a:	687b      	ldr	r3, [r7, #4]
    341c:	f8c3 2c04 	str.w	r2, [r3, #3076]	@ 0xc04
    3420:	687b      	ldr	r3, [r7, #4]
    3422:	f8d3 2c04 	ldr.w	r2, [r3, #3076]	@ 0xc04
    3426:	687b      	ldr	r3, [r7, #4]
    3428:	f8d3 3c00 	ldr.w	r3, [r3, #3072]	@ 0xc00
    342c:	429a      	cmp	r2, r3
    342e:	d103      	bne.n	3438 <CircularBuffer::get_write_ptr()+0x58>
    3430:	687b      	ldr	r3, [r7, #4]
    3432:	2201      	movs	r2, #1
    3434:	f883 2c08 	strb.w	r2, [r3, #3080]	@ 0xc08
    3438:	687b      	ldr	r3, [r7, #4]
    343a:	f893 3c08 	ldrb.w	r3, [r3, #3080]	@ 0xc08
    343e:	2b00      	cmp	r3, #0
    3440:	d001      	beq.n	3446 <CircularBuffer::get_write_ptr()+0x66>
    3442:	f7ff fd41 	bl	2ec8 <fatal_error()>
    3446:	687b      	ldr	r3, [r7, #4]
    3448:	f8d3 3c04 	ldr.w	r3, [r3, #3076]	@ 0xc04
    344c:	e010      	b.n	3470 <CircularBuffer::get_write_ptr()+0x90>
    344e:	687b      	ldr	r3, [r7, #4]
    3450:	f8d3 2c04 	ldr.w	r2, [r3, #3076]	@ 0xc04
    3454:	687b      	ldr	r3, [r7, #4]
    3456:	f503 6340 	add.w	r3, r3, #3072	@ 0xc00
    345a:	429a      	cmp	r2, r3
    345c:	d301      	bcc.n	3462 <CircularBuffer::get_write_ptr()+0x82>
    345e:	f7ff fd33 	bl	2ec8 <fatal_error()>
    3462:	687b      	ldr	r3, [r7, #4]
    3464:	2200      	movs	r2, #0
    3466:	f883 2c09 	strb.w	r2, [r3, #3081]	@ 0xc09
    346a:	687b      	ldr	r3, [r7, #4]
    346c:	f8d3 3c04 	ldr.w	r3, [r3, #3076]	@ 0xc04
    3470:	4618      	mov	r0, r3
    3472:	3708      	adds	r7, #8
    3474:	46bd      	mov	sp, r7
    3476:	bd80      	pop	{r7, pc}

00003478 <_stack_init>:
    3478:	f5a3 3a80 	sub.w	sl, r3, #65536	@ 0x10000
    347c:	4770      	bx	lr
    347e:	bf00      	nop

00003480 <_mainCRTStartup>:
    3480:	4b17      	ldr	r3, [pc, #92]	@ (34e0 <_mainCRTStartup+0x60>)
    3482:	2b00      	cmp	r3, #0
    3484:	bf08      	it	eq
    3486:	4b13      	ldreq	r3, [pc, #76]	@ (34d4 <_mainCRTStartup+0x54>)
    3488:	469d      	mov	sp, r3
    348a:	f7ff fff5 	bl	3478 <_stack_init>
    348e:	2100      	movs	r1, #0
    3490:	468b      	mov	fp, r1
    3492:	460f      	mov	r7, r1
    3494:	4813      	ldr	r0, [pc, #76]	@ (34e4 <_mainCRTStartup+0x64>)
    3496:	4a14      	ldr	r2, [pc, #80]	@ (34e8 <_mainCRTStartup+0x68>)
    3498:	1a12      	subs	r2, r2, r0
    349a:	f000 f9f3 	bl	3884 <memset>
    349e:	4b0e      	ldr	r3, [pc, #56]	@ (34d8 <_mainCRTStartup+0x58>)
    34a0:	2b00      	cmp	r3, #0
    34a2:	d000      	beq.n	34a6 <_mainCRTStartup+0x26>
    34a4:	4798      	blx	r3
    34a6:	4b0d      	ldr	r3, [pc, #52]	@ (34dc <_mainCRTStartup+0x5c>)
    34a8:	2b00      	cmp	r3, #0
    34aa:	d000      	beq.n	34ae <_mainCRTStartup+0x2e>
    34ac:	4798      	blx	r3
    34ae:	2000      	movs	r0, #0
    34b0:	2100      	movs	r1, #0
    34b2:	0004      	movs	r4, r0
    34b4:	000d      	movs	r5, r1
    34b6:	480d      	ldr	r0, [pc, #52]	@ (34ec <_mainCRTStartup+0x6c>)
    34b8:	2800      	cmp	r0, #0
    34ba:	d002      	beq.n	34c2 <_mainCRTStartup+0x42>
    34bc:	480c      	ldr	r0, [pc, #48]	@ (34f0 <_mainCRTStartup+0x70>)
    34be:	f000 fb27 	bl	3b10 <atexit>
    34c2:	f000 fa8b 	bl	39dc <__libc_init_array>
    34c6:	0020      	movs	r0, r4
    34c8:	0029      	movs	r1, r5
    34ca:	f7ff fd6b 	bl	2fa4 <main>
    34ce:	f000 f857 	bl	3580 <exit>
    34d2:	bf00      	nop
    34d4:	00080000 	.word	0x00080000
	...
    34e0:	1ffff000 	.word	0x1ffff000
    34e4:	1ffd0764 	.word	0x1ffd0764
    34e8:	1ffd3304 	.word	0x1ffd3304
    34ec:	00003b11 	.word	0x00003b11
    34f0:	000061c9 	.word	0x000061c9

000034f4 <deregister_tm_clones>:
    34f4:	4803      	ldr	r0, [pc, #12]	@ (3504 <deregister_tm_clones+0x10>)
    34f6:	4b04      	ldr	r3, [pc, #16]	@ (3508 <deregister_tm_clones+0x14>)
    34f8:	4283      	cmp	r3, r0
    34fa:	d002      	beq.n	3502 <deregister_tm_clones+0xe>
    34fc:	4b03      	ldr	r3, [pc, #12]	@ (350c <deregister_tm_clones+0x18>)
    34fe:	b103      	cbz	r3, 3502 <deregister_tm_clones+0xe>
    3500:	4718      	bx	r3
    3502:	4770      	bx	lr
    3504:	1ffd0764 	.word	0x1ffd0764
    3508:	1ffd0764 	.word	0x1ffd0764
    350c:	00000000 	.word	0x00000000

00003510 <register_tm_clones>:
    3510:	4805      	ldr	r0, [pc, #20]	@ (3528 <register_tm_clones+0x18>)
    3512:	4b06      	ldr	r3, [pc, #24]	@ (352c <register_tm_clones+0x1c>)
    3514:	1a1b      	subs	r3, r3, r0
    3516:	0fd9      	lsrs	r1, r3, #31
    3518:	eb01 01a3 	add.w	r1, r1, r3, asr #2
    351c:	1049      	asrs	r1, r1, #1
    351e:	d002      	beq.n	3526 <register_tm_clones+0x16>
    3520:	4b03      	ldr	r3, [pc, #12]	@ (3530 <register_tm_clones+0x20>)
    3522:	b103      	cbz	r3, 3526 <register_tm_clones+0x16>
    3524:	4718      	bx	r3
    3526:	4770      	bx	lr
    3528:	1ffd0764 	.word	0x1ffd0764
    352c:	1ffd0764 	.word	0x1ffd0764
    3530:	00000000 	.word	0x00000000

00003534 <__do_global_dtors_aux>:
    3534:	b510      	push	{r4, lr}
    3536:	4c06      	ldr	r4, [pc, #24]	@ (3550 <__do_global_dtors_aux+0x1c>)
    3538:	7823      	ldrb	r3, [r4, #0]
    353a:	b943      	cbnz	r3, 354e <__do_global_dtors_aux+0x1a>
    353c:	f7ff ffda 	bl	34f4 <deregister_tm_clones>
    3540:	4b04      	ldr	r3, [pc, #16]	@ (3554 <__do_global_dtors_aux+0x20>)
    3542:	b113      	cbz	r3, 354a <__do_global_dtors_aux+0x16>
    3544:	4804      	ldr	r0, [pc, #16]	@ (3558 <__do_global_dtors_aux+0x24>)
    3546:	f3af 8000 	nop.w
    354a:	2301      	movs	r3, #1
    354c:	7023      	strb	r3, [r4, #0]
    354e:	bd10      	pop	{r4, pc}
    3550:	1ffd2fd0 	.word	0x1ffd2fd0
    3554:	00000000 	.word	0x00000000
    3558:	0000a6a4 	.word	0x0000a6a4

0000355c <frame_dummy>:
    355c:	b508      	push	{r3, lr}
    355e:	4b05      	ldr	r3, [pc, #20]	@ (3574 <frame_dummy+0x18>)
    3560:	b11b      	cbz	r3, 356a <frame_dummy+0xe>
    3562:	4905      	ldr	r1, [pc, #20]	@ (3578 <frame_dummy+0x1c>)
    3564:	4805      	ldr	r0, [pc, #20]	@ (357c <frame_dummy+0x20>)
    3566:	f3af 8000 	nop.w
    356a:	e8bd 4008 	ldmia.w	sp!, {r3, lr}
    356e:	f7ff bfcf 	b.w	3510 <register_tm_clones>
    3572:	bf00      	nop
    3574:	00000000 	.word	0x00000000
    3578:	1ffd2fd4 	.word	0x1ffd2fd4
    357c:	0000a6a4 	.word	0x0000a6a4

00003580 <exit>:
    3580:	b508      	push	{r3, lr}
    3582:	2100      	movs	r1, #0
    3584:	4604      	mov	r4, r0
    3586:	f000 fa63 	bl	3a50 <__call_exitprocs>
    358a:	4b03      	ldr	r3, [pc, #12]	@ (3598 <exit+0x18>)
    358c:	681b      	ldr	r3, [r3, #0]
    358e:	b103      	cbz	r3, 3592 <exit+0x12>
    3590:	4798      	blx	r3
    3592:	4620      	mov	r0, r4
    3594:	f006 f9d0 	bl	9938 <_exit>
    3598:	1ffd3124 	.word	0x1ffd3124

0000359c <stdio_exit_handler>:
    359c:	4a02      	ldr	r2, [pc, #8]	@ (35a8 <stdio_exit_handler+0xc>)
    359e:	4903      	ldr	r1, [pc, #12]	@ (35ac <stdio_exit_handler+0x10>)
    35a0:	4803      	ldr	r0, [pc, #12]	@ (35b0 <stdio_exit_handler+0x14>)
    35a2:	f000 b8c9 	b.w	3738 <_fwalk_sglue>
    35a6:	bf00      	nop
    35a8:	1ffd007c 	.word	0x1ffd007c
    35ac:	00005edd 	.word	0x00005edd
    35b0:	1ffd0090 	.word	0x1ffd0090

000035b4 <cleanup_stdio>:
    35b4:	4b0c      	ldr	r3, [pc, #48]	@ (35e8 <cleanup_stdio+0x34>)
    35b6:	6841      	ldr	r1, [r0, #4]
    35b8:	4299      	cmp	r1, r3
    35ba:	b510      	push	{r4, lr}
    35bc:	4604      	mov	r4, r0
    35be:	d001      	beq.n	35c4 <cleanup_stdio+0x10>
    35c0:	f002 fc8c 	bl	5edc <_fclose_r>
    35c4:	68a1      	ldr	r1, [r4, #8]
    35c6:	4b09      	ldr	r3, [pc, #36]	@ (35ec <cleanup_stdio+0x38>)
    35c8:	4299      	cmp	r1, r3
    35ca:	d002      	beq.n	35d2 <cleanup_stdio+0x1e>
    35cc:	4620      	mov	r0, r4
    35ce:	f002 fc85 	bl	5edc <_fclose_r>
    35d2:	68e1      	ldr	r1, [r4, #12]
    35d4:	4b06      	ldr	r3, [pc, #24]	@ (35f0 <cleanup_stdio+0x3c>)
    35d6:	4299      	cmp	r1, r3
    35d8:	d004      	beq.n	35e4 <cleanup_stdio+0x30>
    35da:	4620      	mov	r0, r4
    35dc:	e8bd 4010 	ldmia.w	sp!, {r4, lr}
    35e0:	f002 bc7c 	b.w	5edc <_fclose_r>
    35e4:	bd10      	pop	{r4, pc}
    35e6:	bf00      	nop
    35e8:	1ffd2fec 	.word	0x1ffd2fec
    35ec:	1ffd3054 	.word	0x1ffd3054
    35f0:	1ffd30bc 	.word	0x1ffd30bc

000035f4 <global_stdio_init.part.0>:
    35f4:	e92d 43f8 	stmdb	sp!, {r3, r4, r5, r6, r7, r8, r9, lr}
    35f8:	4a31      	ldr	r2, [pc, #196]	@ (36c0 <global_stdio_init.part.0+0xcc>)
    35fa:	4c32      	ldr	r4, [pc, #200]	@ (36c4 <global_stdio_init.part.0+0xd0>)
    35fc:	4932      	ldr	r1, [pc, #200]	@ (36c8 <global_stdio_init.part.0+0xd4>)
    35fe:	f8df 90dc 	ldr.w	r9, [pc, #220]	@ 36dc <global_stdio_init.part.0+0xe8>
    3602:	f8df 80dc 	ldr.w	r8, [pc, #220]	@ 36e0 <global_stdio_init.part.0+0xec>
    3606:	4f31      	ldr	r7, [pc, #196]	@ (36cc <global_stdio_init.part.0+0xd8>)
    3608:	6011      	str	r1, [r2, #0]
    360a:	2500      	movs	r5, #0
    360c:	2304      	movs	r3, #4
    360e:	4629      	mov	r1, r5
    3610:	2208      	movs	r2, #8
    3612:	f104 005c 	add.w	r0, r4, #92	@ 0x5c
    3616:	e9c4 3503 	strd	r3, r5, [r4, #12]
    361a:	4e2d      	ldr	r6, [pc, #180]	@ (36d0 <global_stdio_init.part.0+0xdc>)
    361c:	60a5      	str	r5, [r4, #8]
    361e:	e9c4 5500 	strd	r5, r5, [r4]
    3622:	e9c4 5505 	strd	r5, r5, [r4, #20]
    3626:	6665      	str	r5, [r4, #100]	@ 0x64
    3628:	f000 f92c 	bl	3884 <memset>
    362c:	f104 0058 	add.w	r0, r4, #88	@ 0x58
    3630:	e9c4 4907 	strd	r4, r9, [r4, #28]
    3634:	e9c4 8709 	strd	r8, r7, [r4, #36]	@ 0x24
    3638:	62e6      	str	r6, [r4, #44]	@ 0x2c
    363a:	f000 f9f7 	bl	3a2c <__retarget_lock_init_recursive>
    363e:	4629      	mov	r1, r5
    3640:	4b24      	ldr	r3, [pc, #144]	@ (36d4 <global_stdio_init.part.0+0xe0>)
    3642:	6763      	str	r3, [r4, #116]	@ 0x74
    3644:	2208      	movs	r2, #8
    3646:	f104 00c4 	add.w	r0, r4, #196	@ 0xc4
    364a:	e9c4 551a 	strd	r5, r5, [r4, #104]	@ 0x68
    364e:	e9c4 551e 	strd	r5, r5, [r4, #120]	@ 0x78
    3652:	6725      	str	r5, [r4, #112]	@ 0x70
    3654:	f8c4 50cc 	str.w	r5, [r4, #204]	@ 0xcc
    3658:	f8c4 5080 	str.w	r5, [r4, #128]	@ 0x80
    365c:	f000 f912 	bl	3884 <memset>
    3660:	f104 0368 	add.w	r3, r4, #104	@ 0x68
    3664:	f104 00c0 	add.w	r0, r4, #192	@ 0xc0
    3668:	f8c4 3084 	str.w	r3, [r4, #132]	@ 0x84
    366c:	e9c4 9822 	strd	r9, r8, [r4, #136]	@ 0x88
    3670:	e9c4 7624 	strd	r7, r6, [r4, #144]	@ 0x90
    3674:	f000 f9da 	bl	3a2c <__retarget_lock_init_recursive>
    3678:	4b17      	ldr	r3, [pc, #92]	@ (36d8 <global_stdio_init.part.0+0xe4>)
    367a:	f8c4 30dc 	str.w	r3, [r4, #220]	@ 0xdc
    367e:	4629      	mov	r1, r5
    3680:	f504 7096 	add.w	r0, r4, #300	@ 0x12c
    3684:	2208      	movs	r2, #8
    3686:	e9c4 5534 	strd	r5, r5, [r4, #208]	@ 0xd0
    368a:	e9c4 5538 	strd	r5, r5, [r4, #224]	@ 0xe0
    368e:	f8c4 50d8 	str.w	r5, [r4, #216]	@ 0xd8
    3692:	f8c4 5134 	str.w	r5, [r4, #308]	@ 0x134
    3696:	f8c4 50e8 	str.w	r5, [r4, #232]	@ 0xe8
    369a:	f000 f8f3 	bl	3884 <memset>
    369e:	f104 03d0 	add.w	r3, r4, #208	@ 0xd0
    36a2:	e9c4 873d 	strd	r8, r7, [r4, #244]	@ 0xf4
    36a6:	f8c4 90f0 	str.w	r9, [r4, #240]	@ 0xf0
    36aa:	f504 7094 	add.w	r0, r4, #296	@ 0x128
    36ae:	f8c4 60fc 	str.w	r6, [r4, #252]	@ 0xfc
    36b2:	f8c4 30ec 	str.w	r3, [r4, #236]	@ 0xec
    36b6:	e8bd 43f8 	ldmia.w	sp!, {r3, r4, r5, r6, r7, r8, r9, lr}
    36ba:	f000 b9b7 	b.w	3a2c <__retarget_lock_init_recursive>
    36be:	bf00      	nop
    36c0:	1ffd3124 	.word	0x1ffd3124
    36c4:	1ffd2fec 	.word	0x1ffd2fec
    36c8:	0000359d 	.word	0x0000359d
    36cc:	000037e1 	.word	0x000037e1
    36d0:	00003805 	.word	0x00003805
    36d4:	00010009 	.word	0x00010009
    36d8:	00020012 	.word	0x00020012
    36dc:	0000377d 	.word	0x0000377d
    36e0:	000037a1 	.word	0x000037a1

000036e4 <__sinit>:
    36e4:	b510      	push	{r4, lr}
    36e6:	4604      	mov	r4, r0
    36e8:	480a      	ldr	r0, [pc, #40]	@ (3714 <__sinit+0x30>)
    36ea:	f000 f9a3 	bl	3a34 <__retarget_lock_acquire_recursive>
    36ee:	6b63      	ldr	r3, [r4, #52]	@ 0x34
    36f0:	b923      	cbnz	r3, 36fc <__sinit+0x18>
    36f2:	4b09      	ldr	r3, [pc, #36]	@ (3718 <__sinit+0x34>)
    36f4:	4a09      	ldr	r2, [pc, #36]	@ (371c <__sinit+0x38>)
    36f6:	681b      	ldr	r3, [r3, #0]
    36f8:	6362      	str	r2, [r4, #52]	@ 0x34
    36fa:	b123      	cbz	r3, 3706 <__sinit+0x22>
    36fc:	e8bd 4010 	ldmia.w	sp!, {r4, lr}
    3700:	4804      	ldr	r0, [pc, #16]	@ (3714 <__sinit+0x30>)
    3702:	f000 b999 	b.w	3a38 <__retarget_lock_release_recursive>
    3706:	f7ff ff75 	bl	35f4 <global_stdio_init.part.0>
    370a:	e8bd 4010 	ldmia.w	sp!, {r4, lr}
    370e:	4801      	ldr	r0, [pc, #4]	@ (3714 <__sinit+0x30>)
    3710:	f000 b992 	b.w	3a38 <__retarget_lock_release_recursive>
    3714:	1ffd3134 	.word	0x1ffd3134
    3718:	1ffd3124 	.word	0x1ffd3124
    371c:	000035b5 	.word	0x000035b5

00003720 <__sfp_lock_acquire>:
    3720:	4801      	ldr	r0, [pc, #4]	@ (3728 <__sfp_lock_acquire+0x8>)
    3722:	f000 b987 	b.w	3a34 <__retarget_lock_acquire_recursive>
    3726:	bf00      	nop
    3728:	1ffd3134 	.word	0x1ffd3134

0000372c <__sfp_lock_release>:
    372c:	4801      	ldr	r0, [pc, #4]	@ (3734 <__sfp_lock_release+0x8>)
    372e:	f000 b983 	b.w	3a38 <__retarget_lock_release_recursive>
    3732:	bf00      	nop
    3734:	1ffd3134 	.word	0x1ffd3134

00003738 <_fwalk_sglue>:
    3738:	e92d 43f8 	stmdb	sp!, {r3, r4, r5, r6, r7, r8, r9, lr}
    373c:	4607      	mov	r7, r0
    373e:	4688      	mov	r8, r1
    3740:	4616      	mov	r6, r2
    3742:	f04f 0900 	mov.w	r9, #0
    3746:	e9d6 5401 	ldrd	r5, r4, [r6, #4]
    374a:	3d01      	subs	r5, #1
    374c:	d410      	bmi.n	3770 <_fwalk_sglue+0x38>
    374e:	89a3      	ldrh	r3, [r4, #12]
    3750:	2b01      	cmp	r3, #1
    3752:	d908      	bls.n	3766 <_fwalk_sglue+0x2e>
    3754:	f9b4 300e 	ldrsh.w	r3, [r4, #14]
    3758:	3301      	adds	r3, #1
    375a:	4621      	mov	r1, r4
    375c:	4638      	mov	r0, r7
    375e:	d002      	beq.n	3766 <_fwalk_sglue+0x2e>
    3760:	47c0      	blx	r8
    3762:	ea49 0900 	orr.w	r9, r9, r0
    3766:	3d01      	subs	r5, #1
    3768:	1c6b      	adds	r3, r5, #1
    376a:	f104 0468 	add.w	r4, r4, #104	@ 0x68
    376e:	d1ee      	bne.n	374e <_fwalk_sglue+0x16>
    3770:	6836      	ldr	r6, [r6, #0]
    3772:	2e00      	cmp	r6, #0
    3774:	d1e7      	bne.n	3746 <_fwalk_sglue+0xe>
    3776:	4648      	mov	r0, r9
    3778:	e8bd 83f8 	ldmia.w	sp!, {r3, r4, r5, r6, r7, r8, r9, pc}

0000377c <__sread>:
    377c:	b510      	push	{r4, lr}
    377e:	460c      	mov	r4, r1
    3780:	f9b1 100e 	ldrsh.w	r1, [r1, #14]
    3784:	f000 f8f8 	bl	3978 <_read_r>
    3788:	2800      	cmp	r0, #0
    378a:	db03      	blt.n	3794 <__sread+0x18>
    378c:	6d23      	ldr	r3, [r4, #80]	@ 0x50
    378e:	4403      	add	r3, r0
    3790:	6523      	str	r3, [r4, #80]	@ 0x50
    3792:	bd10      	pop	{r4, pc}
    3794:	89a3      	ldrh	r3, [r4, #12]
    3796:	f423 5380 	bic.w	r3, r3, #4096	@ 0x1000
    379a:	81a3      	strh	r3, [r4, #12]
    379c:	bd10      	pop	{r4, pc}
    379e:	bf00      	nop

000037a0 <__swrite>:
    37a0:	e92d 41f0 	stmdb	sp!, {r4, r5, r6, r7, r8, lr}
    37a4:	460c      	mov	r4, r1
    37a6:	f9b1 100c 	ldrsh.w	r1, [r1, #12]
    37aa:	461f      	mov	r7, r3
    37ac:	05cb      	lsls	r3, r1, #23
    37ae:	4605      	mov	r5, r0
    37b0:	4616      	mov	r6, r2
    37b2:	d40b      	bmi.n	37cc <__swrite+0x2c>
    37b4:	f421 5180 	bic.w	r1, r1, #4096	@ 0x1000
    37b8:	81a1      	strh	r1, [r4, #12]
    37ba:	463b      	mov	r3, r7
    37bc:	f9b4 100e 	ldrsh.w	r1, [r4, #14]
    37c0:	4632      	mov	r2, r6
    37c2:	4628      	mov	r0, r5
    37c4:	e8bd 41f0 	ldmia.w	sp!, {r4, r5, r6, r7, r8, lr}
    37c8:	f000 b8ec 	b.w	39a4 <_write_r>
    37cc:	f9b4 100e 	ldrsh.w	r1, [r4, #14]
    37d0:	2302      	movs	r3, #2
    37d2:	2200      	movs	r2, #0
    37d4:	f000 f8ba 	bl	394c <_lseek_r>
    37d8:	f9b4 100c 	ldrsh.w	r1, [r4, #12]
    37dc:	e7ea      	b.n	37b4 <__swrite+0x14>
    37de:	bf00      	nop

000037e0 <__sseek>:
    37e0:	b510      	push	{r4, lr}
    37e2:	460c      	mov	r4, r1
    37e4:	f9b1 100e 	ldrsh.w	r1, [r1, #14]
    37e8:	f000 f8b0 	bl	394c <_lseek_r>
    37ec:	f9b4 300c 	ldrsh.w	r3, [r4, #12]
    37f0:	1c42      	adds	r2, r0, #1
    37f2:	bf0e      	itee	eq
    37f4:	f423 5380 	biceq.w	r3, r3, #4096	@ 0x1000
    37f8:	f443 5380 	orrne.w	r3, r3, #4096	@ 0x1000
    37fc:	6520      	strne	r0, [r4, #80]	@ 0x50
    37fe:	81a3      	strh	r3, [r4, #12]
    3800:	bd10      	pop	{r4, pc}
    3802:	bf00      	nop

00003804 <__sclose>:
    3804:	f9b1 100e 	ldrsh.w	r1, [r1, #14]
    3808:	f000 b88e 	b.w	3928 <_close_r>

0000380c <vsnprintf>:
    380c:	b510      	push	{r4, lr}
    380e:	4c1c      	ldr	r4, [pc, #112]	@ (3880 <vsnprintf+0x74>)
    3810:	2900      	cmp	r1, #0
    3812:	6824      	ldr	r4, [r4, #0]
    3814:	b09a      	sub	sp, #104	@ 0x68
    3816:	db2d      	blt.n	3874 <vsnprintf+0x68>
    3818:	9000      	str	r0, [sp, #0]
    381a:	9004      	str	r0, [sp, #16]
    381c:	f44f 7002 	mov.w	r0, #520	@ 0x208
    3820:	f8ad 000c 	strh.w	r0, [sp, #12]
    3824:	f04f 0000 	mov.w	r0, #0
    3828:	9019      	str	r0, [sp, #100]	@ 0x64
    382a:	d013      	beq.n	3854 <vsnprintf+0x48>
    382c:	3901      	subs	r1, #1
    382e:	f64f 70ff 	movw	r0, #65535	@ 0xffff
    3832:	9102      	str	r1, [sp, #8]
    3834:	9105      	str	r1, [sp, #20]
    3836:	f8ad 000e 	strh.w	r0, [sp, #14]
    383a:	4669      	mov	r1, sp
    383c:	4620      	mov	r0, r4
    383e:	f000 fd83 	bl	4348 <_svfprintf_r>
    3842:	1c42      	adds	r2, r0, #1
    3844:	da01      	bge.n	384a <vsnprintf+0x3e>
    3846:	238b      	movs	r3, #139	@ 0x8b
    3848:	6023      	str	r3, [r4, #0]
    384a:	9b00      	ldr	r3, [sp, #0]
    384c:	2200      	movs	r2, #0
    384e:	701a      	strb	r2, [r3, #0]
    3850:	b01a      	add	sp, #104	@ 0x68
    3852:	bd10      	pop	{r4, pc}
    3854:	f64f 70ff 	movw	r0, #65535	@ 0xffff
    3858:	9102      	str	r1, [sp, #8]
    385a:	9105      	str	r1, [sp, #20]
    385c:	f8ad 000e 	strh.w	r0, [sp, #14]
    3860:	4669      	mov	r1, sp
    3862:	4620      	mov	r0, r4
    3864:	f000 fd70 	bl	4348 <_svfprintf_r>
    3868:	1c43      	adds	r3, r0, #1
    386a:	da01      	bge.n	3870 <vsnprintf+0x64>
    386c:	238b      	movs	r3, #139	@ 0x8b
    386e:	6023      	str	r3, [r4, #0]
    3870:	b01a      	add	sp, #104	@ 0x68
    3872:	bd10      	pop	{r4, pc}
    3874:	238b      	movs	r3, #139	@ 0x8b
    3876:	6023      	str	r3, [r4, #0]
    3878:	f04f 30ff 	mov.w	r0, #4294967295
    387c:	e7f8      	b.n	3870 <vsnprintf+0x64>
    387e:	bf00      	nop
    3880:	1ffd0088 	.word	0x1ffd0088

00003884 <memset>:
    3884:	0783      	lsls	r3, r0, #30
    3886:	b530      	push	{r4, r5, lr}
    3888:	d047      	beq.n	391a <memset+0x96>
    388a:	1e54      	subs	r4, r2, #1
    388c:	2a00      	cmp	r2, #0
    388e:	d03e      	beq.n	390e <memset+0x8a>
    3890:	b2ca      	uxtb	r2, r1
    3892:	4603      	mov	r3, r0
    3894:	e001      	b.n	389a <memset+0x16>
    3896:	3c01      	subs	r4, #1
    3898:	d339      	bcc.n	390e <memset+0x8a>
    389a:	f803 2b01 	strb.w	r2, [r3], #1
    389e:	079d      	lsls	r5, r3, #30
    38a0:	d1f9      	bne.n	3896 <memset+0x12>
    38a2:	2c03      	cmp	r4, #3
    38a4:	d92c      	bls.n	3900 <memset+0x7c>
    38a6:	b2cd      	uxtb	r5, r1
    38a8:	eb05 2505 	add.w	r5, r5, r5, lsl #8
    38ac:	2c0f      	cmp	r4, #15
    38ae:	eb05 4505 	add.w	r5, r5, r5, lsl #16
    38b2:	d935      	bls.n	3920 <memset+0x9c>
    38b4:	f1a4 0210 	sub.w	r2, r4, #16
    38b8:	f022 0c0f 	bic.w	ip, r2, #15
    38bc:	f103 0e10 	add.w	lr, r3, #16
    38c0:	44e6      	add	lr, ip
    38c2:	ea4f 1c12 	mov.w	ip, r2, lsr #4
    38c6:	461a      	mov	r2, r3
    38c8:	e9c2 5500 	strd	r5, r5, [r2]
    38cc:	e9c2 5502 	strd	r5, r5, [r2, #8]
    38d0:	3210      	adds	r2, #16
    38d2:	4572      	cmp	r2, lr
    38d4:	d1f8      	bne.n	38c8 <memset+0x44>
    38d6:	f10c 0201 	add.w	r2, ip, #1
    38da:	f014 0f0c 	tst.w	r4, #12
    38de:	eb03 1202 	add.w	r2, r3, r2, lsl #4
    38e2:	f004 0c0f 	and.w	ip, r4, #15
    38e6:	d013      	beq.n	3910 <memset+0x8c>
    38e8:	f1ac 0304 	sub.w	r3, ip, #4
    38ec:	f023 0303 	bic.w	r3, r3, #3
    38f0:	3304      	adds	r3, #4
    38f2:	4413      	add	r3, r2
    38f4:	f842 5b04 	str.w	r5, [r2], #4
    38f8:	4293      	cmp	r3, r2
    38fa:	d1fb      	bne.n	38f4 <memset+0x70>
    38fc:	f00c 0403 	and.w	r4, ip, #3
    3900:	b12c      	cbz	r4, 390e <memset+0x8a>
    3902:	b2c9      	uxtb	r1, r1
    3904:	441c      	add	r4, r3
    3906:	f803 1b01 	strb.w	r1, [r3], #1
    390a:	42a3      	cmp	r3, r4
    390c:	d1fb      	bne.n	3906 <memset+0x82>
    390e:	bd30      	pop	{r4, r5, pc}
    3910:	4664      	mov	r4, ip
    3912:	4613      	mov	r3, r2
    3914:	2c00      	cmp	r4, #0
    3916:	d1f4      	bne.n	3902 <memset+0x7e>
    3918:	e7f9      	b.n	390e <memset+0x8a>
    391a:	4603      	mov	r3, r0
    391c:	4614      	mov	r4, r2
    391e:	e7c0      	b.n	38a2 <memset+0x1e>
    3920:	461a      	mov	r2, r3
    3922:	46a4      	mov	ip, r4
    3924:	e7e0      	b.n	38e8 <memset+0x64>
    3926:	bf00      	nop

00003928 <_close_r>:
    3928:	b538      	push	{r3, r4, r5, lr}
    392a:	4d07      	ldr	r5, [pc, #28]	@ (3948 <_close_r+0x20>)
    392c:	2200      	movs	r2, #0
    392e:	4604      	mov	r4, r0
    3930:	4608      	mov	r0, r1
    3932:	602a      	str	r2, [r5, #0]
    3934:	f7fe fdce 	bl	24d4 <_close>
    3938:	1c43      	adds	r3, r0, #1
    393a:	d000      	beq.n	393e <_close_r+0x16>
    393c:	bd38      	pop	{r3, r4, r5, pc}
    393e:	682b      	ldr	r3, [r5, #0]
    3940:	2b00      	cmp	r3, #0
    3942:	d0fb      	beq.n	393c <_close_r+0x14>
    3944:	6023      	str	r3, [r4, #0]
    3946:	bd38      	pop	{r3, r4, r5, pc}
    3948:	1ffd3128 	.word	0x1ffd3128

0000394c <_lseek_r>:
    394c:	b538      	push	{r3, r4, r5, lr}
    394e:	460c      	mov	r4, r1
    3950:	4d08      	ldr	r5, [pc, #32]	@ (3974 <_lseek_r+0x28>)
    3952:	4684      	mov	ip, r0
    3954:	4611      	mov	r1, r2
    3956:	4620      	mov	r0, r4
    3958:	461a      	mov	r2, r3
    395a:	2300      	movs	r3, #0
    395c:	602b      	str	r3, [r5, #0]
    395e:	4664      	mov	r4, ip
    3960:	f7fe fdf7 	bl	2552 <_lseek>
    3964:	1c43      	adds	r3, r0, #1
    3966:	d000      	beq.n	396a <_lseek_r+0x1e>
    3968:	bd38      	pop	{r3, r4, r5, pc}
    396a:	682b      	ldr	r3, [r5, #0]
    396c:	2b00      	cmp	r3, #0
    396e:	d0fb      	beq.n	3968 <_lseek_r+0x1c>
    3970:	6023      	str	r3, [r4, #0]
    3972:	bd38      	pop	{r3, r4, r5, pc}
    3974:	1ffd3128 	.word	0x1ffd3128

00003978 <_read_r>:
    3978:	b538      	push	{r3, r4, r5, lr}
    397a:	460c      	mov	r4, r1
    397c:	4d08      	ldr	r5, [pc, #32]	@ (39a0 <_read_r+0x28>)
    397e:	4684      	mov	ip, r0
    3980:	4611      	mov	r1, r2
    3982:	4620      	mov	r0, r4
    3984:	461a      	mov	r2, r3
    3986:	2300      	movs	r3, #0
    3988:	602b      	str	r3, [r5, #0]
    398a:	4664      	mov	r4, ip
    398c:	f7fe fdef 	bl	256e <_read>
    3990:	1c43      	adds	r3, r0, #1
    3992:	d000      	beq.n	3996 <_read_r+0x1e>
    3994:	bd38      	pop	{r3, r4, r5, pc}
    3996:	682b      	ldr	r3, [r5, #0]
    3998:	2b00      	cmp	r3, #0
    399a:	d0fb      	beq.n	3994 <_read_r+0x1c>
    399c:	6023      	str	r3, [r4, #0]
    399e:	bd38      	pop	{r3, r4, r5, pc}
    39a0:	1ffd3128 	.word	0x1ffd3128

000039a4 <_write_r>:
    39a4:	b538      	push	{r3, r4, r5, lr}
    39a6:	460c      	mov	r4, r1
    39a8:	4d08      	ldr	r5, [pc, #32]	@ (39cc <_write_r+0x28>)
    39aa:	4684      	mov	ip, r0
    39ac:	4611      	mov	r1, r2
    39ae:	4620      	mov	r0, r4
    39b0:	461a      	mov	r2, r3
    39b2:	2300      	movs	r3, #0
    39b4:	602b      	str	r3, [r5, #0]
    39b6:	4664      	mov	r4, ip
    39b8:	f7fe fde7 	bl	258a <_write>
    39bc:	1c43      	adds	r3, r0, #1
    39be:	d000      	beq.n	39c2 <_write_r+0x1e>
    39c0:	bd38      	pop	{r3, r4, r5, pc}
    39c2:	682b      	ldr	r3, [r5, #0]
    39c4:	2b00      	cmp	r3, #0
    39c6:	d0fb      	beq.n	39c0 <_write_r+0x1c>
    39c8:	6023      	str	r3, [r4, #0]
    39ca:	bd38      	pop	{r3, r4, r5, pc}
    39cc:	1ffd3128 	.word	0x1ffd3128

000039d0 <__errno>:
    39d0:	4b01      	ldr	r3, [pc, #4]	@ (39d8 <__errno+0x8>)
    39d2:	6818      	ldr	r0, [r3, #0]
    39d4:	4770      	bx	lr
    39d6:	bf00      	nop
    39d8:	1ffd0088 	.word	0x1ffd0088

000039dc <__libc_init_array>:
    39dc:	b570      	push	{r4, r5, r6, lr}
    39de:	4b0f      	ldr	r3, [pc, #60]	@ (3a1c <__libc_init_array+0x40>)
    39e0:	4d0f      	ldr	r5, [pc, #60]	@ (3a20 <__libc_init_array+0x44>)
    39e2:	42ab      	cmp	r3, r5
    39e4:	eba3 0605 	sub.w	r6, r3, r5
    39e8:	d007      	beq.n	39fa <__libc_init_array+0x1e>
    39ea:	10b6      	asrs	r6, r6, #2
    39ec:	2400      	movs	r4, #0
    39ee:	f855 3b04 	ldr.w	r3, [r5], #4
    39f2:	3401      	adds	r4, #1
    39f4:	4798      	blx	r3
    39f6:	42a6      	cmp	r6, r4
    39f8:	d8f9      	bhi.n	39ee <__libc_init_array+0x12>
    39fa:	f006 fc33 	bl	a264 <_init>
    39fe:	4d09      	ldr	r5, [pc, #36]	@ (3a24 <__libc_init_array+0x48>)
    3a00:	4b09      	ldr	r3, [pc, #36]	@ (3a28 <__libc_init_array+0x4c>)
    3a02:	1b5e      	subs	r6, r3, r5
    3a04:	42ab      	cmp	r3, r5
    3a06:	ea4f 06a6 	mov.w	r6, r6, asr #2
    3a0a:	d006      	beq.n	3a1a <__libc_init_array+0x3e>
    3a0c:	2400      	movs	r4, #0
    3a0e:	f855 3b04 	ldr.w	r3, [r5], #4
    3a12:	3401      	adds	r4, #1
    3a14:	4798      	blx	r3
    3a16:	42a6      	cmp	r6, r4
    3a18:	d8f9      	bhi.n	3a0e <__libc_init_array+0x32>
    3a1a:	bd70      	pop	{r4, r5, r6, pc}
    3a1c:	1ffd0754 	.word	0x1ffd0754
    3a20:	1ffd0754 	.word	0x1ffd0754
    3a24:	1ffd0754 	.word	0x1ffd0754
    3a28:	1ffd0760 	.word	0x1ffd0760

00003a2c <__retarget_lock_init_recursive>:
    3a2c:	4770      	bx	lr
    3a2e:	bf00      	nop

00003a30 <__retarget_lock_close_recursive>:
    3a30:	4770      	bx	lr
    3a32:	bf00      	nop

00003a34 <__retarget_lock_acquire_recursive>:
    3a34:	4770      	bx	lr
    3a36:	bf00      	nop

00003a38 <__retarget_lock_release_recursive>:
    3a38:	4770      	bx	lr
    3a3a:	bf00      	nop

00003a3c <register_fini>:
    3a3c:	4b02      	ldr	r3, [pc, #8]	@ (3a48 <register_fini+0xc>)
    3a3e:	b113      	cbz	r3, 3a46 <register_fini+0xa>
    3a40:	4802      	ldr	r0, [pc, #8]	@ (3a4c <register_fini+0x10>)
    3a42:	f000 b865 	b.w	3b10 <atexit>
    3a46:	4770      	bx	lr
    3a48:	00000000 	.word	0x00000000
    3a4c:	000061c9 	.word	0x000061c9

00003a50 <__call_exitprocs>:
    3a50:	e92d 4ff0 	stmdb	sp!, {r4, r5, r6, r7, r8, r9, sl, fp, lr}
    3a54:	4b2c      	ldr	r3, [pc, #176]	@ (3b08 <__call_exitprocs+0xb8>)
    3a56:	4f2d      	ldr	r7, [pc, #180]	@ (3b0c <__call_exitprocs+0xbc>)
    3a58:	b083      	sub	sp, #12
    3a5a:	4682      	mov	sl, r0
    3a5c:	6818      	ldr	r0, [r3, #0]
    3a5e:	f8cd a004 	str.w	sl, [sp, #4]
    3a62:	468b      	mov	fp, r1
    3a64:	f7ff ffe6 	bl	3a34 <__retarget_lock_acquire_recursive>
    3a68:	683e      	ldr	r6, [r7, #0]
    3a6a:	b34e      	cbz	r6, 3ac0 <__call_exitprocs+0x70>
    3a6c:	f04f 0900 	mov.w	r9, #0
    3a70:	f04f 0801 	mov.w	r8, #1
    3a74:	6874      	ldr	r4, [r6, #4]
    3a76:	1e65      	subs	r5, r4, #1
    3a78:	d422      	bmi.n	3ac0 <__call_exitprocs+0x70>
    3a7a:	3401      	adds	r4, #1
    3a7c:	eb06 0484 	add.w	r4, r6, r4, lsl #2
    3a80:	f1bb 0f00 	cmp.w	fp, #0
    3a84:	d123      	bne.n	3ace <__call_exitprocs+0x7e>
    3a86:	6873      	ldr	r3, [r6, #4]
    3a88:	6822      	ldr	r2, [r4, #0]
    3a8a:	3b01      	subs	r3, #1
    3a8c:	42ab      	cmp	r3, r5
    3a8e:	bf0c      	ite	eq
    3a90:	6075      	streq	r5, [r6, #4]
    3a92:	f8c4 9000 	strne.w	r9, [r4]
    3a96:	b172      	cbz	r2, 3ab6 <__call_exitprocs+0x66>
    3a98:	f8d6 1188 	ldr.w	r1, [r6, #392]	@ 0x188
    3a9c:	f8d6 a004 	ldr.w	sl, [r6, #4]
    3aa0:	fa08 f305 	lsl.w	r3, r8, r5
    3aa4:	420b      	tst	r3, r1
    3aa6:	d11c      	bne.n	3ae2 <__call_exitprocs+0x92>
    3aa8:	4790      	blx	r2
    3aaa:	6873      	ldr	r3, [r6, #4]
    3aac:	683a      	ldr	r2, [r7, #0]
    3aae:	4553      	cmp	r3, sl
    3ab0:	d123      	bne.n	3afa <__call_exitprocs+0xaa>
    3ab2:	42b2      	cmp	r2, r6
    3ab4:	d121      	bne.n	3afa <__call_exitprocs+0xaa>
    3ab6:	3d01      	subs	r5, #1
    3ab8:	1c6b      	adds	r3, r5, #1
    3aba:	f1a4 0404 	sub.w	r4, r4, #4
    3abe:	d1df      	bne.n	3a80 <__call_exitprocs+0x30>
    3ac0:	4b11      	ldr	r3, [pc, #68]	@ (3b08 <__call_exitprocs+0xb8>)
    3ac2:	6818      	ldr	r0, [r3, #0]
    3ac4:	b003      	add	sp, #12
    3ac6:	e8bd 4ff0 	ldmia.w	sp!, {r4, r5, r6, r7, r8, r9, sl, fp, lr}
    3aca:	f7ff bfb5 	b.w	3a38 <__retarget_lock_release_recursive>
    3ace:	f8d4 3100 	ldr.w	r3, [r4, #256]	@ 0x100
    3ad2:	455b      	cmp	r3, fp
    3ad4:	d0d7      	beq.n	3a86 <__call_exitprocs+0x36>
    3ad6:	3d01      	subs	r5, #1
    3ad8:	1c6a      	adds	r2, r5, #1
    3ada:	f1a4 0404 	sub.w	r4, r4, #4
    3ade:	d1f6      	bne.n	3ace <__call_exitprocs+0x7e>
    3ae0:	e7ee      	b.n	3ac0 <__call_exitprocs+0x70>
    3ae2:	f8d6 018c 	ldr.w	r0, [r6, #396]	@ 0x18c
    3ae6:	f8d4 1080 	ldr.w	r1, [r4, #128]	@ 0x80
    3aea:	4203      	tst	r3, r0
    3aec:	d109      	bne.n	3b02 <__call_exitprocs+0xb2>
    3aee:	9801      	ldr	r0, [sp, #4]
    3af0:	4790      	blx	r2
    3af2:	6873      	ldr	r3, [r6, #4]
    3af4:	683a      	ldr	r2, [r7, #0]
    3af6:	4553      	cmp	r3, sl
    3af8:	d0db      	beq.n	3ab2 <__call_exitprocs+0x62>
    3afa:	2a00      	cmp	r2, #0
    3afc:	d0e0      	beq.n	3ac0 <__call_exitprocs+0x70>
    3afe:	4616      	mov	r6, r2
    3b00:	e7b8      	b.n	3a74 <__call_exitprocs+0x24>
    3b02:	4608      	mov	r0, r1
    3b04:	4790      	blx	r2
    3b06:	e7d0      	b.n	3aaa <__call_exitprocs+0x5a>
    3b08:	1ffd01d0 	.word	0x1ffd01d0
    3b0c:	1ffd3138 	.word	0x1ffd3138

00003b10 <atexit>:
    3b10:	2300      	movs	r3, #0
    3b12:	4601      	mov	r1, r0
    3b14:	461a      	mov	r2, r3
    3b16:	4618      	mov	r0, r3
    3b18:	f002 bc70 	b.w	63fc <__register_exitproc>

00003b1c <_malloc_trim_r>:
    3b1c:	e92d 43f8 	stmdb	sp!, {r3, r4, r5, r6, r7, r8, r9, lr}
    3b20:	4606      	mov	r6, r0
    3b22:	2008      	movs	r0, #8
    3b24:	4689      	mov	r9, r1
    3b26:	f002 fb63 	bl	61f0 <sysconf>
    3b2a:	f8df 80a4 	ldr.w	r8, [pc, #164]	@ 3bd0 <_malloc_trim_r+0xb4>
    3b2e:	4605      	mov	r5, r0
    3b30:	4630      	mov	r0, r6
    3b32:	f000 fbfd 	bl	4330 <__malloc_lock>
    3b36:	f8d8 3008 	ldr.w	r3, [r8, #8]
    3b3a:	685f      	ldr	r7, [r3, #4]
    3b3c:	f027 0703 	bic.w	r7, r7, #3
    3b40:	f1a7 0411 	sub.w	r4, r7, #17
    3b44:	eba4 0409 	sub.w	r4, r4, r9
    3b48:	442c      	add	r4, r5
    3b4a:	fbb4 f4f5 	udiv	r4, r4, r5
    3b4e:	3c01      	subs	r4, #1
    3b50:	fb05 f404 	mul.w	r4, r5, r4
    3b54:	42a5      	cmp	r5, r4
    3b56:	dc08      	bgt.n	3b6a <_malloc_trim_r+0x4e>
    3b58:	2100      	movs	r1, #0
    3b5a:	4630      	mov	r0, r6
    3b5c:	f002 fb22 	bl	61a4 <_sbrk_r>
    3b60:	f8d8 3008 	ldr.w	r3, [r8, #8]
    3b64:	443b      	add	r3, r7
    3b66:	4298      	cmp	r0, r3
    3b68:	d005      	beq.n	3b76 <_malloc_trim_r+0x5a>
    3b6a:	4630      	mov	r0, r6
    3b6c:	f000 fbe6 	bl	433c <__malloc_unlock>
    3b70:	2000      	movs	r0, #0
    3b72:	e8bd 83f8 	ldmia.w	sp!, {r3, r4, r5, r6, r7, r8, r9, pc}
    3b76:	4261      	negs	r1, r4
    3b78:	4630      	mov	r0, r6
    3b7a:	f002 fb13 	bl	61a4 <_sbrk_r>
    3b7e:	3001      	adds	r0, #1
    3b80:	d00f      	beq.n	3ba2 <_malloc_trim_r+0x86>
    3b82:	4a11      	ldr	r2, [pc, #68]	@ (3bc8 <_malloc_trim_r+0xac>)
    3b84:	f8d8 3008 	ldr.w	r3, [r8, #8]
    3b88:	1b3f      	subs	r7, r7, r4
    3b8a:	f047 0701 	orr.w	r7, r7, #1
    3b8e:	605f      	str	r7, [r3, #4]
    3b90:	6813      	ldr	r3, [r2, #0]
    3b92:	4630      	mov	r0, r6
    3b94:	1b1b      	subs	r3, r3, r4
    3b96:	6013      	str	r3, [r2, #0]
    3b98:	f000 fbd0 	bl	433c <__malloc_unlock>
    3b9c:	2001      	movs	r0, #1
    3b9e:	e8bd 83f8 	ldmia.w	sp!, {r3, r4, r5, r6, r7, r8, r9, pc}
    3ba2:	2100      	movs	r1, #0
    3ba4:	4630      	mov	r0, r6
    3ba6:	f002 fafd 	bl	61a4 <_sbrk_r>
    3baa:	f8d8 2008 	ldr.w	r2, [r8, #8]
    3bae:	1a83      	subs	r3, r0, r2
    3bb0:	2b0f      	cmp	r3, #15
    3bb2:	ddda      	ble.n	3b6a <_malloc_trim_r+0x4e>
    3bb4:	f043 0301 	orr.w	r3, r3, #1
    3bb8:	6053      	str	r3, [r2, #4]
    3bba:	4b04      	ldr	r3, [pc, #16]	@ (3bcc <_malloc_trim_r+0xb0>)
    3bbc:	4902      	ldr	r1, [pc, #8]	@ (3bc8 <_malloc_trim_r+0xac>)
    3bbe:	681b      	ldr	r3, [r3, #0]
    3bc0:	1ac0      	subs	r0, r0, r3
    3bc2:	6008      	str	r0, [r1, #0]
    3bc4:	e7d1      	b.n	3b6a <_malloc_trim_r+0x4e>
    3bc6:	bf00      	nop
    3bc8:	1ffd313c 	.word	0x1ffd313c
    3bcc:	1ffd01d4 	.word	0x1ffd01d4
    3bd0:	1ffd01e0 	.word	0x1ffd01e0

00003bd4 <_free_r>:
    3bd4:	2900      	cmp	r1, #0
    3bd6:	d07c      	beq.n	3cd2 <_free_r+0xfe>
    3bd8:	e92d 41f0 	stmdb	sp!, {r4, r5, r6, r7, r8, lr}
    3bdc:	460c      	mov	r4, r1
    3bde:	4680      	mov	r8, r0
    3be0:	f000 fba6 	bl	4330 <__malloc_lock>
    3be4:	f854 3c04 	ldr.w	r3, [r4, #-4]
    3be8:	4f75      	ldr	r7, [pc, #468]	@ (3dc0 <_free_r+0x1ec>)
    3bea:	f1a4 0508 	sub.w	r5, r4, #8
    3bee:	f023 0101 	bic.w	r1, r3, #1
    3bf2:	1868      	adds	r0, r5, r1
    3bf4:	68be      	ldr	r6, [r7, #8]
    3bf6:	6842      	ldr	r2, [r0, #4]
    3bf8:	4286      	cmp	r6, r0
    3bfa:	f022 0203 	bic.w	r2, r2, #3
    3bfe:	f000 8083 	beq.w	3d08 <_free_r+0x134>
    3c02:	07de      	lsls	r6, r3, #31
    3c04:	6042      	str	r2, [r0, #4]
    3c06:	eb00 0c02 	add.w	ip, r0, r2
    3c0a:	d433      	bmi.n	3c74 <_free_r+0xa0>
    3c0c:	f854 4c08 	ldr.w	r4, [r4, #-8]
    3c10:	f8dc 3004 	ldr.w	r3, [ip, #4]
    3c14:	1b2d      	subs	r5, r5, r4
    3c16:	4421      	add	r1, r4
    3c18:	68ac      	ldr	r4, [r5, #8]
    3c1a:	f107 0c08 	add.w	ip, r7, #8
    3c1e:	4564      	cmp	r4, ip
    3c20:	f003 0301 	and.w	r3, r3, #1
    3c24:	d064      	beq.n	3cf0 <_free_r+0x11c>
    3c26:	f8d5 e00c 	ldr.w	lr, [r5, #12]
    3c2a:	f8c4 e00c 	str.w	lr, [r4, #12]
    3c2e:	f8ce 4008 	str.w	r4, [lr, #8]
    3c32:	2b00      	cmp	r3, #0
    3c34:	f000 8081 	beq.w	3d3a <_free_r+0x166>
    3c38:	f041 0301 	orr.w	r3, r1, #1
    3c3c:	606b      	str	r3, [r5, #4]
    3c3e:	6001      	str	r1, [r0, #0]
    3c40:	f5b1 7f00 	cmp.w	r1, #512	@ 0x200
    3c44:	d222      	bcs.n	3c8c <_free_r+0xb8>
    3c46:	6878      	ldr	r0, [r7, #4]
    3c48:	08cb      	lsrs	r3, r1, #3
    3c4a:	2201      	movs	r2, #1
    3c4c:	0949      	lsrs	r1, r1, #5
    3c4e:	3301      	adds	r3, #1
    3c50:	408a      	lsls	r2, r1
    3c52:	4302      	orrs	r2, r0
    3c54:	f857 1033 	ldr.w	r1, [r7, r3, lsl #3]
    3c58:	607a      	str	r2, [r7, #4]
    3c5a:	eb07 02c3 	add.w	r2, r7, r3, lsl #3
    3c5e:	3a08      	subs	r2, #8
    3c60:	e9c5 1202 	strd	r1, r2, [r5, #8]
    3c64:	f847 5033 	str.w	r5, [r7, r3, lsl #3]
    3c68:	60cd      	str	r5, [r1, #12]
    3c6a:	4640      	mov	r0, r8
    3c6c:	e8bd 41f0 	ldmia.w	sp!, {r4, r5, r6, r7, r8, lr}
    3c70:	f000 bb64 	b.w	433c <__malloc_unlock>
    3c74:	f8dc 3004 	ldr.w	r3, [ip, #4]
    3c78:	07db      	lsls	r3, r3, #31
    3c7a:	d52b      	bpl.n	3cd4 <_free_r+0x100>
    3c7c:	f041 0301 	orr.w	r3, r1, #1
    3c80:	f5b1 7f00 	cmp.w	r1, #512	@ 0x200
    3c84:	f844 3c04 	str.w	r3, [r4, #-4]
    3c88:	6001      	str	r1, [r0, #0]
    3c8a:	d3dc      	bcc.n	3c46 <_free_r+0x72>
    3c8c:	f5b1 6f20 	cmp.w	r1, #2560	@ 0xa00
    3c90:	ea4f 2351 	mov.w	r3, r1, lsr #9
    3c94:	d253      	bcs.n	3d3e <_free_r+0x16a>
    3c96:	098b      	lsrs	r3, r1, #6
    3c98:	f103 0039 	add.w	r0, r3, #57	@ 0x39
    3c9c:	f103 0238 	add.w	r2, r3, #56	@ 0x38
    3ca0:	00c3      	lsls	r3, r0, #3
    3ca2:	18f8      	adds	r0, r7, r3
    3ca4:	58fb      	ldr	r3, [r7, r3]
    3ca6:	3808      	subs	r0, #8
    3ca8:	4298      	cmp	r0, r3
    3caa:	d103      	bne.n	3cb4 <_free_r+0xe0>
    3cac:	e061      	b.n	3d72 <_free_r+0x19e>
    3cae:	689b      	ldr	r3, [r3, #8]
    3cb0:	4298      	cmp	r0, r3
    3cb2:	d004      	beq.n	3cbe <_free_r+0xea>
    3cb4:	685a      	ldr	r2, [r3, #4]
    3cb6:	f022 0203 	bic.w	r2, r2, #3
    3cba:	428a      	cmp	r2, r1
    3cbc:	d8f7      	bhi.n	3cae <_free_r+0xda>
    3cbe:	68d8      	ldr	r0, [r3, #12]
    3cc0:	e9c5 3002 	strd	r3, r0, [r5, #8]
    3cc4:	6085      	str	r5, [r0, #8]
    3cc6:	60dd      	str	r5, [r3, #12]
    3cc8:	4640      	mov	r0, r8
    3cca:	e8bd 41f0 	ldmia.w	sp!, {r4, r5, r6, r7, r8, lr}
    3cce:	f000 bb35 	b.w	433c <__malloc_unlock>
    3cd2:	4770      	bx	lr
    3cd4:	4411      	add	r1, r2
    3cd6:	f107 0c08 	add.w	ip, r7, #8
    3cda:	6883      	ldr	r3, [r0, #8]
    3cdc:	4563      	cmp	r3, ip
    3cde:	d03f      	beq.n	3d60 <_free_r+0x18c>
    3ce0:	68c2      	ldr	r2, [r0, #12]
    3ce2:	60da      	str	r2, [r3, #12]
    3ce4:	6093      	str	r3, [r2, #8]
    3ce6:	f041 0301 	orr.w	r3, r1, #1
    3cea:	606b      	str	r3, [r5, #4]
    3cec:	5069      	str	r1, [r5, r1]
    3cee:	e7a7      	b.n	3c40 <_free_r+0x6c>
    3cf0:	2b00      	cmp	r3, #0
    3cf2:	d15f      	bne.n	3db4 <_free_r+0x1e0>
    3cf4:	440a      	add	r2, r1
    3cf6:	e9d0 1302 	ldrd	r1, r3, [r0, #8]
    3cfa:	60cb      	str	r3, [r1, #12]
    3cfc:	6099      	str	r1, [r3, #8]
    3cfe:	f042 0301 	orr.w	r3, r2, #1
    3d02:	606b      	str	r3, [r5, #4]
    3d04:	50aa      	str	r2, [r5, r2]
    3d06:	e7b0      	b.n	3c6a <_free_r+0x96>
    3d08:	07db      	lsls	r3, r3, #31
    3d0a:	440a      	add	r2, r1
    3d0c:	d407      	bmi.n	3d1e <_free_r+0x14a>
    3d0e:	f854 3c08 	ldr.w	r3, [r4, #-8]
    3d12:	1aed      	subs	r5, r5, r3
    3d14:	441a      	add	r2, r3
    3d16:	e9d5 1302 	ldrd	r1, r3, [r5, #8]
    3d1a:	60cb      	str	r3, [r1, #12]
    3d1c:	6099      	str	r1, [r3, #8]
    3d1e:	f042 0301 	orr.w	r3, r2, #1
    3d22:	606b      	str	r3, [r5, #4]
    3d24:	4b27      	ldr	r3, [pc, #156]	@ (3dc4 <_free_r+0x1f0>)
    3d26:	60bd      	str	r5, [r7, #8]
    3d28:	681b      	ldr	r3, [r3, #0]
    3d2a:	4293      	cmp	r3, r2
    3d2c:	d89d      	bhi.n	3c6a <_free_r+0x96>
    3d2e:	4b26      	ldr	r3, [pc, #152]	@ (3dc8 <_free_r+0x1f4>)
    3d30:	4640      	mov	r0, r8
    3d32:	6819      	ldr	r1, [r3, #0]
    3d34:	f7ff fef2 	bl	3b1c <_malloc_trim_r>
    3d38:	e797      	b.n	3c6a <_free_r+0x96>
    3d3a:	4411      	add	r1, r2
    3d3c:	e7cd      	b.n	3cda <_free_r+0x106>
    3d3e:	2b14      	cmp	r3, #20
    3d40:	d908      	bls.n	3d54 <_free_r+0x180>
    3d42:	2b54      	cmp	r3, #84	@ 0x54
    3d44:	d81d      	bhi.n	3d82 <_free_r+0x1ae>
    3d46:	0b0b      	lsrs	r3, r1, #12
    3d48:	f103 006f 	add.w	r0, r3, #111	@ 0x6f
    3d4c:	f103 026e 	add.w	r2, r3, #110	@ 0x6e
    3d50:	00c3      	lsls	r3, r0, #3
    3d52:	e7a6      	b.n	3ca2 <_free_r+0xce>
    3d54:	f103 005c 	add.w	r0, r3, #92	@ 0x5c
    3d58:	f103 025b 	add.w	r2, r3, #91	@ 0x5b
    3d5c:	00c3      	lsls	r3, r0, #3
    3d5e:	e7a0      	b.n	3ca2 <_free_r+0xce>
    3d60:	f041 0301 	orr.w	r3, r1, #1
    3d64:	e9c7 5504 	strd	r5, r5, [r7, #16]
    3d68:	e9c5 cc02 	strd	ip, ip, [r5, #8]
    3d6c:	606b      	str	r3, [r5, #4]
    3d6e:	5069      	str	r1, [r5, r1]
    3d70:	e77b      	b.n	3c6a <_free_r+0x96>
    3d72:	6879      	ldr	r1, [r7, #4]
    3d74:	1092      	asrs	r2, r2, #2
    3d76:	2401      	movs	r4, #1
    3d78:	fa04 f202 	lsl.w	r2, r4, r2
    3d7c:	430a      	orrs	r2, r1
    3d7e:	607a      	str	r2, [r7, #4]
    3d80:	e79e      	b.n	3cc0 <_free_r+0xec>
    3d82:	f5b3 7faa 	cmp.w	r3, #340	@ 0x154
    3d86:	d806      	bhi.n	3d96 <_free_r+0x1c2>
    3d88:	0bcb      	lsrs	r3, r1, #15
    3d8a:	f103 0078 	add.w	r0, r3, #120	@ 0x78
    3d8e:	f103 0277 	add.w	r2, r3, #119	@ 0x77
    3d92:	00c3      	lsls	r3, r0, #3
    3d94:	e785      	b.n	3ca2 <_free_r+0xce>
    3d96:	f240 5254 	movw	r2, #1364	@ 0x554
    3d9a:	4293      	cmp	r3, r2
    3d9c:	d806      	bhi.n	3dac <_free_r+0x1d8>
    3d9e:	0c8b      	lsrs	r3, r1, #18
    3da0:	f103 007d 	add.w	r0, r3, #125	@ 0x7d
    3da4:	f103 027c 	add.w	r2, r3, #124	@ 0x7c
    3da8:	00c3      	lsls	r3, r0, #3
    3daa:	e77a      	b.n	3ca2 <_free_r+0xce>
    3dac:	f44f 737e 	mov.w	r3, #1016	@ 0x3f8
    3db0:	227e      	movs	r2, #126	@ 0x7e
    3db2:	e776      	b.n	3ca2 <_free_r+0xce>
    3db4:	f041 0301 	orr.w	r3, r1, #1
    3db8:	606b      	str	r3, [r5, #4]
    3dba:	6001      	str	r1, [r0, #0]
    3dbc:	e755      	b.n	3c6a <_free_r+0x96>
    3dbe:	bf00      	nop
    3dc0:	1ffd01e0 	.word	0x1ffd01e0
    3dc4:	1ffd01d8 	.word	0x1ffd01d8
    3dc8:	1ffd316c 	.word	0x1ffd316c

00003dcc <_malloc_r>:
    3dcc:	e92d 4ff0 	stmdb	sp!, {r4, r5, r6, r7, r8, r9, sl, fp, lr}
    3dd0:	f101 050b 	add.w	r5, r1, #11
    3dd4:	2d16      	cmp	r5, #22
    3dd6:	b083      	sub	sp, #12
    3dd8:	4606      	mov	r6, r0
    3dda:	d823      	bhi.n	3e24 <_malloc_r+0x58>
    3ddc:	2910      	cmp	r1, #16
    3dde:	f200 80af 	bhi.w	3f40 <_malloc_r+0x174>
    3de2:	f000 faa5 	bl	4330 <__malloc_lock>
    3de6:	2510      	movs	r5, #16
    3de8:	2318      	movs	r3, #24
    3dea:	2002      	movs	r0, #2
    3dec:	4fb7      	ldr	r7, [pc, #732]	@ (40cc <_malloc_r+0x300>)
    3dee:	443b      	add	r3, r7
    3df0:	f1a3 0208 	sub.w	r2, r3, #8
    3df4:	685c      	ldr	r4, [r3, #4]
    3df6:	4294      	cmp	r4, r2
    3df8:	f000 811e 	beq.w	4038 <_malloc_r+0x26c>
    3dfc:	6863      	ldr	r3, [r4, #4]
    3dfe:	68e2      	ldr	r2, [r4, #12]
    3e00:	68a1      	ldr	r1, [r4, #8]
    3e02:	f023 0303 	bic.w	r3, r3, #3
    3e06:	60ca      	str	r2, [r1, #12]
    3e08:	4423      	add	r3, r4
    3e0a:	4630      	mov	r0, r6
    3e0c:	6091      	str	r1, [r2, #8]
    3e0e:	685a      	ldr	r2, [r3, #4]
    3e10:	f042 0201 	orr.w	r2, r2, #1
    3e14:	605a      	str	r2, [r3, #4]
    3e16:	f000 fa91 	bl	433c <__malloc_unlock>
    3e1a:	3408      	adds	r4, #8
    3e1c:	4620      	mov	r0, r4
    3e1e:	b003      	add	sp, #12
    3e20:	e8bd 8ff0 	ldmia.w	sp!, {r4, r5, r6, r7, r8, r9, sl, fp, pc}
    3e24:	f035 0507 	bics.w	r5, r5, #7
    3e28:	f100 808a 	bmi.w	3f40 <_malloc_r+0x174>
    3e2c:	42a9      	cmp	r1, r5
    3e2e:	f200 8087 	bhi.w	3f40 <_malloc_r+0x174>
    3e32:	f000 fa7d 	bl	4330 <__malloc_lock>
    3e36:	f5b5 7ffc 	cmp.w	r5, #504	@ 0x1f8
    3e3a:	f0c0 816e 	bcc.w	411a <_malloc_r+0x34e>
    3e3e:	0a6b      	lsrs	r3, r5, #9
    3e40:	f000 8082 	beq.w	3f48 <_malloc_r+0x17c>
    3e44:	2b04      	cmp	r3, #4
    3e46:	f200 811d 	bhi.w	4084 <_malloc_r+0x2b8>
    3e4a:	09ab      	lsrs	r3, r5, #6
    3e4c:	f103 0039 	add.w	r0, r3, #57	@ 0x39
    3e50:	f103 0e38 	add.w	lr, r3, #56	@ 0x38
    3e54:	00c3      	lsls	r3, r0, #3
    3e56:	4f9d      	ldr	r7, [pc, #628]	@ (40cc <_malloc_r+0x300>)
    3e58:	443b      	add	r3, r7
    3e5a:	f1a3 0c08 	sub.w	ip, r3, #8
    3e5e:	685c      	ldr	r4, [r3, #4]
    3e60:	45a4      	cmp	ip, r4
    3e62:	d107      	bne.n	3e74 <_malloc_r+0xa8>
    3e64:	e00d      	b.n	3e82 <_malloc_r+0xb6>
    3e66:	2a00      	cmp	r2, #0
    3e68:	68e1      	ldr	r1, [r4, #12]
    3e6a:	f280 80df 	bge.w	402c <_malloc_r+0x260>
    3e6e:	458c      	cmp	ip, r1
    3e70:	d007      	beq.n	3e82 <_malloc_r+0xb6>
    3e72:	460c      	mov	r4, r1
    3e74:	6863      	ldr	r3, [r4, #4]
    3e76:	f023 0303 	bic.w	r3, r3, #3
    3e7a:	1b5a      	subs	r2, r3, r5
    3e7c:	2a0f      	cmp	r2, #15
    3e7e:	ddf2      	ble.n	3e66 <_malloc_r+0x9a>
    3e80:	4670      	mov	r0, lr
    3e82:	f8df 8260 	ldr.w	r8, [pc, #608]	@ 40e4 <_malloc_r+0x318>
    3e86:	693c      	ldr	r4, [r7, #16]
    3e88:	4544      	cmp	r4, r8
    3e8a:	f000 80bc 	beq.w	4006 <_malloc_r+0x23a>
    3e8e:	6863      	ldr	r3, [r4, #4]
    3e90:	f023 0c03 	bic.w	ip, r3, #3
    3e94:	ebac 0305 	sub.w	r3, ip, r5
    3e98:	2b0f      	cmp	r3, #15
    3e9a:	f300 8142 	bgt.w	4122 <_malloc_r+0x356>
    3e9e:	2b00      	cmp	r3, #0
    3ea0:	e9c7 8804 	strd	r8, r8, [r7, #16]
    3ea4:	f280 812d 	bge.w	4102 <_malloc_r+0x336>
    3ea8:	f5bc 7f00 	cmp.w	ip, #512	@ 0x200
    3eac:	f8d7 e004 	ldr.w	lr, [r7, #4]
    3eb0:	f080 80c8 	bcs.w	4044 <_malloc_r+0x278>
    3eb4:	ea4f 01dc 	mov.w	r1, ip, lsr #3
    3eb8:	3101      	adds	r1, #1
    3eba:	ea4f 1c5c 	mov.w	ip, ip, lsr #5
    3ebe:	2301      	movs	r3, #1
    3ec0:	fa03 f30c 	lsl.w	r3, r3, ip
    3ec4:	f857 2031 	ldr.w	r2, [r7, r1, lsl #3]
    3ec8:	60a2      	str	r2, [r4, #8]
    3eca:	ea4e 0e03 	orr.w	lr, lr, r3
    3ece:	eb07 03c1 	add.w	r3, r7, r1, lsl #3
    3ed2:	3b08      	subs	r3, #8
    3ed4:	60e3      	str	r3, [r4, #12]
    3ed6:	f8c7 e004 	str.w	lr, [r7, #4]
    3eda:	f847 4031 	str.w	r4, [r7, r1, lsl #3]
    3ede:	60d4      	str	r4, [r2, #12]
    3ee0:	1083      	asrs	r3, r0, #2
    3ee2:	f04f 0c01 	mov.w	ip, #1
    3ee6:	fa0c fc03 	lsl.w	ip, ip, r3
    3eea:	45f4      	cmp	ip, lr
    3eec:	d832      	bhi.n	3f54 <_malloc_r+0x188>
    3eee:	ea1c 0f0e 	tst.w	ip, lr
    3ef2:	d108      	bne.n	3f06 <_malloc_r+0x13a>
    3ef4:	f020 0003 	bic.w	r0, r0, #3
    3ef8:	ea4f 0c4c 	mov.w	ip, ip, lsl #1
    3efc:	ea1c 0f0e 	tst.w	ip, lr
    3f00:	f100 0004 	add.w	r0, r0, #4
    3f04:	d0f8      	beq.n	3ef8 <_malloc_r+0x12c>
    3f06:	eb07 0ac0 	add.w	sl, r7, r0, lsl #3
    3f0a:	46d6      	mov	lr, sl
    3f0c:	4681      	mov	r9, r0
    3f0e:	f8de 300c 	ldr.w	r3, [lr, #12]
    3f12:	e00b      	b.n	3f2c <_malloc_r+0x160>
    3f14:	6859      	ldr	r1, [r3, #4]
    3f16:	f021 0103 	bic.w	r1, r1, #3
    3f1a:	1b4a      	subs	r2, r1, r5
    3f1c:	2a0f      	cmp	r2, #15
    3f1e:	461c      	mov	r4, r3
    3f20:	68db      	ldr	r3, [r3, #12]
    3f22:	f300 80bb 	bgt.w	409c <_malloc_r+0x2d0>
    3f26:	2a00      	cmp	r2, #0
    3f28:	f280 80de 	bge.w	40e8 <_malloc_r+0x31c>
    3f2c:	459e      	cmp	lr, r3
    3f2e:	d1f1      	bne.n	3f14 <_malloc_r+0x148>
    3f30:	f109 0901 	add.w	r9, r9, #1
    3f34:	f019 0f03 	tst.w	r9, #3
    3f38:	f10e 0e08 	add.w	lr, lr, #8
    3f3c:	d1e7      	bne.n	3f0e <_malloc_r+0x142>
    3f3e:	e119      	b.n	4174 <_malloc_r+0x3a8>
    3f40:	230c      	movs	r3, #12
    3f42:	6033      	str	r3, [r6, #0]
    3f44:	2400      	movs	r4, #0
    3f46:	e769      	b.n	3e1c <_malloc_r+0x50>
    3f48:	f44f 7300 	mov.w	r3, #512	@ 0x200
    3f4c:	2040      	movs	r0, #64	@ 0x40
    3f4e:	f04f 0e3f 	mov.w	lr, #63	@ 0x3f
    3f52:	e780      	b.n	3e56 <_malloc_r+0x8a>
    3f54:	68bc      	ldr	r4, [r7, #8]
    3f56:	6863      	ldr	r3, [r4, #4]
    3f58:	f023 0903 	bic.w	r9, r3, #3
    3f5c:	45a9      	cmp	r9, r5
    3f5e:	d303      	bcc.n	3f68 <_malloc_r+0x19c>
    3f60:	eba9 0305 	sub.w	r3, r9, r5
    3f64:	2b0f      	cmp	r3, #15
    3f66:	dc51      	bgt.n	400c <_malloc_r+0x240>
    3f68:	4b59      	ldr	r3, [pc, #356]	@ (40d0 <_malloc_r+0x304>)
    3f6a:	681b      	ldr	r3, [r3, #0]
    3f6c:	2008      	movs	r0, #8
    3f6e:	f103 0810 	add.w	r8, r3, #16
    3f72:	eb04 0309 	add.w	r3, r4, r9
    3f76:	9300      	str	r3, [sp, #0]
    3f78:	f002 f93a 	bl	61f0 <sysconf>
    3f7c:	4a55      	ldr	r2, [pc, #340]	@ (40d4 <_malloc_r+0x308>)
    3f7e:	6813      	ldr	r3, [r2, #0]
    3f80:	3301      	adds	r3, #1
    3f82:	44a8      	add	r8, r5
    3f84:	4683      	mov	fp, r0
    3f86:	d005      	beq.n	3f94 <_malloc_r+0x1c8>
    3f88:	f108 38ff 	add.w	r8, r8, #4294967295
    3f8c:	4480      	add	r8, r0
    3f8e:	4243      	negs	r3, r0
    3f90:	ea03 0808 	and.w	r8, r3, r8
    3f94:	4641      	mov	r1, r8
    3f96:	4630      	mov	r0, r6
    3f98:	f002 f904 	bl	61a4 <_sbrk_r>
    3f9c:	f1b0 3fff 	cmp.w	r0, #4294967295
    3fa0:	4a4c      	ldr	r2, [pc, #304]	@ (40d4 <_malloc_r+0x308>)
    3fa2:	4682      	mov	sl, r0
    3fa4:	f000 80d8 	beq.w	4158 <_malloc_r+0x38c>
    3fa8:	9b00      	ldr	r3, [sp, #0]
    3faa:	4283      	cmp	r3, r0
    3fac:	f200 80d2 	bhi.w	4154 <_malloc_r+0x388>
    3fb0:	4b49      	ldr	r3, [pc, #292]	@ (40d8 <_malloc_r+0x30c>)
    3fb2:	6818      	ldr	r0, [r3, #0]
    3fb4:	4440      	add	r0, r8
    3fb6:	f10b 31ff 	add.w	r1, fp, #4294967295
    3fba:	6018      	str	r0, [r3, #0]
    3fbc:	4684      	mov	ip, r0
    3fbe:	f040 80fc 	bne.w	41ba <_malloc_r+0x3ee>
    3fc2:	ea1a 0f01 	tst.w	sl, r1
    3fc6:	f040 80f8 	bne.w	41ba <_malloc_r+0x3ee>
    3fca:	f8d7 a008 	ldr.w	sl, [r7, #8]
    3fce:	44c8      	add	r8, r9
    3fd0:	f048 0201 	orr.w	r2, r8, #1
    3fd4:	f8ca 2004 	str.w	r2, [sl, #4]
    3fd8:	4b40      	ldr	r3, [pc, #256]	@ (40dc <_malloc_r+0x310>)
    3fda:	6819      	ldr	r1, [r3, #0]
    3fdc:	4281      	cmp	r1, r0
    3fde:	bf38      	it	cc
    3fe0:	6018      	strcc	r0, [r3, #0]
    3fe2:	4b3f      	ldr	r3, [pc, #252]	@ (40e0 <_malloc_r+0x314>)
    3fe4:	6819      	ldr	r1, [r3, #0]
    3fe6:	4281      	cmp	r1, r0
    3fe8:	bf38      	it	cc
    3fea:	6018      	strcc	r0, [r3, #0]
    3fec:	4654      	mov	r4, sl
    3fee:	f022 0803 	bic.w	r8, r2, #3
    3ff2:	45a8      	cmp	r8, r5
    3ff4:	eba8 0305 	sub.w	r3, r8, r5
    3ff8:	d301      	bcc.n	3ffe <_malloc_r+0x232>
    3ffa:	2b0f      	cmp	r3, #15
    3ffc:	dc06      	bgt.n	400c <_malloc_r+0x240>
    3ffe:	4630      	mov	r0, r6
    4000:	f000 f99c 	bl	433c <__malloc_unlock>
    4004:	e79e      	b.n	3f44 <_malloc_r+0x178>
    4006:	f8d7 e004 	ldr.w	lr, [r7, #4]
    400a:	e769      	b.n	3ee0 <_malloc_r+0x114>
    400c:	1962      	adds	r2, r4, r5
    400e:	f043 0301 	orr.w	r3, r3, #1
    4012:	f045 0501 	orr.w	r5, r5, #1
    4016:	6065      	str	r5, [r4, #4]
    4018:	4630      	mov	r0, r6
    401a:	60ba      	str	r2, [r7, #8]
    401c:	6053      	str	r3, [r2, #4]
    401e:	f000 f98d 	bl	433c <__malloc_unlock>
    4022:	3408      	adds	r4, #8
    4024:	4620      	mov	r0, r4
    4026:	b003      	add	sp, #12
    4028:	e8bd 8ff0 	ldmia.w	sp!, {r4, r5, r6, r7, r8, r9, sl, fp, pc}
    402c:	68a2      	ldr	r2, [r4, #8]
    402e:	4423      	add	r3, r4
    4030:	60d1      	str	r1, [r2, #12]
    4032:	4630      	mov	r0, r6
    4034:	608a      	str	r2, [r1, #8]
    4036:	e6ea      	b.n	3e0e <_malloc_r+0x42>
    4038:	68dc      	ldr	r4, [r3, #12]
    403a:	42a3      	cmp	r3, r4
    403c:	f47f aede 	bne.w	3dfc <_malloc_r+0x30>
    4040:	3002      	adds	r0, #2
    4042:	e71e      	b.n	3e82 <_malloc_r+0xb6>
    4044:	f5bc 6f20 	cmp.w	ip, #2560	@ 0xa00
    4048:	ea4f 225c 	mov.w	r2, ip, lsr #9
    404c:	d37b      	bcc.n	4146 <_malloc_r+0x37a>
    404e:	2a14      	cmp	r2, #20
    4050:	f200 8112 	bhi.w	4278 <_malloc_r+0x4ac>
    4054:	f102 035c 	add.w	r3, r2, #92	@ 0x5c
    4058:	00db      	lsls	r3, r3, #3
    405a:	325b      	adds	r2, #91	@ 0x5b
    405c:	18f9      	adds	r1, r7, r3
    405e:	58fb      	ldr	r3, [r7, r3]
    4060:	3908      	subs	r1, #8
    4062:	4299      	cmp	r1, r3
    4064:	d103      	bne.n	406e <_malloc_r+0x2a2>
    4066:	e0ec      	b.n	4242 <_malloc_r+0x476>
    4068:	689b      	ldr	r3, [r3, #8]
    406a:	4299      	cmp	r1, r3
    406c:	d004      	beq.n	4078 <_malloc_r+0x2ac>
    406e:	685a      	ldr	r2, [r3, #4]
    4070:	f022 0203 	bic.w	r2, r2, #3
    4074:	4562      	cmp	r2, ip
    4076:	d8f7      	bhi.n	4068 <_malloc_r+0x29c>
    4078:	68d9      	ldr	r1, [r3, #12]
    407a:	e9c4 3102 	strd	r3, r1, [r4, #8]
    407e:	608c      	str	r4, [r1, #8]
    4080:	60dc      	str	r4, [r3, #12]
    4082:	e72d      	b.n	3ee0 <_malloc_r+0x114>
    4084:	2b14      	cmp	r3, #20
    4086:	d96a      	bls.n	415e <_malloc_r+0x392>
    4088:	2b54      	cmp	r3, #84	@ 0x54
    408a:	f200 80fe 	bhi.w	428a <_malloc_r+0x4be>
    408e:	0b2b      	lsrs	r3, r5, #12
    4090:	f103 006f 	add.w	r0, r3, #111	@ 0x6f
    4094:	f103 0e6e 	add.w	lr, r3, #110	@ 0x6e
    4098:	00c3      	lsls	r3, r0, #3
    409a:	e6dc      	b.n	3e56 <_malloc_r+0x8a>
    409c:	f8d4 c008 	ldr.w	ip, [r4, #8]
    40a0:	4630      	mov	r0, r6
    40a2:	1966      	adds	r6, r4, r5
    40a4:	f045 0501 	orr.w	r5, r5, #1
    40a8:	6065      	str	r5, [r4, #4]
    40aa:	f8cc 300c 	str.w	r3, [ip, #12]
    40ae:	f8c3 c008 	str.w	ip, [r3, #8]
    40b2:	f042 0301 	orr.w	r3, r2, #1
    40b6:	e9c7 6604 	strd	r6, r6, [r7, #16]
    40ba:	e9c6 8802 	strd	r8, r8, [r6, #8]
    40be:	6073      	str	r3, [r6, #4]
    40c0:	5062      	str	r2, [r4, r1]
    40c2:	f000 f93b 	bl	433c <__malloc_unlock>
    40c6:	3408      	adds	r4, #8
    40c8:	e6a8      	b.n	3e1c <_malloc_r+0x50>
    40ca:	bf00      	nop
    40cc:	1ffd01e0 	.word	0x1ffd01e0
    40d0:	1ffd316c 	.word	0x1ffd316c
    40d4:	1ffd01d4 	.word	0x1ffd01d4
    40d8:	1ffd313c 	.word	0x1ffd313c
    40dc:	1ffd3168 	.word	0x1ffd3168
    40e0:	1ffd3164 	.word	0x1ffd3164
    40e4:	1ffd01e8 	.word	0x1ffd01e8
    40e8:	4421      	add	r1, r4
    40ea:	4630      	mov	r0, r6
    40ec:	684a      	ldr	r2, [r1, #4]
    40ee:	f042 0201 	orr.w	r2, r2, #1
    40f2:	604a      	str	r2, [r1, #4]
    40f4:	f854 2f08 	ldr.w	r2, [r4, #8]!
    40f8:	60d3      	str	r3, [r2, #12]
    40fa:	609a      	str	r2, [r3, #8]
    40fc:	f000 f91e 	bl	433c <__malloc_unlock>
    4100:	e68c      	b.n	3e1c <_malloc_r+0x50>
    4102:	44a4      	add	ip, r4
    4104:	4630      	mov	r0, r6
    4106:	f8dc 3004 	ldr.w	r3, [ip, #4]
    410a:	f043 0301 	orr.w	r3, r3, #1
    410e:	f8cc 3004 	str.w	r3, [ip, #4]
    4112:	f000 f913 	bl	433c <__malloc_unlock>
    4116:	3408      	adds	r4, #8
    4118:	e680      	b.n	3e1c <_malloc_r+0x50>
    411a:	08e8      	lsrs	r0, r5, #3
    411c:	f105 0308 	add.w	r3, r5, #8
    4120:	e664      	b.n	3dec <_malloc_r+0x20>
    4122:	1962      	adds	r2, r4, r5
    4124:	f043 0101 	orr.w	r1, r3, #1
    4128:	f045 0501 	orr.w	r5, r5, #1
    412c:	6065      	str	r5, [r4, #4]
    412e:	4630      	mov	r0, r6
    4130:	e9c7 2204 	strd	r2, r2, [r7, #16]
    4134:	e9c2 8802 	strd	r8, r8, [r2, #8]
    4138:	6051      	str	r1, [r2, #4]
    413a:	f844 300c 	str.w	r3, [r4, ip]
    413e:	f000 f8fd 	bl	433c <__malloc_unlock>
    4142:	3408      	adds	r4, #8
    4144:	e66a      	b.n	3e1c <_malloc_r+0x50>
    4146:	ea4f 129c 	mov.w	r2, ip, lsr #6
    414a:	f102 0339 	add.w	r3, r2, #57	@ 0x39
    414e:	00db      	lsls	r3, r3, #3
    4150:	3238      	adds	r2, #56	@ 0x38
    4152:	e783      	b.n	405c <_malloc_r+0x290>
    4154:	42bc      	cmp	r4, r7
    4156:	d028      	beq.n	41aa <_malloc_r+0x3de>
    4158:	68bc      	ldr	r4, [r7, #8]
    415a:	6862      	ldr	r2, [r4, #4]
    415c:	e747      	b.n	3fee <_malloc_r+0x222>
    415e:	f103 005c 	add.w	r0, r3, #92	@ 0x5c
    4162:	f103 0e5b 	add.w	lr, r3, #91	@ 0x5b
    4166:	00c3      	lsls	r3, r0, #3
    4168:	e675      	b.n	3e56 <_malloc_r+0x8a>
    416a:	f85a 3908 	ldr.w	r3, [sl], #-8
    416e:	4553      	cmp	r3, sl
    4170:	f040 80d9 	bne.w	4326 <_malloc_r+0x55a>
    4174:	f010 0f03 	tst.w	r0, #3
    4178:	f100 30ff 	add.w	r0, r0, #4294967295
    417c:	d1f5      	bne.n	416a <_malloc_r+0x39e>
    417e:	687b      	ldr	r3, [r7, #4]
    4180:	ea23 030c 	bic.w	r3, r3, ip
    4184:	607b      	str	r3, [r7, #4]
    4186:	ea4f 0c4c 	mov.w	ip, ip, lsl #1
    418a:	459c      	cmp	ip, r3
    418c:	f63f aee2 	bhi.w	3f54 <_malloc_r+0x188>
    4190:	f1bc 0f00 	cmp.w	ip, #0
    4194:	d104      	bne.n	41a0 <_malloc_r+0x3d4>
    4196:	e6dd      	b.n	3f54 <_malloc_r+0x188>
    4198:	ea4f 0c4c 	mov.w	ip, ip, lsl #1
    419c:	f109 0904 	add.w	r9, r9, #4
    41a0:	ea1c 0f03 	tst.w	ip, r3
    41a4:	d0f8      	beq.n	4198 <_malloc_r+0x3cc>
    41a6:	4648      	mov	r0, r9
    41a8:	e6ad      	b.n	3f06 <_malloc_r+0x13a>
    41aa:	4b60      	ldr	r3, [pc, #384]	@ (432c <_malloc_r+0x560>)
    41ac:	6818      	ldr	r0, [r3, #0]
    41ae:	eb08 0c00 	add.w	ip, r8, r0
    41b2:	f10b 31ff 	add.w	r1, fp, #4294967295
    41b6:	f8c3 c000 	str.w	ip, [r3]
    41ba:	6810      	ldr	r0, [r2, #0]
    41bc:	3001      	adds	r0, #1
    41be:	d06e      	beq.n	429e <_malloc_r+0x4d2>
    41c0:	9a00      	ldr	r2, [sp, #0]
    41c2:	ebaa 0202 	sub.w	r2, sl, r2
    41c6:	4462      	add	r2, ip
    41c8:	601a      	str	r2, [r3, #0]
    41ca:	f01a 0207 	ands.w	r2, sl, #7
    41ce:	e9cd 2300 	strd	r2, r3, [sp]
    41d2:	d040      	beq.n	4256 <_malloc_r+0x48a>
    41d4:	f1c2 0208 	rsb	r2, r2, #8
    41d8:	4492      	add	sl, r2
    41da:	44d0      	add	r8, sl
    41dc:	ea08 0001 	and.w	r0, r8, r1
    41e0:	445a      	add	r2, fp
    41e2:	1a12      	subs	r2, r2, r0
    41e4:	ea02 0b01 	and.w	fp, r2, r1
    41e8:	4659      	mov	r1, fp
    41ea:	4630      	mov	r0, r6
    41ec:	f001 ffda 	bl	61a4 <_sbrk_r>
    41f0:	1c42      	adds	r2, r0, #1
    41f2:	9b01      	ldr	r3, [sp, #4]
    41f4:	d06f      	beq.n	42d6 <_malloc_r+0x50a>
    41f6:	eba0 000a 	sub.w	r0, r0, sl
    41fa:	eb00 080b 	add.w	r8, r0, fp
    41fe:	6818      	ldr	r0, [r3, #0]
    4200:	f8c7 a008 	str.w	sl, [r7, #8]
    4204:	f048 0201 	orr.w	r2, r8, #1
    4208:	4458      	add	r0, fp
    420a:	42bc      	cmp	r4, r7
    420c:	f8ca 2004 	str.w	r2, [sl, #4]
    4210:	6018      	str	r0, [r3, #0]
    4212:	f43f aee1 	beq.w	3fd8 <_malloc_r+0x20c>
    4216:	f1b9 0f0f 	cmp.w	r9, #15
    421a:	d943      	bls.n	42a4 <_malloc_r+0x4d8>
    421c:	6861      	ldr	r1, [r4, #4]
    421e:	f1a9 020c 	sub.w	r2, r9, #12
    4222:	f022 0207 	bic.w	r2, r2, #7
    4226:	f001 0101 	and.w	r1, r1, #1
    422a:	4311      	orrs	r1, r2
    422c:	6061      	str	r1, [r4, #4]
    422e:	f04f 0c05 	mov.w	ip, #5
    4232:	18a1      	adds	r1, r4, r2
    4234:	2a0f      	cmp	r2, #15
    4236:	e9c1 cc01 	strd	ip, ip, [r1, #4]
    423a:	d854      	bhi.n	42e6 <_malloc_r+0x51a>
    423c:	f8da 2004 	ldr.w	r2, [sl, #4]
    4240:	e6ca      	b.n	3fd8 <_malloc_r+0x20c>
    4242:	1092      	asrs	r2, r2, #2
    4244:	f04f 0c01 	mov.w	ip, #1
    4248:	fa0c f202 	lsl.w	r2, ip, r2
    424c:	ea4e 0e02 	orr.w	lr, lr, r2
    4250:	f8c7 e004 	str.w	lr, [r7, #4]
    4254:	e711      	b.n	407a <_malloc_r+0x2ae>
    4256:	eb0a 0208 	add.w	r2, sl, r8
    425a:	400a      	ands	r2, r1
    425c:	ebab 0202 	sub.w	r2, fp, r2
    4260:	ea02 0b01 	and.w	fp, r2, r1
    4264:	4659      	mov	r1, fp
    4266:	4630      	mov	r0, r6
    4268:	f001 ff9c 	bl	61a4 <_sbrk_r>
    426c:	1c43      	adds	r3, r0, #1
    426e:	9b01      	ldr	r3, [sp, #4]
    4270:	d1c1      	bne.n	41f6 <_malloc_r+0x42a>
    4272:	f8dd b000 	ldr.w	fp, [sp]
    4276:	e7c2      	b.n	41fe <_malloc_r+0x432>
    4278:	2a54      	cmp	r2, #84	@ 0x54
    427a:	d817      	bhi.n	42ac <_malloc_r+0x4e0>
    427c:	ea4f 321c 	mov.w	r2, ip, lsr #12
    4280:	f102 036f 	add.w	r3, r2, #111	@ 0x6f
    4284:	00db      	lsls	r3, r3, #3
    4286:	326e      	adds	r2, #110	@ 0x6e
    4288:	e6e8      	b.n	405c <_malloc_r+0x290>
    428a:	f5b3 7faa 	cmp.w	r3, #340	@ 0x154
    428e:	d817      	bhi.n	42c0 <_malloc_r+0x4f4>
    4290:	0beb      	lsrs	r3, r5, #15
    4292:	f103 0078 	add.w	r0, r3, #120	@ 0x78
    4296:	f103 0e77 	add.w	lr, r3, #119	@ 0x77
    429a:	00c3      	lsls	r3, r0, #3
    429c:	e5db      	b.n	3e56 <_malloc_r+0x8a>
    429e:	f8c2 a000 	str.w	sl, [r2]
    42a2:	e792      	b.n	41ca <_malloc_r+0x3fe>
    42a4:	2301      	movs	r3, #1
    42a6:	f8ca 3004 	str.w	r3, [sl, #4]
    42aa:	e6a8      	b.n	3ffe <_malloc_r+0x232>
    42ac:	f5b2 7faa 	cmp.w	r2, #340	@ 0x154
    42b0:	d824      	bhi.n	42fc <_malloc_r+0x530>
    42b2:	ea4f 32dc 	mov.w	r2, ip, lsr #15
    42b6:	f102 0378 	add.w	r3, r2, #120	@ 0x78
    42ba:	00db      	lsls	r3, r3, #3
    42bc:	3277      	adds	r2, #119	@ 0x77
    42be:	e6cd      	b.n	405c <_malloc_r+0x290>
    42c0:	f240 5254 	movw	r2, #1364	@ 0x554
    42c4:	4293      	cmp	r3, r2
    42c6:	d824      	bhi.n	4312 <_malloc_r+0x546>
    42c8:	0cab      	lsrs	r3, r5, #18
    42ca:	f103 007d 	add.w	r0, r3, #125	@ 0x7d
    42ce:	f103 0e7c 	add.w	lr, r3, #124	@ 0x7c
    42d2:	00c3      	lsls	r3, r0, #3
    42d4:	e5bf      	b.n	3e56 <_malloc_r+0x8a>
    42d6:	9a00      	ldr	r2, [sp, #0]
    42d8:	3a08      	subs	r2, #8
    42da:	4490      	add	r8, r2
    42dc:	eba8 080a 	sub.w	r8, r8, sl
    42e0:	f04f 0b00 	mov.w	fp, #0
    42e4:	e78b      	b.n	41fe <_malloc_r+0x432>
    42e6:	4630      	mov	r0, r6
    42e8:	f104 0108 	add.w	r1, r4, #8
    42ec:	9300      	str	r3, [sp, #0]
    42ee:	f7ff fc71 	bl	3bd4 <_free_r>
    42f2:	9b00      	ldr	r3, [sp, #0]
    42f4:	f8d7 a008 	ldr.w	sl, [r7, #8]
    42f8:	6818      	ldr	r0, [r3, #0]
    42fa:	e79f      	b.n	423c <_malloc_r+0x470>
    42fc:	f240 5354 	movw	r3, #1364	@ 0x554
    4300:	429a      	cmp	r2, r3
    4302:	d80c      	bhi.n	431e <_malloc_r+0x552>
    4304:	ea4f 429c 	mov.w	r2, ip, lsr #18
    4308:	f102 037d 	add.w	r3, r2, #125	@ 0x7d
    430c:	00db      	lsls	r3, r3, #3
    430e:	327c      	adds	r2, #124	@ 0x7c
    4310:	e6a4      	b.n	405c <_malloc_r+0x290>
    4312:	f44f 737e 	mov.w	r3, #1016	@ 0x3f8
    4316:	207f      	movs	r0, #127	@ 0x7f
    4318:	f04f 0e7e 	mov.w	lr, #126	@ 0x7e
    431c:	e59b      	b.n	3e56 <_malloc_r+0x8a>
    431e:	f44f 737e 	mov.w	r3, #1016	@ 0x3f8
    4322:	227e      	movs	r2, #126	@ 0x7e
    4324:	e69a      	b.n	405c <_malloc_r+0x290>
    4326:	687b      	ldr	r3, [r7, #4]
    4328:	e72d      	b.n	4186 <_malloc_r+0x3ba>
    432a:	bf00      	nop
    432c:	1ffd313c 	.word	0x1ffd313c

00004330 <__malloc_lock>:
    4330:	4801      	ldr	r0, [pc, #4]	@ (4338 <__malloc_lock+0x8>)
    4332:	f7ff bb7f 	b.w	3a34 <__retarget_lock_acquire_recursive>
    4336:	bf00      	nop
    4338:	1ffd312c 	.word	0x1ffd312c

0000433c <__malloc_unlock>:
    433c:	4801      	ldr	r0, [pc, #4]	@ (4344 <__malloc_unlock+0x8>)
    433e:	f7ff bb7b 	b.w	3a38 <__retarget_lock_release_recursive>
    4342:	bf00      	nop
    4344:	1ffd312c 	.word	0x1ffd312c

00004348 <_svfprintf_r>:
    4348:	e92d 4ff0 	stmdb	sp!, {r4, r5, r6, r7, r8, r9, sl, fp, lr}
    434c:	b0d9      	sub	sp, #356	@ 0x164
    434e:	460c      	mov	r4, r1
    4350:	9109      	str	r1, [sp, #36]	@ 0x24
    4352:	4615      	mov	r5, r2
    4354:	930b      	str	r3, [sp, #44]	@ 0x2c
    4356:	4683      	mov	fp, r0
    4358:	f001 ff20 	bl	619c <_localeconv_r>
    435c:	6803      	ldr	r3, [r0, #0]
    435e:	9316      	str	r3, [sp, #88]	@ 0x58
    4360:	4618      	mov	r0, r3
    4362:	f001 ffad 	bl	62c0 <strlen>
    4366:	2100      	movs	r1, #0
    4368:	9014      	str	r0, [sp, #80]	@ 0x50
    436a:	2208      	movs	r2, #8
    436c:	a828      	add	r0, sp, #160	@ 0xa0
    436e:	f7ff fa89 	bl	3884 <memset>
    4372:	89a3      	ldrh	r3, [r4, #12]
    4374:	0619      	lsls	r1, r3, #24
    4376:	d503      	bpl.n	4380 <_svfprintf_r+0x38>
    4378:	6923      	ldr	r3, [r4, #16]
    437a:	2b00      	cmp	r3, #0
    437c:	f000 875e 	beq.w	523c <_svfprintf_r+0xef4>
    4380:	ed9f 7b7f 	vldr	d7, [pc, #508]	@ 4580 <_svfprintf_r+0x238>
    4384:	2300      	movs	r3, #0
    4386:	e9cd 332d 	strd	r3, r3, [sp, #180]	@ 0xb4
    438a:	e9cd 3317 	strd	r3, r3, [sp, #92]	@ 0x5c
    438e:	ed8d 7b10 	vstr	d7, [sp, #64]	@ 0x40
    4392:	aa2f      	add	r2, sp, #188	@ 0xbc
    4394:	930e      	str	r3, [sp, #56]	@ 0x38
    4396:	922c      	str	r2, [sp, #176]	@ 0xb0
    4398:	4614      	mov	r4, r2
    439a:	9315      	str	r3, [sp, #84]	@ 0x54
    439c:	931c      	str	r3, [sp, #112]	@ 0x70
    439e:	9319      	str	r3, [sp, #100]	@ 0x64
    43a0:	9306      	str	r3, [sp, #24]
    43a2:	462e      	mov	r6, r5
    43a4:	46b2      	mov	sl, r6
    43a6:	4b78      	ldr	r3, [pc, #480]	@ (4588 <_svfprintf_r+0x240>)
    43a8:	f8d3 50e4 	ldr.w	r5, [r3, #228]	@ 0xe4
    43ac:	f001 fef0 	bl	6190 <__locale_mb_cur_max>
    43b0:	aa28      	add	r2, sp, #160	@ 0xa0
    43b2:	4603      	mov	r3, r0
    43b4:	9200      	str	r2, [sp, #0]
    43b6:	a924      	add	r1, sp, #144	@ 0x90
    43b8:	4652      	mov	r2, sl
    43ba:	4658      	mov	r0, fp
    43bc:	47a8      	blx	r5
    43be:	2800      	cmp	r0, #0
    43c0:	f000 80b1 	beq.w	4526 <_svfprintf_r+0x1de>
    43c4:	f2c0 80a7 	blt.w	4516 <_svfprintf_r+0x1ce>
    43c8:	9a24      	ldr	r2, [sp, #144]	@ 0x90
    43ca:	2a25      	cmp	r2, #37	@ 0x25
    43cc:	4603      	mov	r3, r0
    43ce:	d001      	beq.n	43d4 <_svfprintf_r+0x8c>
    43d0:	449a      	add	sl, r3
    43d2:	e7e8      	b.n	43a6 <_svfprintf_r+0x5e>
    43d4:	ebba 0706 	subs.w	r7, sl, r6
    43d8:	4605      	mov	r5, r0
    43da:	f040 80a8 	bne.w	452e <_svfprintf_r+0x1e6>
    43de:	2300      	movs	r3, #0
    43e0:	4619      	mov	r1, r3
    43e2:	f04f 32ff 	mov.w	r2, #4294967295
    43e6:	f88d 3087 	strb.w	r3, [sp, #135]	@ 0x87
    43ea:	9307      	str	r3, [sp, #28]
    43ec:	f10a 0a01 	add.w	sl, sl, #1
    43f0:	f89a 3000 	ldrb.w	r3, [sl]
    43f4:	9205      	str	r2, [sp, #20]
    43f6:	9104      	str	r1, [sp, #16]
    43f8:	f10a 0a01 	add.w	sl, sl, #1
    43fc:	f1a3 0220 	sub.w	r2, r3, #32
    4400:	2a5a      	cmp	r2, #90	@ 0x5a
    4402:	f200 80c3 	bhi.w	458c <_svfprintf_r+0x244>
    4406:	e8df f012 	tbh	[pc, r2, lsl #1]
    440a:	02f4      	.short	0x02f4
    440c:	00c100c1 	.word	0x00c100c1
    4410:	00c102ed 	.word	0x00c102ed
    4414:	00c100c1 	.word	0x00c100c1
    4418:	00c1006a 	.word	0x00c1006a
    441c:	023f00c1 	.word	0x023f00c1
    4420:	00c10251 	.word	0x00c10251
    4424:	0306024a 	.word	0x0306024a
    4428:	02ff00c1 	.word	0x02ff00c1
    442c:	005b005b 	.word	0x005b005b
    4430:	005b005b 	.word	0x005b005b
    4434:	005b005b 	.word	0x005b005b
    4438:	005b005b 	.word	0x005b005b
    443c:	00c1005b 	.word	0x00c1005b
    4440:	00c100c1 	.word	0x00c100c1
    4444:	00c100c1 	.word	0x00c100c1
    4448:	00c100c1 	.word	0x00c100c1
    444c:	00c1013b 	.word	0x00c1013b
    4450:	02d301be 	.word	0x02d301be
    4454:	013b013b 	.word	0x013b013b
    4458:	00c1013b 	.word	0x00c1013b
    445c:	00c100c1 	.word	0x00c100c1
    4460:	02cc00c1 	.word	0x02cc00c1
    4464:	00c100c1 	.word	0x00c100c1
    4468:	00c10288 	.word	0x00c10288
    446c:	00c100c1 	.word	0x00c100c1
    4470:	00c101e8 	.word	0x00c101e8
    4474:	00c10257 	.word	0x00c10257
    4478:	06b200c1 	.word	0x06b200c1
    447c:	00c100c1 	.word	0x00c100c1
    4480:	00c100c1 	.word	0x00c100c1
    4484:	00c100c1 	.word	0x00c100c1
    4488:	00c100c1 	.word	0x00c100c1
    448c:	00c1013b 	.word	0x00c1013b
    4490:	021a01be 	.word	0x021a01be
    4494:	013b013b 	.word	0x013b013b
    4498:	02a0013b 	.word	0x02a0013b
    449c:	007f021a 	.word	0x007f021a
    44a0:	02c200c1 	.word	0x02c200c1
    44a4:	02b300c1 	.word	0x02b300c1
    44a8:	032206d8 	.word	0x032206d8
    44ac:	00c1007f 	.word	0x00c1007f
    44b0:	007c01e8 	.word	0x007c01e8
    44b4:	00c106ae 	.word	0x00c106ae
    44b8:	06db00c1 	.word	0x06db00c1
    44bc:	007c00c1 	.word	0x007c00c1
    44c0:	f1a3 0230 	sub.w	r2, r3, #48	@ 0x30
    44c4:	2100      	movs	r1, #0
    44c6:	f81a 3b01 	ldrb.w	r3, [sl], #1
    44ca:	eb01 0181 	add.w	r1, r1, r1, lsl #2
    44ce:	eb02 0141 	add.w	r1, r2, r1, lsl #1
    44d2:	f1a3 0230 	sub.w	r2, r3, #48	@ 0x30
    44d6:	2a09      	cmp	r2, #9
    44d8:	d9f5      	bls.n	44c6 <_svfprintf_r+0x17e>
    44da:	9107      	str	r1, [sp, #28]
    44dc:	e78e      	b.n	43fc <_svfprintf_r+0xb4>
    44de:	4658      	mov	r0, fp
    44e0:	f001 fe5c 	bl	619c <_localeconv_r>
    44e4:	6843      	ldr	r3, [r0, #4]
    44e6:	9319      	str	r3, [sp, #100]	@ 0x64
    44e8:	4618      	mov	r0, r3
    44ea:	f001 fee9 	bl	62c0 <strlen>
    44ee:	901c      	str	r0, [sp, #112]	@ 0x70
    44f0:	4605      	mov	r5, r0
    44f2:	4658      	mov	r0, fp
    44f4:	f001 fe52 	bl	619c <_localeconv_r>
    44f8:	6883      	ldr	r3, [r0, #8]
    44fa:	9317      	str	r3, [sp, #92]	@ 0x5c
    44fc:	2d00      	cmp	r5, #0
    44fe:	f040 85b7 	bne.w	5070 <_svfprintf_r+0xd28>
    4502:	f89a 3000 	ldrb.w	r3, [sl]
    4506:	e777      	b.n	43f8 <_svfprintf_r+0xb0>
    4508:	9b04      	ldr	r3, [sp, #16]
    450a:	f043 0320 	orr.w	r3, r3, #32
    450e:	9304      	str	r3, [sp, #16]
    4510:	f89a 3000 	ldrb.w	r3, [sl]
    4514:	e770      	b.n	43f8 <_svfprintf_r+0xb0>
    4516:	2208      	movs	r2, #8
    4518:	2100      	movs	r1, #0
    451a:	a828      	add	r0, sp, #160	@ 0xa0
    451c:	f7ff f9b2 	bl	3884 <memset>
    4520:	2301      	movs	r3, #1
    4522:	449a      	add	sl, r3
    4524:	e73f      	b.n	43a6 <_svfprintf_r+0x5e>
    4526:	ebba 0706 	subs.w	r7, sl, r6
    452a:	4605      	mov	r5, r0
    452c:	d010      	beq.n	4550 <_svfprintf_r+0x208>
    452e:	9b2e      	ldr	r3, [sp, #184]	@ 0xb8
    4530:	443b      	add	r3, r7
    4532:	932e      	str	r3, [sp, #184]	@ 0xb8
    4534:	9b2d      	ldr	r3, [sp, #180]	@ 0xb4
    4536:	3301      	adds	r3, #1
    4538:	2b07      	cmp	r3, #7
    453a:	e9c4 6700 	strd	r6, r7, [r4]
    453e:	932d      	str	r3, [sp, #180]	@ 0xb4
    4540:	dc15      	bgt.n	456e <_svfprintf_r+0x226>
    4542:	3408      	adds	r4, #8
    4544:	9b06      	ldr	r3, [sp, #24]
    4546:	443b      	add	r3, r7
    4548:	9306      	str	r3, [sp, #24]
    454a:	2d00      	cmp	r5, #0
    454c:	f47f af47 	bne.w	43de <_svfprintf_r+0x96>
    4550:	9b2e      	ldr	r3, [sp, #184]	@ 0xb8
    4552:	2b00      	cmp	r3, #0
    4554:	f041 8193 	bne.w	587e <_svfprintf_r+0x1536>
    4558:	9b09      	ldr	r3, [sp, #36]	@ 0x24
    455a:	899b      	ldrh	r3, [r3, #12]
    455c:	f003 0340 	and.w	r3, r3, #64	@ 0x40
    4560:	2b00      	cmp	r3, #0
    4562:	f041 8392 	bne.w	5c8a <_svfprintf_r+0x1942>
    4566:	9806      	ldr	r0, [sp, #24]
    4568:	b059      	add	sp, #356	@ 0x164
    456a:	e8bd 8ff0 	ldmia.w	sp!, {r4, r5, r6, r7, r8, r9, sl, fp, pc}
    456e:	9909      	ldr	r1, [sp, #36]	@ 0x24
    4570:	aa2c      	add	r2, sp, #176	@ 0xb0
    4572:	4658      	mov	r0, fp
    4574:	f001 fc86 	bl	5e84 <__ssprint_r>
    4578:	2800      	cmp	r0, #0
    457a:	d1ed      	bne.n	4558 <_svfprintf_r+0x210>
    457c:	ac2f      	add	r4, sp, #188	@ 0xbc
    457e:	e7e1      	b.n	4544 <_svfprintf_r+0x1fc>
	...
    4588:	1ffd05e8 	.word	0x1ffd05e8
    458c:	930c      	str	r3, [sp, #48]	@ 0x30
    458e:	2b00      	cmp	r3, #0
    4590:	d0de      	beq.n	4550 <_svfprintf_r+0x208>
    4592:	2200      	movs	r2, #0
    4594:	f88d 30fc 	strb.w	r3, [sp, #252]	@ 0xfc
    4598:	2301      	movs	r3, #1
    459a:	f88d 2087 	strb.w	r2, [sp, #135]	@ 0x87
    459e:	9302      	str	r3, [sp, #8]
    45a0:	920a      	str	r2, [sp, #40]	@ 0x28
    45a2:	9308      	str	r3, [sp, #32]
    45a4:	9205      	str	r2, [sp, #20]
    45a6:	9212      	str	r2, [sp, #72]	@ 0x48
    45a8:	920f      	str	r2, [sp, #60]	@ 0x3c
    45aa:	920d      	str	r2, [sp, #52]	@ 0x34
    45ac:	ae3f      	add	r6, sp, #252	@ 0xfc
    45ae:	9b04      	ldr	r3, [sp, #16]
    45b0:	f013 0302 	ands.w	r3, r3, #2
    45b4:	d002      	beq.n	45bc <_svfprintf_r+0x274>
    45b6:	9902      	ldr	r1, [sp, #8]
    45b8:	3102      	adds	r1, #2
    45ba:	9102      	str	r1, [sp, #8]
    45bc:	9904      	ldr	r1, [sp, #16]
    45be:	9d2e      	ldr	r5, [sp, #184]	@ 0xb8
    45c0:	f011 0884 	ands.w	r8, r1, #132	@ 0x84
    45c4:	d105      	bne.n	45d2 <_svfprintf_r+0x28a>
    45c6:	9907      	ldr	r1, [sp, #28]
    45c8:	9802      	ldr	r0, [sp, #8]
    45ca:	1a0f      	subs	r7, r1, r0
    45cc:	2f00      	cmp	r7, #0
    45ce:	f300 80a1 	bgt.w	4714 <_svfprintf_r+0x3cc>
    45d2:	b16a      	cbz	r2, 45f0 <_svfprintf_r+0x2a8>
    45d4:	2201      	movs	r2, #1
    45d6:	6062      	str	r2, [r4, #4]
    45d8:	9a2d      	ldr	r2, [sp, #180]	@ 0xb4
    45da:	3201      	adds	r2, #1
    45dc:	3501      	adds	r5, #1
    45de:	f10d 0187 	add.w	r1, sp, #135	@ 0x87
    45e2:	2a07      	cmp	r2, #7
    45e4:	952e      	str	r5, [sp, #184]	@ 0xb8
    45e6:	922d      	str	r2, [sp, #180]	@ 0xb4
    45e8:	6021      	str	r1, [r4, #0]
    45ea:	f300 83db 	bgt.w	4da4 <_svfprintf_r+0xa5c>
    45ee:	3408      	adds	r4, #8
    45f0:	b16b      	cbz	r3, 460e <_svfprintf_r+0x2c6>
    45f2:	9b2d      	ldr	r3, [sp, #180]	@ 0xb4
    45f4:	aa22      	add	r2, sp, #136	@ 0x88
    45f6:	3301      	adds	r3, #1
    45f8:	3502      	adds	r5, #2
    45fa:	6022      	str	r2, [r4, #0]
    45fc:	2b07      	cmp	r3, #7
    45fe:	f04f 0202 	mov.w	r2, #2
    4602:	952e      	str	r5, [sp, #184]	@ 0xb8
    4604:	932d      	str	r3, [sp, #180]	@ 0xb4
    4606:	6062      	str	r2, [r4, #4]
    4608:	f300 83c1 	bgt.w	4d8e <_svfprintf_r+0xa46>
    460c:	3408      	adds	r4, #8
    460e:	f1b8 0f80 	cmp.w	r8, #128	@ 0x80
    4612:	f000 82c4 	beq.w	4b9e <_svfprintf_r+0x856>
    4616:	9b05      	ldr	r3, [sp, #20]
    4618:	9a08      	ldr	r2, [sp, #32]
    461a:	1a9f      	subs	r7, r3, r2
    461c:	2f00      	cmp	r7, #0
    461e:	f300 82fe 	bgt.w	4c1e <_svfprintf_r+0x8d6>
    4622:	9b04      	ldr	r3, [sp, #16]
    4624:	05da      	lsls	r2, r3, #23
    4626:	f100 8224 	bmi.w	4a72 <_svfprintf_r+0x72a>
    462a:	9b08      	ldr	r3, [sp, #32]
    462c:	6063      	str	r3, [r4, #4]
    462e:	441d      	add	r5, r3
    4630:	9b2d      	ldr	r3, [sp, #180]	@ 0xb4
    4632:	6026      	str	r6, [r4, #0]
    4634:	3301      	adds	r3, #1
    4636:	2b07      	cmp	r3, #7
    4638:	952e      	str	r5, [sp, #184]	@ 0xb8
    463a:	932d      	str	r3, [sp, #180]	@ 0xb4
    463c:	f300 833f 	bgt.w	4cbe <_svfprintf_r+0x976>
    4640:	3408      	adds	r4, #8
    4642:	9b04      	ldr	r3, [sp, #16]
    4644:	075a      	lsls	r2, r3, #29
    4646:	d505      	bpl.n	4654 <_svfprintf_r+0x30c>
    4648:	9b07      	ldr	r3, [sp, #28]
    464a:	9a02      	ldr	r2, [sp, #8]
    464c:	1a9e      	subs	r6, r3, r2
    464e:	2e00      	cmp	r6, #0
    4650:	f300 83b5 	bgt.w	4dbe <_svfprintf_r+0xa76>
    4654:	e9dd 3206 	ldrd	r3, r2, [sp, #24]
    4658:	9902      	ldr	r1, [sp, #8]
    465a:	428a      	cmp	r2, r1
    465c:	bfac      	ite	ge
    465e:	189b      	addge	r3, r3, r2
    4660:	185b      	addlt	r3, r3, r1
    4662:	9306      	str	r3, [sp, #24]
    4664:	2d00      	cmp	r5, #0
    4666:	f040 830b 	bne.w	4c80 <_svfprintf_r+0x938>
    466a:	2300      	movs	r3, #0
    466c:	932d      	str	r3, [sp, #180]	@ 0xb4
    466e:	9b0a      	ldr	r3, [sp, #40]	@ 0x28
    4670:	b11b      	cbz	r3, 467a <_svfprintf_r+0x332>
    4672:	990a      	ldr	r1, [sp, #40]	@ 0x28
    4674:	4658      	mov	r0, fp
    4676:	f7ff faad 	bl	3bd4 <_free_r>
    467a:	ac2f      	add	r4, sp, #188	@ 0xbc
    467c:	4656      	mov	r6, sl
    467e:	e691      	b.n	43a4 <_svfprintf_r+0x5c>
    4680:	930c      	str	r3, [sp, #48]	@ 0x30
    4682:	9b0b      	ldr	r3, [sp, #44]	@ 0x2c
    4684:	3307      	adds	r3, #7
    4686:	f023 0307 	bic.w	r3, r3, #7
    468a:	ecb3 7b02 	vldmia	r3!, {d7}
    468e:	ec58 7b17 	vmov	r7, r8, d7
    4692:	930b      	str	r3, [sp, #44]	@ 0x2c
    4694:	f028 4300 	bic.w	r3, r8, #2147483648	@ 0x80000000
    4698:	931b      	str	r3, [sp, #108]	@ 0x6c
    469a:	ed8d 7a1a 	vstr	s14, [sp, #104]	@ 0x68
    469e:	e9dd 011a 	ldrd	r0, r1, [sp, #104]	@ 0x68
    46a2:	4baf      	ldr	r3, [pc, #700]	@ (4960 <_svfprintf_r+0x618>)
    46a4:	f04f 32ff 	mov.w	r2, #4294967295
    46a8:	ed8d 7b10 	vstr	d7, [sp, #64]	@ 0x40
    46ac:	f005 fd9c 	bl	a1e8 <__aeabi_dcmpun>
    46b0:	2800      	cmp	r0, #0
    46b2:	f040 8502 	bne.w	50ba <_svfprintf_r+0xd72>
    46b6:	e9dd 011a 	ldrd	r0, r1, [sp, #104]	@ 0x68
    46ba:	4ba9      	ldr	r3, [pc, #676]	@ (4960 <_svfprintf_r+0x618>)
    46bc:	f04f 32ff 	mov.w	r2, #4294967295
    46c0:	f005 fd74 	bl	a1ac <__aeabi_dcmple>
    46c4:	2800      	cmp	r0, #0
    46c6:	f040 84f8 	bne.w	50ba <_svfprintf_r+0xd72>
    46ca:	2200      	movs	r2, #0
    46cc:	2300      	movs	r3, #0
    46ce:	4638      	mov	r0, r7
    46d0:	4641      	mov	r1, r8
    46d2:	f005 fd61 	bl	a198 <__aeabi_dcmplt>
    46d6:	2800      	cmp	r0, #0
    46d8:	f041 8021 	bne.w	571e <_svfprintf_r+0x13d6>
    46dc:	f89d 2087 	ldrb.w	r2, [sp, #135]	@ 0x87
    46e0:	9b04      	ldr	r3, [sp, #16]
    46e2:	4ea0      	ldr	r6, [pc, #640]	@ (4964 <_svfprintf_r+0x61c>)
    46e4:	f023 0380 	bic.w	r3, r3, #128	@ 0x80
    46e8:	9304      	str	r3, [sp, #16]
    46ea:	4b9f      	ldr	r3, [pc, #636]	@ (4968 <_svfprintf_r+0x620>)
    46ec:	990c      	ldr	r1, [sp, #48]	@ 0x30
    46ee:	2947      	cmp	r1, #71	@ 0x47
    46f0:	bfd8      	it	le
    46f2:	461e      	movle	r6, r3
    46f4:	2300      	movs	r3, #0
    46f6:	2103      	movs	r1, #3
    46f8:	930a      	str	r3, [sp, #40]	@ 0x28
    46fa:	9102      	str	r1, [sp, #8]
    46fc:	9108      	str	r1, [sp, #32]
    46fe:	9305      	str	r3, [sp, #20]
    4700:	9312      	str	r3, [sp, #72]	@ 0x48
    4702:	930f      	str	r3, [sp, #60]	@ 0x3c
    4704:	930d      	str	r3, [sp, #52]	@ 0x34
    4706:	2a00      	cmp	r2, #0
    4708:	f43f af51 	beq.w	45ae <_svfprintf_r+0x266>
    470c:	9b02      	ldr	r3, [sp, #8]
    470e:	3301      	adds	r3, #1
    4710:	9302      	str	r3, [sp, #8]
    4712:	e74c      	b.n	45ae <_svfprintf_r+0x266>
    4714:	4995      	ldr	r1, [pc, #596]	@ (496c <_svfprintf_r+0x624>)
    4716:	9a2d      	ldr	r2, [sp, #180]	@ 0xb4
    4718:	9113      	str	r1, [sp, #76]	@ 0x4c
    471a:	2f10      	cmp	r7, #16
    471c:	dd25      	ble.n	476a <_svfprintf_r+0x422>
    471e:	4621      	mov	r1, r4
    4720:	4628      	mov	r0, r5
    4722:	9c09      	ldr	r4, [sp, #36]	@ 0x24
    4724:	4d91      	ldr	r5, [pc, #580]	@ (496c <_svfprintf_r+0x624>)
    4726:	931d      	str	r3, [sp, #116]	@ 0x74
    4728:	f04f 0910 	mov.w	r9, #16
    472c:	e004      	b.n	4738 <_svfprintf_r+0x3f0>
    472e:	3f10      	subs	r7, #16
    4730:	2f10      	cmp	r7, #16
    4732:	f101 0108 	add.w	r1, r1, #8
    4736:	dd15      	ble.n	4764 <_svfprintf_r+0x41c>
    4738:	3201      	adds	r2, #1
    473a:	3010      	adds	r0, #16
    473c:	2a07      	cmp	r2, #7
    473e:	e9c1 5900 	strd	r5, r9, [r1]
    4742:	e9cd 202d 	strd	r2, r0, [sp, #180]	@ 0xb4
    4746:	ddf2      	ble.n	472e <_svfprintf_r+0x3e6>
    4748:	aa2c      	add	r2, sp, #176	@ 0xb0
    474a:	4621      	mov	r1, r4
    474c:	4658      	mov	r0, fp
    474e:	f001 fb99 	bl	5e84 <__ssprint_r>
    4752:	2800      	cmp	r0, #0
    4754:	f040 829c 	bne.w	4c90 <_svfprintf_r+0x948>
    4758:	3f10      	subs	r7, #16
    475a:	2f10      	cmp	r7, #16
    475c:	e9dd 202d 	ldrd	r2, r0, [sp, #180]	@ 0xb4
    4760:	a92f      	add	r1, sp, #188	@ 0xbc
    4762:	dce9      	bgt.n	4738 <_svfprintf_r+0x3f0>
    4764:	9b1d      	ldr	r3, [sp, #116]	@ 0x74
    4766:	460c      	mov	r4, r1
    4768:	4605      	mov	r5, r0
    476a:	3201      	adds	r2, #1
    476c:	9913      	ldr	r1, [sp, #76]	@ 0x4c
    476e:	6021      	str	r1, [r4, #0]
    4770:	443d      	add	r5, r7
    4772:	2a07      	cmp	r2, #7
    4774:	e9cd 252d 	strd	r2, r5, [sp, #180]	@ 0xb4
    4778:	6067      	str	r7, [r4, #4]
    477a:	f300 86d4 	bgt.w	5526 <_svfprintf_r+0x11de>
    477e:	f89d 2087 	ldrb.w	r2, [sp, #135]	@ 0x87
    4782:	3408      	adds	r4, #8
    4784:	e725      	b.n	45d2 <_svfprintf_r+0x28a>
    4786:	9a0b      	ldr	r2, [sp, #44]	@ 0x2c
    4788:	930c      	str	r3, [sp, #48]	@ 0x30
    478a:	2b43      	cmp	r3, #67	@ 0x43
    478c:	f102 0504 	add.w	r5, r2, #4
    4790:	d003      	beq.n	479a <_svfprintf_r+0x452>
    4792:	9b04      	ldr	r3, [sp, #16]
    4794:	06da      	lsls	r2, r3, #27
    4796:	f140 8517 	bpl.w	51c8 <_svfprintf_r+0xe80>
    479a:	2208      	movs	r2, #8
    479c:	2100      	movs	r1, #0
    479e:	a82a      	add	r0, sp, #168	@ 0xa8
    47a0:	f7ff f870 	bl	3884 <memset>
    47a4:	9b0b      	ldr	r3, [sp, #44]	@ 0x2c
    47a6:	ae3f      	add	r6, sp, #252	@ 0xfc
    47a8:	681a      	ldr	r2, [r3, #0]
    47aa:	4631      	mov	r1, r6
    47ac:	ab2a      	add	r3, sp, #168	@ 0xa8
    47ae:	4658      	mov	r0, fp
    47b0:	f003 fa24 	bl	7bfc <_wcrtomb_r>
    47b4:	4603      	mov	r3, r0
    47b6:	3301      	adds	r3, #1
    47b8:	9008      	str	r0, [sp, #32]
    47ba:	f001 8261 	beq.w	5c80 <_svfprintf_r+0x1938>
    47be:	9b08      	ldr	r3, [sp, #32]
    47c0:	ea23 73e3 	bic.w	r3, r3, r3, asr #31
    47c4:	9302      	str	r3, [sp, #8]
    47c6:	2200      	movs	r2, #0
    47c8:	950b      	str	r5, [sp, #44]	@ 0x2c
    47ca:	f88d 2087 	strb.w	r2, [sp, #135]	@ 0x87
    47ce:	920a      	str	r2, [sp, #40]	@ 0x28
    47d0:	9205      	str	r2, [sp, #20]
    47d2:	9212      	str	r2, [sp, #72]	@ 0x48
    47d4:	920f      	str	r2, [sp, #60]	@ 0x3c
    47d6:	920d      	str	r2, [sp, #52]	@ 0x34
    47d8:	e6e9      	b.n	45ae <_svfprintf_r+0x266>
    47da:	9f0b      	ldr	r7, [sp, #44]	@ 0x2c
    47dc:	930c      	str	r3, [sp, #48]	@ 0x30
    47de:	f857 6b04 	ldr.w	r6, [r7], #4
    47e2:	2300      	movs	r3, #0
    47e4:	f88d 3087 	strb.w	r3, [sp, #135]	@ 0x87
    47e8:	2e00      	cmp	r6, #0
    47ea:	f000 8516 	beq.w	521a <_svfprintf_r+0xed2>
    47ee:	9b0c      	ldr	r3, [sp, #48]	@ 0x30
    47f0:	2b53      	cmp	r3, #83	@ 0x53
    47f2:	f000 86bf 	beq.w	5574 <_svfprintf_r+0x122c>
    47f6:	9b04      	ldr	r3, [sp, #16]
    47f8:	f013 0310 	ands.w	r3, r3, #16
    47fc:	930d      	str	r3, [sp, #52]	@ 0x34
    47fe:	f040 86b9 	bne.w	5574 <_svfprintf_r+0x122c>
    4802:	9b05      	ldr	r3, [sp, #20]
    4804:	2b00      	cmp	r3, #0
    4806:	f2c1 8045 	blt.w	5894 <_svfprintf_r+0x154c>
    480a:	990d      	ldr	r1, [sp, #52]	@ 0x34
    480c:	461a      	mov	r2, r3
    480e:	4630      	mov	r0, r6
    4810:	f001 fcfe 	bl	6210 <memchr>
    4814:	900a      	str	r0, [sp, #40]	@ 0x28
    4816:	2800      	cmp	r0, #0
    4818:	f001 8266 	beq.w	5ce8 <_svfprintf_r+0x19a0>
    481c:	9b0a      	ldr	r3, [sp, #40]	@ 0x28
    481e:	1b99      	subs	r1, r3, r6
    4820:	9b0d      	ldr	r3, [sp, #52]	@ 0x34
    4822:	9108      	str	r1, [sp, #32]
    4824:	9305      	str	r3, [sp, #20]
    4826:	ea21 71e1 	bic.w	r1, r1, r1, asr #31
    482a:	9312      	str	r3, [sp, #72]	@ 0x48
    482c:	930f      	str	r3, [sp, #60]	@ 0x3c
    482e:	930a      	str	r3, [sp, #40]	@ 0x28
    4830:	2373      	movs	r3, #115	@ 0x73
    4832:	f89d 2087 	ldrb.w	r2, [sp, #135]	@ 0x87
    4836:	970b      	str	r7, [sp, #44]	@ 0x2c
    4838:	9102      	str	r1, [sp, #8]
    483a:	930c      	str	r3, [sp, #48]	@ 0x30
    483c:	e763      	b.n	4706 <_svfprintf_r+0x3be>
    483e:	930c      	str	r3, [sp, #48]	@ 0x30
    4840:	9b04      	ldr	r3, [sp, #16]
    4842:	069b      	lsls	r3, r3, #26
    4844:	f140 80bd 	bpl.w	49c2 <_svfprintf_r+0x67a>
    4848:	9b0b      	ldr	r3, [sp, #44]	@ 0x2c
    484a:	3307      	adds	r3, #7
    484c:	f023 0307 	bic.w	r3, r3, #7
    4850:	461a      	mov	r2, r3
    4852:	6859      	ldr	r1, [r3, #4]
    4854:	f852 3b08 	ldr.w	r3, [r2], #8
    4858:	920b      	str	r2, [sp, #44]	@ 0x2c
    485a:	460a      	mov	r2, r1
    485c:	2900      	cmp	r1, #0
    485e:	f2c0 83ca 	blt.w	4ff6 <_svfprintf_r+0xcae>
    4862:	9905      	ldr	r1, [sp, #20]
    4864:	2900      	cmp	r1, #0
    4866:	f2c0 8283 	blt.w	4d70 <_svfprintf_r+0xa28>
    486a:	9904      	ldr	r1, [sp, #16]
    486c:	f021 0580 	bic.w	r5, r1, #128	@ 0x80
    4870:	ea53 0102 	orrs.w	r1, r3, r2
    4874:	f040 827d 	bne.w	4d72 <_svfprintf_r+0xa2a>
    4878:	9a05      	ldr	r2, [sp, #20]
    487a:	2a00      	cmp	r2, #0
    487c:	f040 827e 	bne.w	4d7c <_svfprintf_r+0xa34>
    4880:	9504      	str	r5, [sp, #16]
    4882:	9208      	str	r2, [sp, #32]
    4884:	ae58      	add	r6, sp, #352	@ 0x160
    4886:	e160      	b.n	4b4a <_svfprintf_r+0x802>
    4888:	9b0b      	ldr	r3, [sp, #44]	@ 0x2c
    488a:	f853 2b04 	ldr.w	r2, [r3], #4
    488e:	9207      	str	r2, [sp, #28]
    4890:	2a00      	cmp	r2, #0
    4892:	f280 83da 	bge.w	504a <_svfprintf_r+0xd02>
    4896:	9a07      	ldr	r2, [sp, #28]
    4898:	930b      	str	r3, [sp, #44]	@ 0x2c
    489a:	4252      	negs	r2, r2
    489c:	9207      	str	r2, [sp, #28]
    489e:	9b04      	ldr	r3, [sp, #16]
    48a0:	f043 0304 	orr.w	r3, r3, #4
    48a4:	9304      	str	r3, [sp, #16]
    48a6:	f89a 3000 	ldrb.w	r3, [sl]
    48aa:	e5a5      	b.n	43f8 <_svfprintf_r+0xb0>
    48ac:	232b      	movs	r3, #43	@ 0x2b
    48ae:	f88d 3087 	strb.w	r3, [sp, #135]	@ 0x87
    48b2:	f89a 3000 	ldrb.w	r3, [sl]
    48b6:	e59f      	b.n	43f8 <_svfprintf_r+0xb0>
    48b8:	930c      	str	r3, [sp, #48]	@ 0x30
    48ba:	9b04      	ldr	r3, [sp, #16]
    48bc:	f043 0510 	orr.w	r5, r3, #16
    48c0:	f015 0220 	ands.w	r2, r5, #32
    48c4:	f000 8372 	beq.w	4fac <_svfprintf_r+0xc64>
    48c8:	9b0b      	ldr	r3, [sp, #44]	@ 0x2c
    48ca:	3307      	adds	r3, #7
    48cc:	f023 0307 	bic.w	r3, r3, #7
    48d0:	4619      	mov	r1, r3
    48d2:	685a      	ldr	r2, [r3, #4]
    48d4:	f851 3b08 	ldr.w	r3, [r1], #8
    48d8:	910b      	str	r1, [sp, #44]	@ 0x2c
    48da:	2101      	movs	r1, #1
    48dc:	2000      	movs	r0, #0
    48de:	9e05      	ldr	r6, [sp, #20]
    48e0:	f88d 0087 	strb.w	r0, [sp, #135]	@ 0x87
    48e4:	2e00      	cmp	r6, #0
    48e6:	f2c0 8119 	blt.w	4b1c <_svfprintf_r+0x7d4>
    48ea:	f025 0080 	bic.w	r0, r5, #128	@ 0x80
    48ee:	9004      	str	r0, [sp, #16]
    48f0:	ea53 0002 	orrs.w	r0, r3, r2
    48f4:	f040 8111 	bne.w	4b1a <_svfprintf_r+0x7d2>
    48f8:	2e00      	cmp	r6, #0
    48fa:	f040 8624 	bne.w	5546 <_svfprintf_r+0x11fe>
    48fe:	2900      	cmp	r1, #0
    4900:	f040 8380 	bne.w	5004 <_svfprintf_r+0xcbc>
    4904:	f015 0301 	ands.w	r3, r5, #1
    4908:	9308      	str	r3, [sp, #32]
    490a:	f000 83a3 	beq.w	5054 <_svfprintf_r+0xd0c>
    490e:	2330      	movs	r3, #48	@ 0x30
    4910:	f88d 315f 	strb.w	r3, [sp, #351]	@ 0x15f
    4914:	f20d 165f 	addw	r6, sp, #351	@ 0x15f
    4918:	e117      	b.n	4b4a <_svfprintf_r+0x802>
    491a:	930c      	str	r3, [sp, #48]	@ 0x30
    491c:	9b04      	ldr	r3, [sp, #16]
    491e:	f043 0310 	orr.w	r3, r3, #16
    4922:	9304      	str	r3, [sp, #16]
    4924:	9b04      	ldr	r3, [sp, #16]
    4926:	f013 0220 	ands.w	r2, r3, #32
    492a:	f000 8355 	beq.w	4fd8 <_svfprintf_r+0xc90>
    492e:	9b0b      	ldr	r3, [sp, #44]	@ 0x2c
    4930:	3307      	adds	r3, #7
    4932:	f023 0307 	bic.w	r3, r3, #7
    4936:	4619      	mov	r1, r3
    4938:	685a      	ldr	r2, [r3, #4]
    493a:	f851 3b08 	ldr.w	r3, [r1], #8
    493e:	910b      	str	r1, [sp, #44]	@ 0x2c
    4940:	9904      	ldr	r1, [sp, #16]
    4942:	f421 6580 	bic.w	r5, r1, #1024	@ 0x400
    4946:	2100      	movs	r1, #0
    4948:	e7c8      	b.n	48dc <_svfprintf_r+0x594>
    494a:	f89a 3000 	ldrb.w	r3, [sl]
    494e:	2b68      	cmp	r3, #104	@ 0x68
    4950:	f000 844e 	beq.w	51f0 <_svfprintf_r+0xea8>
    4954:	9a04      	ldr	r2, [sp, #16]
    4956:	f042 0240 	orr.w	r2, r2, #64	@ 0x40
    495a:	9204      	str	r2, [sp, #16]
    495c:	e54c      	b.n	43f8 <_svfprintf_r+0xb0>
    495e:	bf00      	nop
    4960:	7fefffff 	.word	0x7fefffff
    4964:	0000a2c0 	.word	0x0000a2c0
    4968:	0000a2bc 	.word	0x0000a2bc
    496c:	0000a474 	.word	0x0000a474
    4970:	9b04      	ldr	r3, [sp, #16]
    4972:	069d      	lsls	r5, r3, #26
    4974:	f140 8390 	bpl.w	5098 <_svfprintf_r+0xd50>
    4978:	9b0b      	ldr	r3, [sp, #44]	@ 0x2c
    497a:	9a06      	ldr	r2, [sp, #24]
    497c:	681b      	ldr	r3, [r3, #0]
    497e:	601a      	str	r2, [r3, #0]
    4980:	17d2      	asrs	r2, r2, #31
    4982:	605a      	str	r2, [r3, #4]
    4984:	9b0b      	ldr	r3, [sp, #44]	@ 0x2c
    4986:	3304      	adds	r3, #4
    4988:	930b      	str	r3, [sp, #44]	@ 0x2c
    498a:	4656      	mov	r6, sl
    498c:	e50a      	b.n	43a4 <_svfprintf_r+0x5c>
    498e:	f89a 3000 	ldrb.w	r3, [sl]
    4992:	2b6c      	cmp	r3, #108	@ 0x6c
    4994:	f000 8422 	beq.w	51dc <_svfprintf_r+0xe94>
    4998:	9a04      	ldr	r2, [sp, #16]
    499a:	f042 0210 	orr.w	r2, r2, #16
    499e:	9204      	str	r2, [sp, #16]
    49a0:	e52a      	b.n	43f8 <_svfprintf_r+0xb0>
    49a2:	9b04      	ldr	r3, [sp, #16]
    49a4:	f043 0308 	orr.w	r3, r3, #8
    49a8:	9304      	str	r3, [sp, #16]
    49aa:	f89a 3000 	ldrb.w	r3, [sl]
    49ae:	e523      	b.n	43f8 <_svfprintf_r+0xb0>
    49b0:	930c      	str	r3, [sp, #48]	@ 0x30
    49b2:	9b04      	ldr	r3, [sp, #16]
    49b4:	f043 0310 	orr.w	r3, r3, #16
    49b8:	9304      	str	r3, [sp, #16]
    49ba:	9b04      	ldr	r3, [sp, #16]
    49bc:	069b      	lsls	r3, r3, #26
    49be:	f53f af43 	bmi.w	4848 <_svfprintf_r+0x500>
    49c2:	9904      	ldr	r1, [sp, #16]
    49c4:	9a0b      	ldr	r2, [sp, #44]	@ 0x2c
    49c6:	06cf      	lsls	r7, r1, #27
    49c8:	f852 3b04 	ldr.w	r3, [r2], #4
    49cc:	f100 834b 	bmi.w	5066 <_svfprintf_r+0xd1e>
    49d0:	9904      	ldr	r1, [sp, #16]
    49d2:	064e      	lsls	r6, r1, #25
    49d4:	f140 8643 	bpl.w	565e <_svfprintf_r+0x1316>
    49d8:	920b      	str	r2, [sp, #44]	@ 0x2c
    49da:	f343 32c0 	sbfx	r2, r3, #15, #1
    49de:	4611      	mov	r1, r2
    49e0:	b21b      	sxth	r3, r3
    49e2:	e73b      	b.n	485c <_svfprintf_r+0x514>
    49e4:	9b04      	ldr	r3, [sp, #16]
    49e6:	f043 0301 	orr.w	r3, r3, #1
    49ea:	9304      	str	r3, [sp, #16]
    49ec:	f89a 3000 	ldrb.w	r3, [sl]
    49f0:	e502      	b.n	43f8 <_svfprintf_r+0xb0>
    49f2:	f89d 2087 	ldrb.w	r2, [sp, #135]	@ 0x87
    49f6:	f89a 3000 	ldrb.w	r3, [sl]
    49fa:	2a00      	cmp	r2, #0
    49fc:	f47f acfc 	bne.w	43f8 <_svfprintf_r+0xb0>
    4a00:	2220      	movs	r2, #32
    4a02:	f88d 2087 	strb.w	r2, [sp, #135]	@ 0x87
    4a06:	e4f7      	b.n	43f8 <_svfprintf_r+0xb0>
    4a08:	9b04      	ldr	r3, [sp, #16]
    4a0a:	f043 0380 	orr.w	r3, r3, #128	@ 0x80
    4a0e:	9304      	str	r3, [sp, #16]
    4a10:	f89a 3000 	ldrb.w	r3, [sl]
    4a14:	e4f0      	b.n	43f8 <_svfprintf_r+0xb0>
    4a16:	4650      	mov	r0, sl
    4a18:	f810 3b01 	ldrb.w	r3, [r0], #1
    4a1c:	2b2a      	cmp	r3, #42	@ 0x2a
    4a1e:	f001 81e5 	beq.w	5dec <_svfprintf_r+0x1aa4>
    4a22:	f1a3 0230 	sub.w	r2, r3, #48	@ 0x30
    4a26:	2a09      	cmp	r2, #9
    4a28:	bf98      	it	ls
    4a2a:	2100      	movls	r1, #0
    4a2c:	f201 80e4 	bhi.w	5bf8 <_svfprintf_r+0x18b0>
    4a30:	f810 3b01 	ldrb.w	r3, [r0], #1
    4a34:	eb01 0181 	add.w	r1, r1, r1, lsl #2
    4a38:	eb02 0141 	add.w	r1, r2, r1, lsl #1
    4a3c:	f1a3 0230 	sub.w	r2, r3, #48	@ 0x30
    4a40:	2a09      	cmp	r2, #9
    4a42:	d9f5      	bls.n	4a30 <_svfprintf_r+0x6e8>
    4a44:	ea41 72e1 	orr.w	r2, r1, r1, asr #31
    4a48:	9205      	str	r2, [sp, #20]
    4a4a:	4682      	mov	sl, r0
    4a4c:	e4d6      	b.n	43fc <_svfprintf_r+0xb4>
    4a4e:	9a0b      	ldr	r2, [sp, #44]	@ 0x2c
    4a50:	9b04      	ldr	r3, [sp, #16]
    4a52:	f043 0502 	orr.w	r5, r3, #2
    4a56:	f852 3b04 	ldr.w	r3, [r2], #4
    4a5a:	920b      	str	r2, [sp, #44]	@ 0x2c
    4a5c:	f647 0230 	movw	r2, #30768	@ 0x7830
    4a60:	f8ad 2088 	strh.w	r2, [sp, #136]	@ 0x88
    4a64:	2078      	movs	r0, #120	@ 0x78
    4a66:	4a9b      	ldr	r2, [pc, #620]	@ (4cd4 <_svfprintf_r+0x98c>)
    4a68:	9215      	str	r2, [sp, #84]	@ 0x54
    4a6a:	2102      	movs	r1, #2
    4a6c:	2200      	movs	r2, #0
    4a6e:	900c      	str	r0, [sp, #48]	@ 0x30
    4a70:	e734      	b.n	48dc <_svfprintf_r+0x594>
    4a72:	9b0c      	ldr	r3, [sp, #48]	@ 0x30
    4a74:	2b65      	cmp	r3, #101	@ 0x65
    4a76:	f340 8133 	ble.w	4ce0 <_svfprintf_r+0x998>
    4a7a:	e9dd 0110 	ldrd	r0, r1, [sp, #64]	@ 0x40
    4a7e:	2200      	movs	r2, #0
    4a80:	2300      	movs	r3, #0
    4a82:	f005 fb7f 	bl	a184 <__aeabi_dcmpeq>
    4a86:	2800      	cmp	r0, #0
    4a88:	f000 81d2 	beq.w	4e30 <_svfprintf_r+0xae8>
    4a8c:	9b2d      	ldr	r3, [sp, #180]	@ 0xb4
    4a8e:	4a92      	ldr	r2, [pc, #584]	@ (4cd8 <_svfprintf_r+0x990>)
    4a90:	6022      	str	r2, [r4, #0]
    4a92:	3301      	adds	r3, #1
    4a94:	3501      	adds	r5, #1
    4a96:	2201      	movs	r2, #1
    4a98:	2b07      	cmp	r3, #7
    4a9a:	952e      	str	r5, [sp, #184]	@ 0xb8
    4a9c:	932d      	str	r3, [sp, #180]	@ 0xb4
    4a9e:	6062      	str	r2, [r4, #4]
    4aa0:	f300 855c 	bgt.w	555c <_svfprintf_r+0x1214>
    4aa4:	3408      	adds	r4, #8
    4aa6:	9b23      	ldr	r3, [sp, #140]	@ 0x8c
    4aa8:	9a0e      	ldr	r2, [sp, #56]	@ 0x38
    4aaa:	4293      	cmp	r3, r2
    4aac:	f280 82c8 	bge.w	5040 <_svfprintf_r+0xcf8>
    4ab0:	9b14      	ldr	r3, [sp, #80]	@ 0x50
    4ab2:	9a16      	ldr	r2, [sp, #88]	@ 0x58
    4ab4:	441d      	add	r5, r3
    4ab6:	e9c4 2300 	strd	r2, r3, [r4]
    4aba:	9b2d      	ldr	r3, [sp, #180]	@ 0xb4
    4abc:	952e      	str	r5, [sp, #184]	@ 0xb8
    4abe:	3301      	adds	r3, #1
    4ac0:	2b07      	cmp	r3, #7
    4ac2:	932d      	str	r3, [sp, #180]	@ 0xb4
    4ac4:	f300 839e 	bgt.w	5204 <_svfprintf_r+0xebc>
    4ac8:	3408      	adds	r4, #8
    4aca:	9b0e      	ldr	r3, [sp, #56]	@ 0x38
    4acc:	1e5e      	subs	r6, r3, #1
    4ace:	2e00      	cmp	r6, #0
    4ad0:	f77f adb7 	ble.w	4642 <_svfprintf_r+0x2fa>
    4ad4:	2e10      	cmp	r6, #16
    4ad6:	9b2d      	ldr	r3, [sp, #180]	@ 0xb4
    4ad8:	f8df 9200 	ldr.w	r9, [pc, #512]	@ 4cdc <_svfprintf_r+0x994>
    4adc:	f340 80e5 	ble.w	4caa <_svfprintf_r+0x962>
    4ae0:	f8dd 8024 	ldr.w	r8, [sp, #36]	@ 0x24
    4ae4:	2710      	movs	r7, #16
    4ae6:	e004      	b.n	4af2 <_svfprintf_r+0x7aa>
    4ae8:	3408      	adds	r4, #8
    4aea:	3e10      	subs	r6, #16
    4aec:	2e10      	cmp	r6, #16
    4aee:	f340 80dc 	ble.w	4caa <_svfprintf_r+0x962>
    4af2:	3301      	adds	r3, #1
    4af4:	3510      	adds	r5, #16
    4af6:	2b07      	cmp	r3, #7
    4af8:	e9c4 9700 	strd	r9, r7, [r4]
    4afc:	e9cd 352d 	strd	r3, r5, [sp, #180]	@ 0xb4
    4b00:	ddf2      	ble.n	4ae8 <_svfprintf_r+0x7a0>
    4b02:	aa2c      	add	r2, sp, #176	@ 0xb0
    4b04:	4641      	mov	r1, r8
    4b06:	4658      	mov	r0, fp
    4b08:	f001 f9bc 	bl	5e84 <__ssprint_r>
    4b0c:	2800      	cmp	r0, #0
    4b0e:	f040 80bf 	bne.w	4c90 <_svfprintf_r+0x948>
    4b12:	e9dd 352d 	ldrd	r3, r5, [sp, #180]	@ 0xb4
    4b16:	ac2f      	add	r4, sp, #188	@ 0xbc
    4b18:	e7e7      	b.n	4aea <_svfprintf_r+0x7a2>
    4b1a:	9d04      	ldr	r5, [sp, #16]
    4b1c:	2901      	cmp	r1, #1
    4b1e:	f000 8128 	beq.w	4d72 <_svfprintf_r+0xa2a>
    4b22:	2902      	cmp	r1, #2
    4b24:	ae58      	add	r6, sp, #352	@ 0x160
    4b26:	d11f      	bne.n	4b68 <_svfprintf_r+0x820>
    4b28:	9815      	ldr	r0, [sp, #84]	@ 0x54
    4b2a:	f003 010f 	and.w	r1, r3, #15
    4b2e:	091b      	lsrs	r3, r3, #4
    4b30:	5c41      	ldrb	r1, [r0, r1]
    4b32:	f806 1d01 	strb.w	r1, [r6, #-1]!
    4b36:	ea43 7302 	orr.w	r3, r3, r2, lsl #28
    4b3a:	0912      	lsrs	r2, r2, #4
    4b3c:	ea53 0102 	orrs.w	r1, r3, r2
    4b40:	d1f3      	bne.n	4b2a <_svfprintf_r+0x7e2>
    4b42:	ab58      	add	r3, sp, #352	@ 0x160
    4b44:	1b9b      	subs	r3, r3, r6
    4b46:	9504      	str	r5, [sp, #16]
    4b48:	9308      	str	r3, [sp, #32]
    4b4a:	9905      	ldr	r1, [sp, #20]
    4b4c:	9808      	ldr	r0, [sp, #32]
    4b4e:	f89d 2087 	ldrb.w	r2, [sp, #135]	@ 0x87
    4b52:	4281      	cmp	r1, r0
    4b54:	f04f 0300 	mov.w	r3, #0
    4b58:	bfb8      	it	lt
    4b5a:	4601      	movlt	r1, r0
    4b5c:	930a      	str	r3, [sp, #40]	@ 0x28
    4b5e:	9102      	str	r1, [sp, #8]
    4b60:	9312      	str	r3, [sp, #72]	@ 0x48
    4b62:	930f      	str	r3, [sp, #60]	@ 0x3c
    4b64:	930d      	str	r3, [sp, #52]	@ 0x34
    4b66:	e5ce      	b.n	4706 <_svfprintf_r+0x3be>
    4b68:	f003 0107 	and.w	r1, r3, #7
    4b6c:	08db      	lsrs	r3, r3, #3
    4b6e:	ea43 7342 	orr.w	r3, r3, r2, lsl #29
    4b72:	08d2      	lsrs	r2, r2, #3
    4b74:	3130      	adds	r1, #48	@ 0x30
    4b76:	ea53 0702 	orrs.w	r7, r3, r2
    4b7a:	4630      	mov	r0, r6
    4b7c:	f806 1d01 	strb.w	r1, [r6, #-1]!
    4b80:	d1f2      	bne.n	4b68 <_svfprintf_r+0x820>
    4b82:	07ef      	lsls	r7, r5, #31
    4b84:	d5dd      	bpl.n	4b42 <_svfprintf_r+0x7fa>
    4b86:	2930      	cmp	r1, #48	@ 0x30
    4b88:	d0db      	beq.n	4b42 <_svfprintf_r+0x7fa>
    4b8a:	2330      	movs	r3, #48	@ 0x30
    4b8c:	3802      	subs	r0, #2
    4b8e:	f806 3c01 	strb.w	r3, [r6, #-1]
    4b92:	ab58      	add	r3, sp, #352	@ 0x160
    4b94:	1a1b      	subs	r3, r3, r0
    4b96:	9504      	str	r5, [sp, #16]
    4b98:	9308      	str	r3, [sp, #32]
    4b9a:	4606      	mov	r6, r0
    4b9c:	e7d5      	b.n	4b4a <_svfprintf_r+0x802>
    4b9e:	9b07      	ldr	r3, [sp, #28]
    4ba0:	9a02      	ldr	r2, [sp, #8]
    4ba2:	1a9f      	subs	r7, r3, r2
    4ba4:	2f00      	cmp	r7, #0
    4ba6:	f77f ad36 	ble.w	4616 <_svfprintf_r+0x2ce>
    4baa:	2f10      	cmp	r7, #16
    4bac:	9b2d      	ldr	r3, [sp, #180]	@ 0xb4
    4bae:	f8df 912c 	ldr.w	r9, [pc, #300]	@ 4cdc <_svfprintf_r+0x994>
    4bb2:	dd22      	ble.n	4bfa <_svfprintf_r+0x8b2>
    4bb4:	462a      	mov	r2, r5
    4bb6:	f04f 0810 	mov.w	r8, #16
    4bba:	464d      	mov	r5, r9
    4bbc:	f8dd 9024 	ldr.w	r9, [sp, #36]	@ 0x24
    4bc0:	e004      	b.n	4bcc <_svfprintf_r+0x884>
    4bc2:	3f10      	subs	r7, #16
    4bc4:	2f10      	cmp	r7, #16
    4bc6:	f104 0408 	add.w	r4, r4, #8
    4bca:	dd14      	ble.n	4bf6 <_svfprintf_r+0x8ae>
    4bcc:	3301      	adds	r3, #1
    4bce:	3210      	adds	r2, #16
    4bd0:	2b07      	cmp	r3, #7
    4bd2:	e9c4 5800 	strd	r5, r8, [r4]
    4bd6:	e9cd 322d 	strd	r3, r2, [sp, #180]	@ 0xb4
    4bda:	ddf2      	ble.n	4bc2 <_svfprintf_r+0x87a>
    4bdc:	aa2c      	add	r2, sp, #176	@ 0xb0
    4bde:	4649      	mov	r1, r9
    4be0:	4658      	mov	r0, fp
    4be2:	f001 f94f 	bl	5e84 <__ssprint_r>
    4be6:	2800      	cmp	r0, #0
    4be8:	d152      	bne.n	4c90 <_svfprintf_r+0x948>
    4bea:	3f10      	subs	r7, #16
    4bec:	2f10      	cmp	r7, #16
    4bee:	e9dd 322d 	ldrd	r3, r2, [sp, #180]	@ 0xb4
    4bf2:	ac2f      	add	r4, sp, #188	@ 0xbc
    4bf4:	dcea      	bgt.n	4bcc <_svfprintf_r+0x884>
    4bf6:	46a9      	mov	r9, r5
    4bf8:	4615      	mov	r5, r2
    4bfa:	3301      	adds	r3, #1
    4bfc:	443d      	add	r5, r7
    4bfe:	2b07      	cmp	r3, #7
    4c00:	e9cd 352d 	strd	r3, r5, [sp, #180]	@ 0xb4
    4c04:	f8c4 9000 	str.w	r9, [r4]
    4c08:	6067      	str	r7, [r4, #4]
    4c0a:	f300 84db 	bgt.w	55c4 <_svfprintf_r+0x127c>
    4c0e:	9b05      	ldr	r3, [sp, #20]
    4c10:	9a08      	ldr	r2, [sp, #32]
    4c12:	1a9f      	subs	r7, r3, r2
    4c14:	2f00      	cmp	r7, #0
    4c16:	f104 0408 	add.w	r4, r4, #8
    4c1a:	f77f ad02 	ble.w	4622 <_svfprintf_r+0x2da>
    4c1e:	2f10      	cmp	r7, #16
    4c20:	9b2d      	ldr	r3, [sp, #180]	@ 0xb4
    4c22:	f8df 90b8 	ldr.w	r9, [pc, #184]	@ 4cdc <_svfprintf_r+0x994>
    4c26:	dd1f      	ble.n	4c68 <_svfprintf_r+0x920>
    4c28:	462a      	mov	r2, r5
    4c2a:	f04f 0810 	mov.w	r8, #16
    4c2e:	9d09      	ldr	r5, [sp, #36]	@ 0x24
    4c30:	e004      	b.n	4c3c <_svfprintf_r+0x8f4>
    4c32:	3f10      	subs	r7, #16
    4c34:	2f10      	cmp	r7, #16
    4c36:	f104 0408 	add.w	r4, r4, #8
    4c3a:	dd14      	ble.n	4c66 <_svfprintf_r+0x91e>
    4c3c:	3301      	adds	r3, #1
    4c3e:	4927      	ldr	r1, [pc, #156]	@ (4cdc <_svfprintf_r+0x994>)
    4c40:	3210      	adds	r2, #16
    4c42:	2b07      	cmp	r3, #7
    4c44:	e9c4 1800 	strd	r1, r8, [r4]
    4c48:	e9cd 322d 	strd	r3, r2, [sp, #180]	@ 0xb4
    4c4c:	ddf1      	ble.n	4c32 <_svfprintf_r+0x8ea>
    4c4e:	aa2c      	add	r2, sp, #176	@ 0xb0
    4c50:	4629      	mov	r1, r5
    4c52:	4658      	mov	r0, fp
    4c54:	f001 f916 	bl	5e84 <__ssprint_r>
    4c58:	b9d0      	cbnz	r0, 4c90 <_svfprintf_r+0x948>
    4c5a:	3f10      	subs	r7, #16
    4c5c:	2f10      	cmp	r7, #16
    4c5e:	e9dd 322d 	ldrd	r3, r2, [sp, #180]	@ 0xb4
    4c62:	ac2f      	add	r4, sp, #188	@ 0xbc
    4c64:	dcea      	bgt.n	4c3c <_svfprintf_r+0x8f4>
    4c66:	4615      	mov	r5, r2
    4c68:	3301      	adds	r3, #1
    4c6a:	443d      	add	r5, r7
    4c6c:	2b07      	cmp	r3, #7
    4c6e:	e9cd 352d 	strd	r3, r5, [sp, #180]	@ 0xb4
    4c72:	f8c4 9000 	str.w	r9, [r4]
    4c76:	6067      	str	r7, [r4, #4]
    4c78:	f300 818c 	bgt.w	4f94 <_svfprintf_r+0xc4c>
    4c7c:	3408      	adds	r4, #8
    4c7e:	e4d0      	b.n	4622 <_svfprintf_r+0x2da>
    4c80:	9909      	ldr	r1, [sp, #36]	@ 0x24
    4c82:	aa2c      	add	r2, sp, #176	@ 0xb0
    4c84:	4658      	mov	r0, fp
    4c86:	f001 f8fd 	bl	5e84 <__ssprint_r>
    4c8a:	2800      	cmp	r0, #0
    4c8c:	f43f aced 	beq.w	466a <_svfprintf_r+0x322>
    4c90:	9b0a      	ldr	r3, [sp, #40]	@ 0x28
    4c92:	2b00      	cmp	r3, #0
    4c94:	f43f ac60 	beq.w	4558 <_svfprintf_r+0x210>
    4c98:	990a      	ldr	r1, [sp, #40]	@ 0x28
    4c9a:	4658      	mov	r0, fp
    4c9c:	f7fe ff9a 	bl	3bd4 <_free_r>
    4ca0:	9b09      	ldr	r3, [sp, #36]	@ 0x24
    4ca2:	899b      	ldrh	r3, [r3, #12]
    4ca4:	f003 0340 	and.w	r3, r3, #64	@ 0x40
    4ca8:	e45a      	b.n	4560 <_svfprintf_r+0x218>
    4caa:	3301      	adds	r3, #1
    4cac:	4435      	add	r5, r6
    4cae:	2b07      	cmp	r3, #7
    4cb0:	f8c4 9000 	str.w	r9, [r4]
    4cb4:	6066      	str	r6, [r4, #4]
    4cb6:	e9cd 352d 	strd	r3, r5, [sp, #180]	@ 0xb4
    4cba:	f77f acc1 	ble.w	4640 <_svfprintf_r+0x2f8>
    4cbe:	9909      	ldr	r1, [sp, #36]	@ 0x24
    4cc0:	aa2c      	add	r2, sp, #176	@ 0xb0
    4cc2:	4658      	mov	r0, fp
    4cc4:	f001 f8de 	bl	5e84 <__ssprint_r>
    4cc8:	2800      	cmp	r0, #0
    4cca:	d1e1      	bne.n	4c90 <_svfprintf_r+0x948>
    4ccc:	9d2e      	ldr	r5, [sp, #184]	@ 0xb8
    4cce:	ac2f      	add	r4, sp, #188	@ 0xbc
    4cd0:	e4b7      	b.n	4642 <_svfprintf_r+0x2fa>
    4cd2:	bf00      	nop
    4cd4:	0000a2cc 	.word	0x0000a2cc
    4cd8:	0000a2fc 	.word	0x0000a2fc
    4cdc:	0000a464 	.word	0x0000a464
    4ce0:	9b0e      	ldr	r3, [sp, #56]	@ 0x38
    4ce2:	9f2d      	ldr	r7, [sp, #180]	@ 0xb4
    4ce4:	2b01      	cmp	r3, #1
    4ce6:	f105 0501 	add.w	r5, r5, #1
    4cea:	f107 0701 	add.w	r7, r7, #1
    4cee:	f104 0808 	add.w	r8, r4, #8
    4cf2:	f340 810b 	ble.w	4f0c <_svfprintf_r+0xbc4>
    4cf6:	2301      	movs	r3, #1
    4cf8:	2f07      	cmp	r7, #7
    4cfa:	e9cd 752d 	strd	r7, r5, [sp, #180]	@ 0xb4
    4cfe:	6026      	str	r6, [r4, #0]
    4d00:	6063      	str	r3, [r4, #4]
    4d02:	f300 8183 	bgt.w	500c <_svfprintf_r+0xcc4>
    4d06:	9b14      	ldr	r3, [sp, #80]	@ 0x50
    4d08:	9a16      	ldr	r2, [sp, #88]	@ 0x58
    4d0a:	3701      	adds	r7, #1
    4d0c:	441d      	add	r5, r3
    4d0e:	2f07      	cmp	r7, #7
    4d10:	e9c8 2300 	strd	r2, r3, [r8]
    4d14:	e9cd 752d 	strd	r7, r5, [sp, #180]	@ 0xb4
    4d18:	f300 8185 	bgt.w	5026 <_svfprintf_r+0xcde>
    4d1c:	f108 0808 	add.w	r8, r8, #8
    4d20:	9b0e      	ldr	r3, [sp, #56]	@ 0x38
    4d22:	e9dd 0110 	ldrd	r0, r1, [sp, #64]	@ 0x40
    4d26:	1e5c      	subs	r4, r3, #1
    4d28:	2200      	movs	r2, #0
    4d2a:	2300      	movs	r3, #0
    4d2c:	f005 fa2a 	bl	a184 <__aeabi_dcmpeq>
    4d30:	2800      	cmp	r0, #0
    4d32:	f040 8104 	bne.w	4f3e <_svfprintf_r+0xbf6>
    4d36:	3701      	adds	r7, #1
    4d38:	3601      	adds	r6, #1
    4d3a:	4425      	add	r5, r4
    4d3c:	2f07      	cmp	r7, #7
    4d3e:	e9cd 752d 	strd	r7, r5, [sp, #180]	@ 0xb4
    4d42:	f8c8 6000 	str.w	r6, [r8]
    4d46:	f8c8 4004 	str.w	r4, [r8, #4]
    4d4a:	f300 80eb 	bgt.w	4f24 <_svfprintf_r+0xbdc>
    4d4e:	f108 0808 	add.w	r8, r8, #8
    4d52:	9b18      	ldr	r3, [sp, #96]	@ 0x60
    4d54:	f8c8 3004 	str.w	r3, [r8, #4]
    4d58:	3701      	adds	r7, #1
    4d5a:	441d      	add	r5, r3
    4d5c:	2f07      	cmp	r7, #7
    4d5e:	ab26      	add	r3, sp, #152	@ 0x98
    4d60:	e9cd 752d 	strd	r7, r5, [sp, #180]	@ 0xb4
    4d64:	f8c8 3000 	str.w	r3, [r8]
    4d68:	dca9      	bgt.n	4cbe <_svfprintf_r+0x976>
    4d6a:	f108 0408 	add.w	r4, r8, #8
    4d6e:	e468      	b.n	4642 <_svfprintf_r+0x2fa>
    4d70:	9d04      	ldr	r5, [sp, #16]
    4d72:	2b0a      	cmp	r3, #10
    4d74:	f172 0100 	sbcs.w	r1, r2, #0
    4d78:	f080 835e 	bcs.w	5438 <_svfprintf_r+0x10f0>
    4d7c:	3330      	adds	r3, #48	@ 0x30
    4d7e:	f88d 315f 	strb.w	r3, [sp, #351]	@ 0x15f
    4d82:	2301      	movs	r3, #1
    4d84:	9504      	str	r5, [sp, #16]
    4d86:	9308      	str	r3, [sp, #32]
    4d88:	f20d 165f 	addw	r6, sp, #351	@ 0x15f
    4d8c:	e6dd      	b.n	4b4a <_svfprintf_r+0x802>
    4d8e:	9909      	ldr	r1, [sp, #36]	@ 0x24
    4d90:	aa2c      	add	r2, sp, #176	@ 0xb0
    4d92:	4658      	mov	r0, fp
    4d94:	f001 f876 	bl	5e84 <__ssprint_r>
    4d98:	2800      	cmp	r0, #0
    4d9a:	f47f af79 	bne.w	4c90 <_svfprintf_r+0x948>
    4d9e:	9d2e      	ldr	r5, [sp, #184]	@ 0xb8
    4da0:	ac2f      	add	r4, sp, #188	@ 0xbc
    4da2:	e434      	b.n	460e <_svfprintf_r+0x2c6>
    4da4:	9909      	ldr	r1, [sp, #36]	@ 0x24
    4da6:	9313      	str	r3, [sp, #76]	@ 0x4c
    4da8:	aa2c      	add	r2, sp, #176	@ 0xb0
    4daa:	4658      	mov	r0, fp
    4dac:	f001 f86a 	bl	5e84 <__ssprint_r>
    4db0:	2800      	cmp	r0, #0
    4db2:	f47f af6d 	bne.w	4c90 <_svfprintf_r+0x948>
    4db6:	9d2e      	ldr	r5, [sp, #184]	@ 0xb8
    4db8:	9b13      	ldr	r3, [sp, #76]	@ 0x4c
    4dba:	ac2f      	add	r4, sp, #188	@ 0xbc
    4dbc:	e418      	b.n	45f0 <_svfprintf_r+0x2a8>
    4dbe:	4ab4      	ldr	r2, [pc, #720]	@ (5090 <_svfprintf_r+0xd48>)
    4dc0:	9b2d      	ldr	r3, [sp, #180]	@ 0xb4
    4dc2:	9213      	str	r2, [sp, #76]	@ 0x4c
    4dc4:	2e10      	cmp	r6, #16
    4dc6:	dd1f      	ble.n	4e08 <_svfprintf_r+0xac0>
    4dc8:	f8dd 8024 	ldr.w	r8, [sp, #36]	@ 0x24
    4dcc:	2710      	movs	r7, #16
    4dce:	4691      	mov	r9, r2
    4dd0:	e004      	b.n	4ddc <_svfprintf_r+0xa94>
    4dd2:	3e10      	subs	r6, #16
    4dd4:	2e10      	cmp	r6, #16
    4dd6:	f104 0408 	add.w	r4, r4, #8
    4dda:	dd15      	ble.n	4e08 <_svfprintf_r+0xac0>
    4ddc:	3301      	adds	r3, #1
    4dde:	3510      	adds	r5, #16
    4de0:	2b07      	cmp	r3, #7
    4de2:	e9c4 9700 	strd	r9, r7, [r4]
    4de6:	e9cd 352d 	strd	r3, r5, [sp, #180]	@ 0xb4
    4dea:	ddf2      	ble.n	4dd2 <_svfprintf_r+0xa8a>
    4dec:	aa2c      	add	r2, sp, #176	@ 0xb0
    4dee:	4641      	mov	r1, r8
    4df0:	4658      	mov	r0, fp
    4df2:	f001 f847 	bl	5e84 <__ssprint_r>
    4df6:	2800      	cmp	r0, #0
    4df8:	f47f af4a 	bne.w	4c90 <_svfprintf_r+0x948>
    4dfc:	3e10      	subs	r6, #16
    4dfe:	2e10      	cmp	r6, #16
    4e00:	e9dd 352d 	ldrd	r3, r5, [sp, #180]	@ 0xb4
    4e04:	ac2f      	add	r4, sp, #188	@ 0xbc
    4e06:	dce9      	bgt.n	4ddc <_svfprintf_r+0xa94>
    4e08:	3301      	adds	r3, #1
    4e0a:	9a13      	ldr	r2, [sp, #76]	@ 0x4c
    4e0c:	4435      	add	r5, r6
    4e0e:	2b07      	cmp	r3, #7
    4e10:	e9c4 2600 	strd	r2, r6, [r4]
    4e14:	e9cd 352d 	strd	r3, r5, [sp, #180]	@ 0xb4
    4e18:	f77f ac1c 	ble.w	4654 <_svfprintf_r+0x30c>
    4e1c:	9909      	ldr	r1, [sp, #36]	@ 0x24
    4e1e:	aa2c      	add	r2, sp, #176	@ 0xb0
    4e20:	4658      	mov	r0, fp
    4e22:	f001 f82f 	bl	5e84 <__ssprint_r>
    4e26:	2800      	cmp	r0, #0
    4e28:	f47f af32 	bne.w	4c90 <_svfprintf_r+0x948>
    4e2c:	9d2e      	ldr	r5, [sp, #184]	@ 0xb8
    4e2e:	e411      	b.n	4654 <_svfprintf_r+0x30c>
    4e30:	9923      	ldr	r1, [sp, #140]	@ 0x8c
    4e32:	2900      	cmp	r1, #0
    4e34:	f340 8351 	ble.w	54da <_svfprintf_r+0x1192>
    4e38:	e9dd 320d 	ldrd	r3, r2, [sp, #52]	@ 0x34
    4e3c:	4293      	cmp	r3, r2
    4e3e:	bfa8      	it	ge
    4e40:	4613      	movge	r3, r2
    4e42:	2b00      	cmp	r3, #0
    4e44:	4698      	mov	r8, r3
    4e46:	dd0a      	ble.n	4e5e <_svfprintf_r+0xb16>
    4e48:	441d      	add	r5, r3
    4e4a:	e9c4 6300 	strd	r6, r3, [r4]
    4e4e:	9b2d      	ldr	r3, [sp, #180]	@ 0xb4
    4e50:	952e      	str	r5, [sp, #184]	@ 0xb8
    4e52:	3301      	adds	r3, #1
    4e54:	2b07      	cmp	r3, #7
    4e56:	932d      	str	r3, [sp, #180]	@ 0xb4
    4e58:	f300 8661 	bgt.w	5b1e <_svfprintf_r+0x17d6>
    4e5c:	3408      	adds	r4, #8
    4e5e:	9f0d      	ldr	r7, [sp, #52]	@ 0x34
    4e60:	f1b8 0f00 	cmp.w	r8, #0
    4e64:	bfa8      	it	ge
    4e66:	eba7 0708 	subge.w	r7, r7, r8
    4e6a:	2f00      	cmp	r7, #0
    4e6c:	f300 81f5 	bgt.w	525a <_svfprintf_r+0xf12>
    4e70:	9b0d      	ldr	r3, [sp, #52]	@ 0x34
    4e72:	4433      	add	r3, r6
    4e74:	9305      	str	r3, [sp, #20]
    4e76:	9b04      	ldr	r3, [sp, #16]
    4e78:	055f      	lsls	r7, r3, #21
    4e7a:	f100 8215 	bmi.w	52a8 <_svfprintf_r+0xf60>
    4e7e:	9b23      	ldr	r3, [sp, #140]	@ 0x8c
    4e80:	9a0e      	ldr	r2, [sp, #56]	@ 0x38
    4e82:	4293      	cmp	r3, r2
    4e84:	f2c0 82a0 	blt.w	53c8 <_svfprintf_r+0x1080>
    4e88:	9a04      	ldr	r2, [sp, #16]
    4e8a:	07d0      	lsls	r0, r2, #31
    4e8c:	f100 829c 	bmi.w	53c8 <_svfprintf_r+0x1080>
    4e90:	9a0e      	ldr	r2, [sp, #56]	@ 0x38
    4e92:	18b7      	adds	r7, r6, r2
    4e94:	1ad6      	subs	r6, r2, r3
    4e96:	9b05      	ldr	r3, [sp, #20]
    4e98:	1aff      	subs	r7, r7, r3
    4e9a:	42b7      	cmp	r7, r6
    4e9c:	bfa8      	it	ge
    4e9e:	4637      	movge	r7, r6
    4ea0:	2f00      	cmp	r7, #0
    4ea2:	dd0a      	ble.n	4eba <_svfprintf_r+0xb72>
    4ea4:	6023      	str	r3, [r4, #0]
    4ea6:	9b2d      	ldr	r3, [sp, #180]	@ 0xb4
    4ea8:	6067      	str	r7, [r4, #4]
    4eaa:	3301      	adds	r3, #1
    4eac:	443d      	add	r5, r7
    4eae:	2b07      	cmp	r3, #7
    4eb0:	952e      	str	r5, [sp, #184]	@ 0xb8
    4eb2:	932d      	str	r3, [sp, #180]	@ 0xb4
    4eb4:	f300 8665 	bgt.w	5b82 <_svfprintf_r+0x183a>
    4eb8:	3408      	adds	r4, #8
    4eba:	2f00      	cmp	r7, #0
    4ebc:	bfa8      	it	ge
    4ebe:	1bf6      	subge	r6, r6, r7
    4ec0:	2e00      	cmp	r6, #0
    4ec2:	f77f abbe 	ble.w	4642 <_svfprintf_r+0x2fa>
    4ec6:	2e10      	cmp	r6, #16
    4ec8:	9b2d      	ldr	r3, [sp, #180]	@ 0xb4
    4eca:	f8df 91c8 	ldr.w	r9, [pc, #456]	@ 5094 <_svfprintf_r+0xd4c>
    4ece:	f77f aeec 	ble.w	4caa <_svfprintf_r+0x962>
    4ed2:	f8dd 8024 	ldr.w	r8, [sp, #36]	@ 0x24
    4ed6:	2710      	movs	r7, #16
    4ed8:	e004      	b.n	4ee4 <_svfprintf_r+0xb9c>
    4eda:	3408      	adds	r4, #8
    4edc:	3e10      	subs	r6, #16
    4ede:	2e10      	cmp	r6, #16
    4ee0:	f77f aee3 	ble.w	4caa <_svfprintf_r+0x962>
    4ee4:	3301      	adds	r3, #1
    4ee6:	3510      	adds	r5, #16
    4ee8:	2b07      	cmp	r3, #7
    4eea:	e9c4 9700 	strd	r9, r7, [r4]
    4eee:	e9cd 352d 	strd	r3, r5, [sp, #180]	@ 0xb4
    4ef2:	ddf2      	ble.n	4eda <_svfprintf_r+0xb92>
    4ef4:	aa2c      	add	r2, sp, #176	@ 0xb0
    4ef6:	4641      	mov	r1, r8
    4ef8:	4658      	mov	r0, fp
    4efa:	f000 ffc3 	bl	5e84 <__ssprint_r>
    4efe:	2800      	cmp	r0, #0
    4f00:	f47f aec6 	bne.w	4c90 <_svfprintf_r+0x948>
    4f04:	e9dd 352d 	ldrd	r3, r5, [sp, #180]	@ 0xb4
    4f08:	ac2f      	add	r4, sp, #188	@ 0xbc
    4f0a:	e7e7      	b.n	4edc <_svfprintf_r+0xb94>
    4f0c:	9b04      	ldr	r3, [sp, #16]
    4f0e:	07d9      	lsls	r1, r3, #31
    4f10:	f53f aef1 	bmi.w	4cf6 <_svfprintf_r+0x9ae>
    4f14:	2301      	movs	r3, #1
    4f16:	2f07      	cmp	r7, #7
    4f18:	e9cd 752d 	strd	r7, r5, [sp, #180]	@ 0xb4
    4f1c:	6026      	str	r6, [r4, #0]
    4f1e:	6063      	str	r3, [r4, #4]
    4f20:	f77f af17 	ble.w	4d52 <_svfprintf_r+0xa0a>
    4f24:	9909      	ldr	r1, [sp, #36]	@ 0x24
    4f26:	aa2c      	add	r2, sp, #176	@ 0xb0
    4f28:	4658      	mov	r0, fp
    4f2a:	f000 ffab 	bl	5e84 <__ssprint_r>
    4f2e:	2800      	cmp	r0, #0
    4f30:	f47f aeae 	bne.w	4c90 <_svfprintf_r+0x948>
    4f34:	e9dd 752d 	ldrd	r7, r5, [sp, #180]	@ 0xb4
    4f38:	f10d 08bc 	add.w	r8, sp, #188	@ 0xbc
    4f3c:	e709      	b.n	4d52 <_svfprintf_r+0xa0a>
    4f3e:	9b0e      	ldr	r3, [sp, #56]	@ 0x38
    4f40:	2b01      	cmp	r3, #1
    4f42:	f77f af06 	ble.w	4d52 <_svfprintf_r+0xa0a>
    4f46:	2b11      	cmp	r3, #17
    4f48:	f8df 9148 	ldr.w	r9, [pc, #328]	@ 5094 <_svfprintf_r+0xd4c>
    4f4c:	f340 835c 	ble.w	5608 <_svfprintf_r+0x12c0>
    4f50:	f8cd a014 	str.w	sl, [sp, #20]
    4f54:	2610      	movs	r6, #16
    4f56:	46ca      	mov	sl, r9
    4f58:	f8dd 9024 	ldr.w	r9, [sp, #36]	@ 0x24
    4f5c:	e005      	b.n	4f6a <_svfprintf_r+0xc22>
    4f5e:	f108 0808 	add.w	r8, r8, #8
    4f62:	3c10      	subs	r4, #16
    4f64:	2c10      	cmp	r4, #16
    4f66:	f340 834c 	ble.w	5602 <_svfprintf_r+0x12ba>
    4f6a:	3701      	adds	r7, #1
    4f6c:	3510      	adds	r5, #16
    4f6e:	2f07      	cmp	r7, #7
    4f70:	e9c8 a600 	strd	sl, r6, [r8]
    4f74:	e9cd 752d 	strd	r7, r5, [sp, #180]	@ 0xb4
    4f78:	ddf1      	ble.n	4f5e <_svfprintf_r+0xc16>
    4f7a:	aa2c      	add	r2, sp, #176	@ 0xb0
    4f7c:	4649      	mov	r1, r9
    4f7e:	4658      	mov	r0, fp
    4f80:	f000 ff80 	bl	5e84 <__ssprint_r>
    4f84:	2800      	cmp	r0, #0
    4f86:	f47f ae83 	bne.w	4c90 <_svfprintf_r+0x948>
    4f8a:	e9dd 752d 	ldrd	r7, r5, [sp, #180]	@ 0xb4
    4f8e:	f10d 08bc 	add.w	r8, sp, #188	@ 0xbc
    4f92:	e7e6      	b.n	4f62 <_svfprintf_r+0xc1a>
    4f94:	9909      	ldr	r1, [sp, #36]	@ 0x24
    4f96:	aa2c      	add	r2, sp, #176	@ 0xb0
    4f98:	4658      	mov	r0, fp
    4f9a:	f000 ff73 	bl	5e84 <__ssprint_r>
    4f9e:	2800      	cmp	r0, #0
    4fa0:	f47f ae76 	bne.w	4c90 <_svfprintf_r+0x948>
    4fa4:	9d2e      	ldr	r5, [sp, #184]	@ 0xb8
    4fa6:	ac2f      	add	r4, sp, #188	@ 0xbc
    4fa8:	f7ff bb3b 	b.w	4622 <_svfprintf_r+0x2da>
    4fac:	990b      	ldr	r1, [sp, #44]	@ 0x2c
    4fae:	f015 0010 	ands.w	r0, r5, #16
    4fb2:	f851 3b04 	ldr.w	r3, [r1], #4
    4fb6:	d10c      	bne.n	4fd2 <_svfprintf_r+0xc8a>
    4fb8:	f015 0640 	ands.w	r6, r5, #64	@ 0x40
    4fbc:	d004      	beq.n	4fc8 <_svfprintf_r+0xc80>
    4fbe:	910b      	str	r1, [sp, #44]	@ 0x2c
    4fc0:	b29b      	uxth	r3, r3
    4fc2:	4602      	mov	r2, r0
    4fc4:	2101      	movs	r1, #1
    4fc6:	e489      	b.n	48dc <_svfprintf_r+0x594>
    4fc8:	f415 7200 	ands.w	r2, r5, #512	@ 0x200
    4fcc:	bf1c      	itt	ne
    4fce:	b2db      	uxtbne	r3, r3
    4fd0:	4632      	movne	r2, r6
    4fd2:	910b      	str	r1, [sp, #44]	@ 0x2c
    4fd4:	2101      	movs	r1, #1
    4fd6:	e481      	b.n	48dc <_svfprintf_r+0x594>
    4fd8:	9804      	ldr	r0, [sp, #16]
    4fda:	990b      	ldr	r1, [sp, #44]	@ 0x2c
    4fdc:	f010 0010 	ands.w	r0, r0, #16
    4fe0:	f851 3b04 	ldr.w	r3, [r1], #4
    4fe4:	d13d      	bne.n	5062 <_svfprintf_r+0xd1a>
    4fe6:	9a04      	ldr	r2, [sp, #16]
    4fe8:	f012 0540 	ands.w	r5, r2, #64	@ 0x40
    4fec:	d034      	beq.n	5058 <_svfprintf_r+0xd10>
    4fee:	b29b      	uxth	r3, r3
    4ff0:	4602      	mov	r2, r0
    4ff2:	910b      	str	r1, [sp, #44]	@ 0x2c
    4ff4:	e4a4      	b.n	4940 <_svfprintf_r+0x5f8>
    4ff6:	425b      	negs	r3, r3
    4ff8:	9d04      	ldr	r5, [sp, #16]
    4ffa:	eb62 0242 	sbc.w	r2, r2, r2, lsl #1
    4ffe:	202d      	movs	r0, #45	@ 0x2d
    5000:	2101      	movs	r1, #1
    5002:	e46c      	b.n	48de <_svfprintf_r+0x596>
    5004:	9b05      	ldr	r3, [sp, #20]
    5006:	9308      	str	r3, [sp, #32]
    5008:	ae58      	add	r6, sp, #352	@ 0x160
    500a:	e59e      	b.n	4b4a <_svfprintf_r+0x802>
    500c:	9909      	ldr	r1, [sp, #36]	@ 0x24
    500e:	aa2c      	add	r2, sp, #176	@ 0xb0
    5010:	4658      	mov	r0, fp
    5012:	f000 ff37 	bl	5e84 <__ssprint_r>
    5016:	2800      	cmp	r0, #0
    5018:	f47f ae3a 	bne.w	4c90 <_svfprintf_r+0x948>
    501c:	e9dd 752d 	ldrd	r7, r5, [sp, #180]	@ 0xb4
    5020:	f10d 08bc 	add.w	r8, sp, #188	@ 0xbc
    5024:	e66f      	b.n	4d06 <_svfprintf_r+0x9be>
    5026:	9909      	ldr	r1, [sp, #36]	@ 0x24
    5028:	aa2c      	add	r2, sp, #176	@ 0xb0
    502a:	4658      	mov	r0, fp
    502c:	f000 ff2a 	bl	5e84 <__ssprint_r>
    5030:	2800      	cmp	r0, #0
    5032:	f47f ae2d 	bne.w	4c90 <_svfprintf_r+0x948>
    5036:	e9dd 752d 	ldrd	r7, r5, [sp, #180]	@ 0xb4
    503a:	f10d 08bc 	add.w	r8, sp, #188	@ 0xbc
    503e:	e66f      	b.n	4d20 <_svfprintf_r+0x9d8>
    5040:	9b04      	ldr	r3, [sp, #16]
    5042:	07db      	lsls	r3, r3, #31
    5044:	f57f aafd 	bpl.w	4642 <_svfprintf_r+0x2fa>
    5048:	e532      	b.n	4ab0 <_svfprintf_r+0x768>
    504a:	930b      	str	r3, [sp, #44]	@ 0x2c
    504c:	f89a 3000 	ldrb.w	r3, [sl]
    5050:	f7ff b9d2 	b.w	43f8 <_svfprintf_r+0xb0>
    5054:	ae58      	add	r6, sp, #352	@ 0x160
    5056:	e578      	b.n	4b4a <_svfprintf_r+0x802>
    5058:	9a04      	ldr	r2, [sp, #16]
    505a:	f412 7200 	ands.w	r2, r2, #512	@ 0x200
    505e:	f040 8409 	bne.w	5874 <_svfprintf_r+0x152c>
    5062:	910b      	str	r1, [sp, #44]	@ 0x2c
    5064:	e46c      	b.n	4940 <_svfprintf_r+0x5f8>
    5066:	920b      	str	r2, [sp, #44]	@ 0x2c
    5068:	17da      	asrs	r2, r3, #31
    506a:	4611      	mov	r1, r2
    506c:	f7ff bbf6 	b.w	485c <_svfprintf_r+0x514>
    5070:	9a17      	ldr	r2, [sp, #92]	@ 0x5c
    5072:	f89a 3000 	ldrb.w	r3, [sl]
    5076:	2a00      	cmp	r2, #0
    5078:	f43f a9be 	beq.w	43f8 <_svfprintf_r+0xb0>
    507c:	7812      	ldrb	r2, [r2, #0]
    507e:	2a00      	cmp	r2, #0
    5080:	f43f a9ba 	beq.w	43f8 <_svfprintf_r+0xb0>
    5084:	9a04      	ldr	r2, [sp, #16]
    5086:	f442 6280 	orr.w	r2, r2, #1024	@ 0x400
    508a:	9204      	str	r2, [sp, #16]
    508c:	f7ff b9b4 	b.w	43f8 <_svfprintf_r+0xb0>
    5090:	0000a474 	.word	0x0000a474
    5094:	0000a464 	.word	0x0000a464
    5098:	9b04      	ldr	r3, [sp, #16]
    509a:	06d8      	lsls	r0, r3, #27
    509c:	f100 82ab 	bmi.w	55f6 <_svfprintf_r+0x12ae>
    50a0:	9b04      	ldr	r3, [sp, #16]
    50a2:	0659      	lsls	r1, r3, #25
    50a4:	f100 83e0 	bmi.w	5868 <_svfprintf_r+0x1520>
    50a8:	9b04      	ldr	r3, [sp, #16]
    50aa:	059a      	lsls	r2, r3, #22
    50ac:	f140 82a3 	bpl.w	55f6 <_svfprintf_r+0x12ae>
    50b0:	9b0b      	ldr	r3, [sp, #44]	@ 0x2c
    50b2:	9a06      	ldr	r2, [sp, #24]
    50b4:	681b      	ldr	r3, [r3, #0]
    50b6:	701a      	strb	r2, [r3, #0]
    50b8:	e464      	b.n	4984 <_svfprintf_r+0x63c>
    50ba:	e9dd 0110 	ldrd	r0, r1, [sp, #64]	@ 0x40
    50be:	4602      	mov	r2, r0
    50c0:	460b      	mov	r3, r1
    50c2:	f005 f891 	bl	a1e8 <__aeabi_dcmpun>
    50c6:	2800      	cmp	r0, #0
    50c8:	f040 861e 	bne.w	5d08 <_svfprintf_r+0x19c0>
    50cc:	9b0c      	ldr	r3, [sp, #48]	@ 0x30
    50ce:	2b61      	cmp	r3, #97	@ 0x61
    50d0:	f000 8531 	beq.w	5b36 <_svfprintf_r+0x17ee>
    50d4:	2b41      	cmp	r3, #65	@ 0x41
    50d6:	f000 854e 	beq.w	5b76 <_svfprintf_r+0x182e>
    50da:	9b05      	ldr	r3, [sp, #20]
    50dc:	3301      	adds	r3, #1
    50de:	f000 8402 	beq.w	58e6 <_svfprintf_r+0x159e>
    50e2:	9b0c      	ldr	r3, [sp, #48]	@ 0x30
    50e4:	f023 0320 	bic.w	r3, r3, #32
    50e8:	2b47      	cmp	r3, #71	@ 0x47
    50ea:	f000 85e1 	beq.w	5cb0 <_svfprintf_r+0x1968>
    50ee:	900a      	str	r0, [sp, #40]	@ 0x28
    50f0:	e9dd 0110 	ldrd	r0, r1, [sp, #64]	@ 0x40
    50f4:	9a04      	ldr	r2, [sp, #16]
    50f6:	2900      	cmp	r1, #0
    50f8:	f442 7980 	orr.w	r9, r2, #256	@ 0x100
    50fc:	f2c0 84f9 	blt.w	5af2 <_svfprintf_r+0x17aa>
    5100:	ed9d 7b10 	vldr	d7, [sp, #64]	@ 0x40
    5104:	ed8d 7b1e 	vstr	d7, [sp, #120]	@ 0x78
    5108:	2300      	movs	r3, #0
    510a:	9313      	str	r3, [sp, #76]	@ 0x4c
    510c:	9b0c      	ldr	r3, [sp, #48]	@ 0x30
    510e:	3b41      	subs	r3, #65	@ 0x41
    5110:	2b25      	cmp	r3, #37	@ 0x25
    5112:	f200 8325 	bhi.w	5760 <_svfprintf_r+0x1418>
    5116:	e8df f013 	tbh	[pc, r3, lsl #1]
    511a:	0429      	.short	0x0429
    511c:	03230323 	.word	0x03230323
    5120:	03ea0323 	.word	0x03ea0323
    5124:	032304b5 	.word	0x032304b5
    5128:	03230323 	.word	0x03230323
    512c:	03230323 	.word	0x03230323
    5130:	03230323 	.word	0x03230323
    5134:	03230323 	.word	0x03230323
    5138:	03230323 	.word	0x03230323
    513c:	03230323 	.word	0x03230323
    5140:	03230323 	.word	0x03230323
    5144:	03230323 	.word	0x03230323
    5148:	03230323 	.word	0x03230323
    514c:	03230323 	.word	0x03230323
    5150:	03230323 	.word	0x03230323
    5154:	03230323 	.word	0x03230323
    5158:	04290323 	.word	0x04290323
    515c:	03230323 	.word	0x03230323
    5160:	03ea0323 	.word	0x03ea0323
    5164:	04b5      	.short	0x04b5
    5166:	9d04      	ldr	r5, [sp, #16]
    5168:	930c      	str	r3, [sp, #48]	@ 0x30
    516a:	f7ff bba9 	b.w	48c0 <_svfprintf_r+0x578>
    516e:	930c      	str	r3, [sp, #48]	@ 0x30
    5170:	4bad      	ldr	r3, [pc, #692]	@ (5428 <_svfprintf_r+0x10e0>)
    5172:	9315      	str	r3, [sp, #84]	@ 0x54
    5174:	9b04      	ldr	r3, [sp, #16]
    5176:	f013 0220 	ands.w	r2, r3, #32
    517a:	f000 8133 	beq.w	53e4 <_svfprintf_r+0x109c>
    517e:	9b0b      	ldr	r3, [sp, #44]	@ 0x2c
    5180:	3307      	adds	r3, #7
    5182:	f023 0307 	bic.w	r3, r3, #7
    5186:	4619      	mov	r1, r3
    5188:	685a      	ldr	r2, [r3, #4]
    518a:	f851 3b08 	ldr.w	r3, [r1], #8
    518e:	910b      	str	r1, [sp, #44]	@ 0x2c
    5190:	9804      	ldr	r0, [sp, #16]
    5192:	07c1      	lsls	r1, r0, #31
    5194:	d50b      	bpl.n	51ae <_svfprintf_r+0xe66>
    5196:	ea53 0102 	orrs.w	r1, r3, r2
    519a:	d008      	beq.n	51ae <_svfprintf_r+0xe66>
    519c:	990c      	ldr	r1, [sp, #48]	@ 0x30
    519e:	f88d 1089 	strb.w	r1, [sp, #137]	@ 0x89
    51a2:	f040 0102 	orr.w	r1, r0, #2
    51a6:	9104      	str	r1, [sp, #16]
    51a8:	2130      	movs	r1, #48	@ 0x30
    51aa:	f88d 1088 	strb.w	r1, [sp, #136]	@ 0x88
    51ae:	9904      	ldr	r1, [sp, #16]
    51b0:	f421 6580 	bic.w	r5, r1, #1024	@ 0x400
    51b4:	2102      	movs	r1, #2
    51b6:	f7ff bb91 	b.w	48dc <_svfprintf_r+0x594>
    51ba:	930c      	str	r3, [sp, #48]	@ 0x30
    51bc:	f7ff bbb2 	b.w	4924 <_svfprintf_r+0x5dc>
    51c0:	930c      	str	r3, [sp, #48]	@ 0x30
    51c2:	4b9a      	ldr	r3, [pc, #616]	@ (542c <_svfprintf_r+0x10e4>)
    51c4:	9315      	str	r3, [sp, #84]	@ 0x54
    51c6:	e7d5      	b.n	5174 <_svfprintf_r+0xe2c>
    51c8:	9b0b      	ldr	r3, [sp, #44]	@ 0x2c
    51ca:	681b      	ldr	r3, [r3, #0]
    51cc:	f88d 30fc 	strb.w	r3, [sp, #252]	@ 0xfc
    51d0:	2301      	movs	r3, #1
    51d2:	9302      	str	r3, [sp, #8]
    51d4:	9308      	str	r3, [sp, #32]
    51d6:	ae3f      	add	r6, sp, #252	@ 0xfc
    51d8:	f7ff baf5 	b.w	47c6 <_svfprintf_r+0x47e>
    51dc:	9b04      	ldr	r3, [sp, #16]
    51de:	f043 0320 	orr.w	r3, r3, #32
    51e2:	9304      	str	r3, [sp, #16]
    51e4:	f10a 0a01 	add.w	sl, sl, #1
    51e8:	f89a 3000 	ldrb.w	r3, [sl]
    51ec:	f7ff b904 	b.w	43f8 <_svfprintf_r+0xb0>
    51f0:	9b04      	ldr	r3, [sp, #16]
    51f2:	f443 7300 	orr.w	r3, r3, #512	@ 0x200
    51f6:	9304      	str	r3, [sp, #16]
    51f8:	f10a 0a01 	add.w	sl, sl, #1
    51fc:	f89a 3000 	ldrb.w	r3, [sl]
    5200:	f7ff b8fa 	b.w	43f8 <_svfprintf_r+0xb0>
    5204:	9909      	ldr	r1, [sp, #36]	@ 0x24
    5206:	aa2c      	add	r2, sp, #176	@ 0xb0
    5208:	4658      	mov	r0, fp
    520a:	f000 fe3b 	bl	5e84 <__ssprint_r>
    520e:	2800      	cmp	r0, #0
    5210:	f47f ad3e 	bne.w	4c90 <_svfprintf_r+0x948>
    5214:	9d2e      	ldr	r5, [sp, #184]	@ 0xb8
    5216:	ac2f      	add	r4, sp, #188	@ 0xbc
    5218:	e457      	b.n	4aca <_svfprintf_r+0x782>
    521a:	9b05      	ldr	r3, [sp, #20]
    521c:	960a      	str	r6, [sp, #40]	@ 0x28
    521e:	2b06      	cmp	r3, #6
    5220:	4631      	mov	r1, r6
    5222:	bf28      	it	cs
    5224:	2306      	movcs	r3, #6
    5226:	9605      	str	r6, [sp, #20]
    5228:	4632      	mov	r2, r6
    522a:	9302      	str	r3, [sp, #8]
    522c:	4e80      	ldr	r6, [pc, #512]	@ (5430 <_svfprintf_r+0x10e8>)
    522e:	970b      	str	r7, [sp, #44]	@ 0x2c
    5230:	9308      	str	r3, [sp, #32]
    5232:	9112      	str	r1, [sp, #72]	@ 0x48
    5234:	910f      	str	r1, [sp, #60]	@ 0x3c
    5236:	910d      	str	r1, [sp, #52]	@ 0x34
    5238:	f7ff ba65 	b.w	4706 <_svfprintf_r+0x3be>
    523c:	2140      	movs	r1, #64	@ 0x40
    523e:	4658      	mov	r0, fp
    5240:	f7fe fdc4 	bl	3dcc <_malloc_r>
    5244:	9b09      	ldr	r3, [sp, #36]	@ 0x24
    5246:	6018      	str	r0, [r3, #0]
    5248:	6118      	str	r0, [r3, #16]
    524a:	2800      	cmp	r0, #0
    524c:	f000 8603 	beq.w	5e56 <_svfprintf_r+0x1b0e>
    5250:	9a09      	ldr	r2, [sp, #36]	@ 0x24
    5252:	2340      	movs	r3, #64	@ 0x40
    5254:	6153      	str	r3, [r2, #20]
    5256:	f7ff b893 	b.w	4380 <_svfprintf_r+0x38>
    525a:	2f10      	cmp	r7, #16
    525c:	9b2d      	ldr	r3, [sp, #180]	@ 0xb4
    525e:	f8df 91d4 	ldr.w	r9, [pc, #468]	@ 5434 <_svfprintf_r+0x10ec>
    5262:	f340 820b 	ble.w	567c <_svfprintf_r+0x1334>
    5266:	4649      	mov	r1, r9
    5268:	462a      	mov	r2, r5
    526a:	46b1      	mov	r9, r6
    526c:	9d09      	ldr	r5, [sp, #36]	@ 0x24
    526e:	f04f 0810 	mov.w	r8, #16
    5272:	460e      	mov	r6, r1
    5274:	e004      	b.n	5280 <_svfprintf_r+0xf38>
    5276:	3408      	adds	r4, #8
    5278:	3f10      	subs	r7, #16
    527a:	2f10      	cmp	r7, #16
    527c:	f340 81fa 	ble.w	5674 <_svfprintf_r+0x132c>
    5280:	3301      	adds	r3, #1
    5282:	3210      	adds	r2, #16
    5284:	2b07      	cmp	r3, #7
    5286:	e9c4 6800 	strd	r6, r8, [r4]
    528a:	e9cd 322d 	strd	r3, r2, [sp, #180]	@ 0xb4
    528e:	ddf2      	ble.n	5276 <_svfprintf_r+0xf2e>
    5290:	aa2c      	add	r2, sp, #176	@ 0xb0
    5292:	4629      	mov	r1, r5
    5294:	4658      	mov	r0, fp
    5296:	f000 fdf5 	bl	5e84 <__ssprint_r>
    529a:	2800      	cmp	r0, #0
    529c:	f47f acf8 	bne.w	4c90 <_svfprintf_r+0x948>
    52a0:	e9dd 322d 	ldrd	r3, r2, [sp, #180]	@ 0xb4
    52a4:	ac2f      	add	r4, sp, #188	@ 0xbc
    52a6:	e7e7      	b.n	5278 <_svfprintf_r+0xf30>
    52a8:	9b0e      	ldr	r3, [sp, #56]	@ 0x38
    52aa:	f8cd a030 	str.w	sl, [sp, #48]	@ 0x30
    52ae:	eb06 0903 	add.w	r9, r6, r3
    52b2:	9b0f      	ldr	r3, [sp, #60]	@ 0x3c
    52b4:	f8dd a05c 	ldr.w	sl, [sp, #92]	@ 0x5c
    52b8:	f8dd 8048 	ldr.w	r8, [sp, #72]	@ 0x48
    52bc:	960d      	str	r6, [sp, #52]	@ 0x34
    52be:	2b00      	cmp	r3, #0
    52c0:	4622      	mov	r2, r4
    52c2:	4629      	mov	r1, r5
    52c4:	9c05      	ldr	r4, [sp, #20]
    52c6:	9d09      	ldr	r5, [sp, #36]	@ 0x24
    52c8:	f8cd 9014 	str.w	r9, [sp, #20]
    52cc:	f8dd 9070 	ldr.w	r9, [sp, #112]	@ 0x70
    52d0:	dd31      	ble.n	5336 <_svfprintf_r+0xfee>
    52d2:	f1b8 0f00 	cmp.w	r8, #0
    52d6:	f340 813b 	ble.w	5550 <_svfprintf_r+0x1208>
    52da:	f108 38ff 	add.w	r8, r8, #4294967295
    52de:	982d      	ldr	r0, [sp, #180]	@ 0xb4
    52e0:	9b19      	ldr	r3, [sp, #100]	@ 0x64
    52e2:	3001      	adds	r0, #1
    52e4:	4449      	add	r1, r9
    52e6:	2807      	cmp	r0, #7
    52e8:	e9c2 3900 	strd	r3, r9, [r2]
    52ec:	912e      	str	r1, [sp, #184]	@ 0xb8
    52ee:	902d      	str	r0, [sp, #180]	@ 0xb4
    52f0:	f300 8087 	bgt.w	5402 <_svfprintf_r+0x10ba>
    52f4:	3208      	adds	r2, #8
    52f6:	9b05      	ldr	r3, [sp, #20]
    52f8:	f89a 0000 	ldrb.w	r0, [sl]
    52fc:	1b1f      	subs	r7, r3, r4
    52fe:	4287      	cmp	r7, r0
    5300:	bfa8      	it	ge
    5302:	4607      	movge	r7, r0
    5304:	2f00      	cmp	r7, #0
    5306:	dd0c      	ble.n	5322 <_svfprintf_r+0xfda>
    5308:	982d      	ldr	r0, [sp, #180]	@ 0xb4
    530a:	3001      	adds	r0, #1
    530c:	4439      	add	r1, r7
    530e:	2807      	cmp	r0, #7
    5310:	e9c2 4700 	strd	r4, r7, [r2]
    5314:	912e      	str	r1, [sp, #184]	@ 0xb8
    5316:	902d      	str	r0, [sp, #180]	@ 0xb4
    5318:	f300 8160 	bgt.w	55dc <_svfprintf_r+0x1294>
    531c:	f89a 0000 	ldrb.w	r0, [sl]
    5320:	3208      	adds	r2, #8
    5322:	2f00      	cmp	r7, #0
    5324:	bfac      	ite	ge
    5326:	1bc6      	subge	r6, r0, r7
    5328:	4606      	movlt	r6, r0
    532a:	2e00      	cmp	r6, #0
    532c:	dc16      	bgt.n	535c <_svfprintf_r+0x1014>
    532e:	4404      	add	r4, r0
    5330:	9b0f      	ldr	r3, [sp, #60]	@ 0x3c
    5332:	2b00      	cmp	r3, #0
    5334:	dccd      	bgt.n	52d2 <_svfprintf_r+0xf8a>
    5336:	f1b8 0f00 	cmp.w	r8, #0
    533a:	dcce      	bgt.n	52da <_svfprintf_r+0xf92>
    533c:	e9dd 630d 	ldrd	r6, r3, [sp, #52]	@ 0x34
    5340:	4620      	mov	r0, r4
    5342:	18f3      	adds	r3, r6, r3
    5344:	4298      	cmp	r0, r3
    5346:	4614      	mov	r4, r2
    5348:	4602      	mov	r2, r0
    534a:	bf28      	it	cs
    534c:	461a      	movcs	r2, r3
    534e:	f8cd a05c 	str.w	sl, [sp, #92]	@ 0x5c
    5352:	460d      	mov	r5, r1
    5354:	f8dd a030 	ldr.w	sl, [sp, #48]	@ 0x30
    5358:	9205      	str	r2, [sp, #20]
    535a:	e590      	b.n	4e7e <_svfprintf_r+0xb36>
    535c:	2e10      	cmp	r6, #16
    535e:	982d      	ldr	r0, [sp, #180]	@ 0xb4
    5360:	4b34      	ldr	r3, [pc, #208]	@ (5434 <_svfprintf_r+0x10ec>)
    5362:	dd23      	ble.n	53ac <_svfprintf_r+0x1064>
    5364:	9408      	str	r4, [sp, #32]
    5366:	2710      	movs	r7, #16
    5368:	4634      	mov	r4, r6
    536a:	461e      	mov	r6, r3
    536c:	e004      	b.n	5378 <_svfprintf_r+0x1030>
    536e:	3c10      	subs	r4, #16
    5370:	2c10      	cmp	r4, #16
    5372:	f102 0208 	add.w	r2, r2, #8
    5376:	dd16      	ble.n	53a6 <_svfprintf_r+0x105e>
    5378:	3001      	adds	r0, #1
    537a:	4b2e      	ldr	r3, [pc, #184]	@ (5434 <_svfprintf_r+0x10ec>)
    537c:	3110      	adds	r1, #16
    537e:	2807      	cmp	r0, #7
    5380:	e9c2 3700 	strd	r3, r7, [r2]
    5384:	e9cd 012d 	strd	r0, r1, [sp, #180]	@ 0xb4
    5388:	ddf1      	ble.n	536e <_svfprintf_r+0x1026>
    538a:	aa2c      	add	r2, sp, #176	@ 0xb0
    538c:	4629      	mov	r1, r5
    538e:	4658      	mov	r0, fp
    5390:	f000 fd78 	bl	5e84 <__ssprint_r>
    5394:	2800      	cmp	r0, #0
    5396:	f47f ac7b 	bne.w	4c90 <_svfprintf_r+0x948>
    539a:	3c10      	subs	r4, #16
    539c:	2c10      	cmp	r4, #16
    539e:	e9dd 012d 	ldrd	r0, r1, [sp, #180]	@ 0xb4
    53a2:	aa2f      	add	r2, sp, #188	@ 0xbc
    53a4:	dce8      	bgt.n	5378 <_svfprintf_r+0x1030>
    53a6:	4633      	mov	r3, r6
    53a8:	4626      	mov	r6, r4
    53aa:	9c08      	ldr	r4, [sp, #32]
    53ac:	6013      	str	r3, [r2, #0]
    53ae:	3001      	adds	r0, #1
    53b0:	4431      	add	r1, r6
    53b2:	2807      	cmp	r0, #7
    53b4:	e9cd 012d 	strd	r0, r1, [sp, #180]	@ 0xb4
    53b8:	6056      	str	r6, [r2, #4]
    53ba:	f300 83a2 	bgt.w	5b02 <_svfprintf_r+0x17ba>
    53be:	f89a 0000 	ldrb.w	r0, [sl]
    53c2:	3208      	adds	r2, #8
    53c4:	4404      	add	r4, r0
    53c6:	e7b3      	b.n	5330 <_svfprintf_r+0xfe8>
    53c8:	9a14      	ldr	r2, [sp, #80]	@ 0x50
    53ca:	9916      	ldr	r1, [sp, #88]	@ 0x58
    53cc:	4415      	add	r5, r2
    53ce:	e9c4 1200 	strd	r1, r2, [r4]
    53d2:	9a2d      	ldr	r2, [sp, #180]	@ 0xb4
    53d4:	952e      	str	r5, [sp, #184]	@ 0xb8
    53d6:	3201      	adds	r2, #1
    53d8:	2a07      	cmp	r2, #7
    53da:	922d      	str	r2, [sp, #180]	@ 0xb4
    53dc:	f300 83be 	bgt.w	5b5c <_svfprintf_r+0x1814>
    53e0:	3408      	adds	r4, #8
    53e2:	e555      	b.n	4e90 <_svfprintf_r+0xb48>
    53e4:	9804      	ldr	r0, [sp, #16]
    53e6:	990b      	ldr	r1, [sp, #44]	@ 0x2c
    53e8:	f010 0010 	ands.w	r0, r0, #16
    53ec:	f851 3b04 	ldr.w	r3, [r1], #4
    53f0:	d117      	bne.n	5422 <_svfprintf_r+0x10da>
    53f2:	9a04      	ldr	r2, [sp, #16]
    53f4:	f012 0540 	ands.w	r5, r2, #64	@ 0x40
    53f8:	d00e      	beq.n	5418 <_svfprintf_r+0x10d0>
    53fa:	b29b      	uxth	r3, r3
    53fc:	4602      	mov	r2, r0
    53fe:	910b      	str	r1, [sp, #44]	@ 0x2c
    5400:	e6c6      	b.n	5190 <_svfprintf_r+0xe48>
    5402:	aa2c      	add	r2, sp, #176	@ 0xb0
    5404:	4629      	mov	r1, r5
    5406:	4658      	mov	r0, fp
    5408:	f000 fd3c 	bl	5e84 <__ssprint_r>
    540c:	2800      	cmp	r0, #0
    540e:	f47f ac3f 	bne.w	4c90 <_svfprintf_r+0x948>
    5412:	992e      	ldr	r1, [sp, #184]	@ 0xb8
    5414:	aa2f      	add	r2, sp, #188	@ 0xbc
    5416:	e76e      	b.n	52f6 <_svfprintf_r+0xfae>
    5418:	9a04      	ldr	r2, [sp, #16]
    541a:	f412 7200 	ands.w	r2, r2, #512	@ 0x200
    541e:	f040 821f 	bne.w	5860 <_svfprintf_r+0x1518>
    5422:	910b      	str	r1, [sp, #44]	@ 0x2c
    5424:	e6b4      	b.n	5190 <_svfprintf_r+0xe48>
    5426:	bf00      	nop
    5428:	0000a2e0 	.word	0x0000a2e0
    542c:	0000a2cc 	.word	0x0000a2cc
    5430:	0000a2f4 	.word	0x0000a2f4
    5434:	0000a464 	.word	0x0000a464
    5438:	2100      	movs	r1, #0
    543a:	9408      	str	r4, [sp, #32]
    543c:	f8df 931c 	ldr.w	r9, [pc, #796]	@ 575c <_svfprintf_r+0x1414>
    5440:	9c17      	ldr	r4, [sp, #92]	@ 0x5c
    5442:	f8cd a010 	str.w	sl, [sp, #16]
    5446:	f405 6780 	and.w	r7, r5, #1024	@ 0x400
    544a:	ae58      	add	r6, sp, #352	@ 0x160
    544c:	f04f 0805 	mov.w	r8, #5
    5450:	9502      	str	r5, [sp, #8]
    5452:	468c      	mov	ip, r1
    5454:	e005      	b.n	5462 <_svfprintf_r+0x111a>
    5456:	2b0a      	cmp	r3, #10
    5458:	f172 0200 	sbcs.w	r2, r2, #0
    545c:	d334      	bcc.n	54c8 <_svfprintf_r+0x1180>
    545e:	4653      	mov	r3, sl
    5460:	462a      	mov	r2, r5
    5462:	1899      	adds	r1, r3, r2
    5464:	f141 0100 	adc.w	r1, r1, #0
    5468:	fba9 0501 	umull	r0, r5, r9, r1
    546c:	f025 0003 	bic.w	r0, r5, #3
    5470:	eb00 0095 	add.w	r0, r0, r5, lsr #2
    5474:	1a09      	subs	r1, r1, r0
    5476:	1a58      	subs	r0, r3, r1
    5478:	f04f 35cc 	mov.w	r5, #3435973836	@ 0xcccccccc
    547c:	f162 0e00 	sbc.w	lr, r2, #0
    5480:	fb05 f500 	mul.w	r5, r5, r0
    5484:	fba0 a009 	umull	sl, r0, r0, r9
    5488:	fb09 550e 	mla	r5, r9, lr, r5
    548c:	f00a 0e01 	and.w	lr, sl, #1
    5490:	4405      	add	r5, r0
    5492:	fbae 0e08 	umull	r0, lr, lr, r8
    5496:	1840      	adds	r0, r0, r1
    5498:	ea4f 0a5a 	mov.w	sl, sl, lsr #1
    549c:	3030      	adds	r0, #48	@ 0x30
    549e:	f806 0c01 	strb.w	r0, [r6, #-1]
    54a2:	ea4a 7ac5 	orr.w	sl, sl, r5, lsl #31
    54a6:	f10c 0c01 	add.w	ip, ip, #1
    54aa:	3e01      	subs	r6, #1
    54ac:	086d      	lsrs	r5, r5, #1
    54ae:	2f00      	cmp	r7, #0
    54b0:	d0d1      	beq.n	5456 <_svfprintf_r+0x110e>
    54b2:	7821      	ldrb	r1, [r4, #0]
    54b4:	458c      	cmp	ip, r1
    54b6:	d1ce      	bne.n	5456 <_svfprintf_r+0x110e>
    54b8:	f1bc 0fff 	cmp.w	ip, #255	@ 0xff
    54bc:	d0cb      	beq.n	5456 <_svfprintf_r+0x110e>
    54be:	2b0a      	cmp	r3, #10
    54c0:	f172 0200 	sbcs.w	r2, r2, #0
    54c4:	f080 80e7 	bcs.w	5696 <_svfprintf_r+0x134e>
    54c8:	9417      	str	r4, [sp, #92]	@ 0x5c
    54ca:	f8dd a010 	ldr.w	sl, [sp, #16]
    54ce:	9d02      	ldr	r5, [sp, #8]
    54d0:	9c08      	ldr	r4, [sp, #32]
    54d2:	f8cd c038 	str.w	ip, [sp, #56]	@ 0x38
    54d6:	f7ff bb34 	b.w	4b42 <_svfprintf_r+0x7fa>
    54da:	9b2d      	ldr	r3, [sp, #180]	@ 0xb4
    54dc:	4a9e      	ldr	r2, [pc, #632]	@ (5758 <_svfprintf_r+0x1410>)
    54de:	6022      	str	r2, [r4, #0]
    54e0:	3301      	adds	r3, #1
    54e2:	3501      	adds	r5, #1
    54e4:	2201      	movs	r2, #1
    54e6:	2b07      	cmp	r3, #7
    54e8:	952e      	str	r5, [sp, #184]	@ 0xb8
    54ea:	932d      	str	r3, [sp, #180]	@ 0xb4
    54ec:	6062      	str	r2, [r4, #4]
    54ee:	f300 811b 	bgt.w	5728 <_svfprintf_r+0x13e0>
    54f2:	3408      	adds	r4, #8
    54f4:	2900      	cmp	r1, #0
    54f6:	f040 8093 	bne.w	5620 <_svfprintf_r+0x12d8>
    54fa:	9b04      	ldr	r3, [sp, #16]
    54fc:	9a0e      	ldr	r2, [sp, #56]	@ 0x38
    54fe:	f003 0301 	and.w	r3, r3, #1
    5502:	4313      	orrs	r3, r2
    5504:	f43f a89d 	beq.w	4642 <_svfprintf_r+0x2fa>
    5508:	9b14      	ldr	r3, [sp, #80]	@ 0x50
    550a:	9a16      	ldr	r2, [sp, #88]	@ 0x58
    550c:	441d      	add	r5, r3
    550e:	e9c4 2300 	strd	r2, r3, [r4]
    5512:	9b2d      	ldr	r3, [sp, #180]	@ 0xb4
    5514:	952e      	str	r5, [sp, #184]	@ 0xb8
    5516:	3301      	adds	r3, #1
    5518:	2b07      	cmp	r3, #7
    551a:	932d      	str	r3, [sp, #180]	@ 0xb4
    551c:	f300 81d6 	bgt.w	58cc <_svfprintf_r+0x1584>
    5520:	f104 0208 	add.w	r2, r4, #8
    5524:	e08d      	b.n	5642 <_svfprintf_r+0x12fa>
    5526:	9909      	ldr	r1, [sp, #36]	@ 0x24
    5528:	9313      	str	r3, [sp, #76]	@ 0x4c
    552a:	aa2c      	add	r2, sp, #176	@ 0xb0
    552c:	4658      	mov	r0, fp
    552e:	f000 fca9 	bl	5e84 <__ssprint_r>
    5532:	2800      	cmp	r0, #0
    5534:	f47f abac 	bne.w	4c90 <_svfprintf_r+0x948>
    5538:	f89d 2087 	ldrb.w	r2, [sp, #135]	@ 0x87
    553c:	9d2e      	ldr	r5, [sp, #184]	@ 0xb8
    553e:	9b13      	ldr	r3, [sp, #76]	@ 0x4c
    5540:	ac2f      	add	r4, sp, #188	@ 0xbc
    5542:	f7ff b846 	b.w	45d2 <_svfprintf_r+0x28a>
    5546:	2901      	cmp	r1, #1
    5548:	9d04      	ldr	r5, [sp, #16]
    554a:	f47f aaea 	bne.w	4b22 <_svfprintf_r+0x7da>
    554e:	e415      	b.n	4d7c <_svfprintf_r+0xa34>
    5550:	9b0f      	ldr	r3, [sp, #60]	@ 0x3c
    5552:	3b01      	subs	r3, #1
    5554:	f10a 3aff 	add.w	sl, sl, #4294967295
    5558:	930f      	str	r3, [sp, #60]	@ 0x3c
    555a:	e6c0      	b.n	52de <_svfprintf_r+0xf96>
    555c:	9909      	ldr	r1, [sp, #36]	@ 0x24
    555e:	aa2c      	add	r2, sp, #176	@ 0xb0
    5560:	4658      	mov	r0, fp
    5562:	f000 fc8f 	bl	5e84 <__ssprint_r>
    5566:	2800      	cmp	r0, #0
    5568:	f47f ab92 	bne.w	4c90 <_svfprintf_r+0x948>
    556c:	9d2e      	ldr	r5, [sp, #184]	@ 0xb8
    556e:	ac2f      	add	r4, sp, #188	@ 0xbc
    5570:	f7ff ba99 	b.w	4aa6 <_svfprintf_r+0x75e>
    5574:	f10d 08a8 	add.w	r8, sp, #168	@ 0xa8
    5578:	2208      	movs	r2, #8
    557a:	2100      	movs	r1, #0
    557c:	4640      	mov	r0, r8
    557e:	9625      	str	r6, [sp, #148]	@ 0x94
    5580:	f7fe f980 	bl	3884 <memset>
    5584:	9b05      	ldr	r3, [sp, #20]
    5586:	2b00      	cmp	r3, #0
    5588:	f2c0 8092 	blt.w	56b0 <_svfprintf_r+0x1368>
    558c:	2500      	movs	r5, #0
    558e:	9702      	str	r7, [sp, #8]
    5590:	4699      	mov	r9, r3
    5592:	462f      	mov	r7, r5
    5594:	e00e      	b.n	55b4 <_svfprintf_r+0x126c>
    5596:	a93f      	add	r1, sp, #252	@ 0xfc
    5598:	4658      	mov	r0, fp
    559a:	f002 fb2f 	bl	7bfc <_wcrtomb_r>
    559e:	1c43      	adds	r3, r0, #1
    55a0:	4438      	add	r0, r7
    55a2:	f000 838f 	beq.w	5cc4 <_svfprintf_r+0x197c>
    55a6:	4548      	cmp	r0, r9
    55a8:	dc09      	bgt.n	55be <_svfprintf_r+0x1276>
    55aa:	f105 0504 	add.w	r5, r5, #4
    55ae:	f000 83bd 	beq.w	5d2c <_svfprintf_r+0x19e4>
    55b2:	4607      	mov	r7, r0
    55b4:	9a25      	ldr	r2, [sp, #148]	@ 0x94
    55b6:	5952      	ldr	r2, [r2, r5]
    55b8:	4643      	mov	r3, r8
    55ba:	2a00      	cmp	r2, #0
    55bc:	d1eb      	bne.n	5596 <_svfprintf_r+0x124e>
    55be:	9708      	str	r7, [sp, #32]
    55c0:	9f02      	ldr	r7, [sp, #8]
    55c2:	e083      	b.n	56cc <_svfprintf_r+0x1384>
    55c4:	9909      	ldr	r1, [sp, #36]	@ 0x24
    55c6:	aa2c      	add	r2, sp, #176	@ 0xb0
    55c8:	4658      	mov	r0, fp
    55ca:	f000 fc5b 	bl	5e84 <__ssprint_r>
    55ce:	2800      	cmp	r0, #0
    55d0:	f47f ab5e 	bne.w	4c90 <_svfprintf_r+0x948>
    55d4:	9d2e      	ldr	r5, [sp, #184]	@ 0xb8
    55d6:	ac2f      	add	r4, sp, #188	@ 0xbc
    55d8:	f7ff b81d 	b.w	4616 <_svfprintf_r+0x2ce>
    55dc:	aa2c      	add	r2, sp, #176	@ 0xb0
    55de:	4629      	mov	r1, r5
    55e0:	4658      	mov	r0, fp
    55e2:	f000 fc4f 	bl	5e84 <__ssprint_r>
    55e6:	2800      	cmp	r0, #0
    55e8:	f47f ab52 	bne.w	4c90 <_svfprintf_r+0x948>
    55ec:	f89a 0000 	ldrb.w	r0, [sl]
    55f0:	992e      	ldr	r1, [sp, #184]	@ 0xb8
    55f2:	aa2f      	add	r2, sp, #188	@ 0xbc
    55f4:	e695      	b.n	5322 <_svfprintf_r+0xfda>
    55f6:	9b0b      	ldr	r3, [sp, #44]	@ 0x2c
    55f8:	9a06      	ldr	r2, [sp, #24]
    55fa:	681b      	ldr	r3, [r3, #0]
    55fc:	601a      	str	r2, [r3, #0]
    55fe:	f7ff b9c1 	b.w	4984 <_svfprintf_r+0x63c>
    5602:	46d1      	mov	r9, sl
    5604:	f8dd a014 	ldr.w	sl, [sp, #20]
    5608:	f8c8 9000 	str.w	r9, [r8]
    560c:	3701      	adds	r7, #1
    560e:	4425      	add	r5, r4
    5610:	2f07      	cmp	r7, #7
    5612:	e9cd 752d 	strd	r7, r5, [sp, #180]	@ 0xb4
    5616:	f8c8 4004 	str.w	r4, [r8, #4]
    561a:	f77f ab98 	ble.w	4d4e <_svfprintf_r+0xa06>
    561e:	e481      	b.n	4f24 <_svfprintf_r+0xbdc>
    5620:	9b14      	ldr	r3, [sp, #80]	@ 0x50
    5622:	9a16      	ldr	r2, [sp, #88]	@ 0x58
    5624:	441d      	add	r5, r3
    5626:	e9c4 2300 	strd	r2, r3, [r4]
    562a:	9b2d      	ldr	r3, [sp, #180]	@ 0xb4
    562c:	952e      	str	r5, [sp, #184]	@ 0xb8
    562e:	3301      	adds	r3, #1
    5630:	2b07      	cmp	r3, #7
    5632:	932d      	str	r3, [sp, #180]	@ 0xb4
    5634:	f300 814a 	bgt.w	58cc <_svfprintf_r+0x1584>
    5638:	f104 0208 	add.w	r2, r4, #8
    563c:	2900      	cmp	r1, #0
    563e:	f2c0 82e0 	blt.w	5c02 <_svfprintf_r+0x18ba>
    5642:	990e      	ldr	r1, [sp, #56]	@ 0x38
    5644:	6016      	str	r6, [r2, #0]
    5646:	3301      	adds	r3, #1
    5648:	440d      	add	r5, r1
    564a:	2b07      	cmp	r3, #7
    564c:	e9cd 352d 	strd	r3, r5, [sp, #180]	@ 0xb4
    5650:	6051      	str	r1, [r2, #4]
    5652:	f73f ab34 	bgt.w	4cbe <_svfprintf_r+0x976>
    5656:	f102 0408 	add.w	r4, r2, #8
    565a:	f7fe bff2 	b.w	4642 <_svfprintf_r+0x2fa>
    565e:	9904      	ldr	r1, [sp, #16]
    5660:	920b      	str	r2, [sp, #44]	@ 0x2c
    5662:	058d      	lsls	r5, r1, #22
    5664:	bf4a      	itet	mi
    5666:	f343 12c0 	sbfxmi	r2, r3, #7, #1
    566a:	17da      	asrpl	r2, r3, #31
    566c:	b25b      	sxtbmi	r3, r3
    566e:	4611      	mov	r1, r2
    5670:	f7ff b8f4 	b.w	485c <_svfprintf_r+0x514>
    5674:	4615      	mov	r5, r2
    5676:	4632      	mov	r2, r6
    5678:	464e      	mov	r6, r9
    567a:	4691      	mov	r9, r2
    567c:	3301      	adds	r3, #1
    567e:	443d      	add	r5, r7
    5680:	2b07      	cmp	r3, #7
    5682:	e9cd 352d 	strd	r3, r5, [sp, #180]	@ 0xb4
    5686:	f8c4 9000 	str.w	r9, [r4]
    568a:	6067      	str	r7, [r4, #4]
    568c:	f300 8112 	bgt.w	58b4 <_svfprintf_r+0x156c>
    5690:	3408      	adds	r4, #8
    5692:	f7ff bbed 	b.w	4e70 <_svfprintf_r+0xb28>
    5696:	9b1c      	ldr	r3, [sp, #112]	@ 0x70
    5698:	9919      	ldr	r1, [sp, #100]	@ 0x64
    569a:	1af6      	subs	r6, r6, r3
    569c:	461a      	mov	r2, r3
    569e:	4630      	mov	r0, r6
    56a0:	f000 fd42 	bl	6128 <strncpy>
    56a4:	7863      	ldrb	r3, [r4, #1]
    56a6:	b103      	cbz	r3, 56aa <_svfprintf_r+0x1362>
    56a8:	3401      	adds	r4, #1
    56aa:	f04f 0c00 	mov.w	ip, #0
    56ae:	e6d6      	b.n	545e <_svfprintf_r+0x1116>
    56b0:	2300      	movs	r3, #0
    56b2:	4619      	mov	r1, r3
    56b4:	f8cd 8000 	str.w	r8, [sp]
    56b8:	aa25      	add	r2, sp, #148	@ 0x94
    56ba:	4658      	mov	r0, fp
    56bc:	f002 fac4 	bl	7c48 <_wcsrtombs_r>
    56c0:	4603      	mov	r3, r0
    56c2:	3301      	adds	r3, #1
    56c4:	9008      	str	r0, [sp, #32]
    56c6:	f000 82fd 	beq.w	5cc4 <_svfprintf_r+0x197c>
    56ca:	9625      	str	r6, [sp, #148]	@ 0x94
    56cc:	9b08      	ldr	r3, [sp, #32]
    56ce:	2b00      	cmp	r3, #0
    56d0:	d036      	beq.n	5740 <_svfprintf_r+0x13f8>
    56d2:	2b63      	cmp	r3, #99	@ 0x63
    56d4:	f300 80e4 	bgt.w	58a0 <_svfprintf_r+0x1558>
    56d8:	2300      	movs	r3, #0
    56da:	930a      	str	r3, [sp, #40]	@ 0x28
    56dc:	ae3f      	add	r6, sp, #252	@ 0xfc
    56de:	2208      	movs	r2, #8
    56e0:	2100      	movs	r1, #0
    56e2:	4640      	mov	r0, r8
    56e4:	f7fe f8ce 	bl	3884 <memset>
    56e8:	9d08      	ldr	r5, [sp, #32]
    56ea:	f8cd 8000 	str.w	r8, [sp]
    56ee:	462b      	mov	r3, r5
    56f0:	aa25      	add	r2, sp, #148	@ 0x94
    56f2:	4631      	mov	r1, r6
    56f4:	4658      	mov	r0, fp
    56f6:	f002 faa7 	bl	7c48 <_wcsrtombs_r>
    56fa:	4285      	cmp	r5, r0
    56fc:	f040 83a5 	bne.w	5e4a <_svfprintf_r+0x1b02>
    5700:	9908      	ldr	r1, [sp, #32]
    5702:	970b      	str	r7, [sp, #44]	@ 0x2c
    5704:	2300      	movs	r3, #0
    5706:	5473      	strb	r3, [r6, r1]
    5708:	ea21 71e1 	bic.w	r1, r1, r1, asr #31
    570c:	f89d 2087 	ldrb.w	r2, [sp, #135]	@ 0x87
    5710:	9305      	str	r3, [sp, #20]
    5712:	9102      	str	r1, [sp, #8]
    5714:	9312      	str	r3, [sp, #72]	@ 0x48
    5716:	930f      	str	r3, [sp, #60]	@ 0x3c
    5718:	930d      	str	r3, [sp, #52]	@ 0x34
    571a:	f7fe bff4 	b.w	4706 <_svfprintf_r+0x3be>
    571e:	222d      	movs	r2, #45	@ 0x2d
    5720:	f88d 2087 	strb.w	r2, [sp, #135]	@ 0x87
    5724:	f7fe bfdc 	b.w	46e0 <_svfprintf_r+0x398>
    5728:	9909      	ldr	r1, [sp, #36]	@ 0x24
    572a:	aa2c      	add	r2, sp, #176	@ 0xb0
    572c:	4658      	mov	r0, fp
    572e:	f000 fba9 	bl	5e84 <__ssprint_r>
    5732:	2800      	cmp	r0, #0
    5734:	f47f aaac 	bne.w	4c90 <_svfprintf_r+0x948>
    5738:	9923      	ldr	r1, [sp, #140]	@ 0x8c
    573a:	9d2e      	ldr	r5, [sp, #184]	@ 0xb8
    573c:	ac2f      	add	r4, sp, #188	@ 0xbc
    573e:	e6d9      	b.n	54f4 <_svfprintf_r+0x11ac>
    5740:	9b08      	ldr	r3, [sp, #32]
    5742:	f89d 2087 	ldrb.w	r2, [sp, #135]	@ 0x87
    5746:	970b      	str	r7, [sp, #44]	@ 0x2c
    5748:	9302      	str	r3, [sp, #8]
    574a:	9305      	str	r3, [sp, #20]
    574c:	9312      	str	r3, [sp, #72]	@ 0x48
    574e:	930f      	str	r3, [sp, #60]	@ 0x3c
    5750:	930d      	str	r3, [sp, #52]	@ 0x34
    5752:	930a      	str	r3, [sp, #40]	@ 0x28
    5754:	f7fe bfd7 	b.w	4706 <_svfprintf_r+0x3be>
    5758:	0000a2fc 	.word	0x0000a2fc
    575c:	cccccccd 	.word	0xcccccccd
    5760:	ab2a      	add	r3, sp, #168	@ 0xa8
    5762:	9301      	str	r3, [sp, #4]
    5764:	ab25      	add	r3, sp, #148	@ 0x94
    5766:	9300      	str	r3, [sp, #0]
    5768:	2102      	movs	r1, #2
    576a:	ab23      	add	r3, sp, #140	@ 0x8c
    576c:	ed9d 0b1e 	vldr	d0, [sp, #120]	@ 0x78
    5770:	9a05      	ldr	r2, [sp, #20]
    5772:	4658      	mov	r0, fp
    5774:	f000 ff18 	bl	65a8 <_dtoa_r>
    5778:	9b04      	ldr	r3, [sp, #16]
    577a:	07d9      	lsls	r1, r3, #31
    577c:	4606      	mov	r6, r0
    577e:	f100 81fc 	bmi.w	5b7a <_svfprintf_r+0x1832>
    5782:	9b2a      	ldr	r3, [sp, #168]	@ 0xa8
    5784:	1a1b      	subs	r3, r3, r0
    5786:	930e      	str	r3, [sp, #56]	@ 0x38
    5788:	9b23      	ldr	r3, [sp, #140]	@ 0x8c
    578a:	930d      	str	r3, [sp, #52]	@ 0x34
    578c:	9b0d      	ldr	r3, [sp, #52]	@ 0x34
    578e:	1cda      	adds	r2, r3, #3
    5790:	db03      	blt.n	579a <_svfprintf_r+0x1452>
    5792:	9a05      	ldr	r2, [sp, #20]
    5794:	429a      	cmp	r2, r3
    5796:	f280 818b 	bge.w	5ab0 <_svfprintf_r+0x1768>
    579a:	9b0c      	ldr	r3, [sp, #48]	@ 0x30
    579c:	3b02      	subs	r3, #2
    579e:	930c      	str	r3, [sp, #48]	@ 0x30
    57a0:	9b0d      	ldr	r3, [sp, #52]	@ 0x34
    57a2:	3b01      	subs	r3, #1
    57a4:	f89d 2030 	ldrb.w	r2, [sp, #48]	@ 0x30
    57a8:	9323      	str	r3, [sp, #140]	@ 0x8c
    57aa:	2100      	movs	r1, #0
    57ac:	2b00      	cmp	r3, #0
    57ae:	bfb8      	it	lt
    57b0:	9b0d      	ldrlt	r3, [sp, #52]	@ 0x34
    57b2:	f88d 2098 	strb.w	r2, [sp, #152]	@ 0x98
    57b6:	bfba      	itte	lt
    57b8:	f1c3 0301 	rsblt	r3, r3, #1
    57bc:	222d      	movlt	r2, #45	@ 0x2d
    57be:	222b      	movge	r2, #43	@ 0x2b
    57c0:	2b09      	cmp	r3, #9
    57c2:	f88d 2099 	strb.w	r2, [sp, #153]	@ 0x99
    57c6:	f340 8265 	ble.w	5c94 <_svfprintf_r+0x194c>
    57ca:	f10d 05af 	add.w	r5, sp, #175	@ 0xaf
    57ce:	4fb3      	ldr	r7, [pc, #716]	@ (5a9c <_svfprintf_r+0x1754>)
    57d0:	462a      	mov	r2, r5
    57d2:	4610      	mov	r0, r2
    57d4:	fba7 1203 	umull	r1, r2, r7, r3
    57d8:	08d2      	lsrs	r2, r2, #3
    57da:	eb02 0182 	add.w	r1, r2, r2, lsl #2
    57de:	eba3 0141 	sub.w	r1, r3, r1, lsl #1
    57e2:	3130      	adds	r1, #48	@ 0x30
    57e4:	f800 1c01 	strb.w	r1, [r0, #-1]
    57e8:	4619      	mov	r1, r3
    57ea:	2963      	cmp	r1, #99	@ 0x63
    57ec:	4613      	mov	r3, r2
    57ee:	f100 32ff 	add.w	r2, r0, #4294967295
    57f2:	dcee      	bgt.n	57d2 <_svfprintf_r+0x148a>
    57f4:	3330      	adds	r3, #48	@ 0x30
    57f6:	f802 3c01 	strb.w	r3, [r2, #-1]
    57fa:	1e83      	subs	r3, r0, #2
    57fc:	42ab      	cmp	r3, r5
    57fe:	f080 8321 	bcs.w	5e44 <_svfprintf_r+0x1afc>
    5802:	f10d 0299 	add.w	r2, sp, #153	@ 0x99
    5806:	f813 1b01 	ldrb.w	r1, [r3], #1
    580a:	f802 1f01 	strb.w	r1, [r2, #1]!
    580e:	42ab      	cmp	r3, r5
    5810:	d1f9      	bne.n	5806 <_svfprintf_r+0x14be>
    5812:	ab58      	add	r3, sp, #352	@ 0x160
    5814:	1a18      	subs	r0, r3, r0
    5816:	f1a0 03ad 	sub.w	r3, r0, #173	@ 0xad
    581a:	9318      	str	r3, [sp, #96]	@ 0x60
    581c:	9b0e      	ldr	r3, [sp, #56]	@ 0x38
    581e:	9a18      	ldr	r2, [sp, #96]	@ 0x60
    5820:	2b01      	cmp	r3, #1
    5822:	441a      	add	r2, r3
    5824:	9208      	str	r2, [sp, #32]
    5826:	f340 8258 	ble.w	5cda <_svfprintf_r+0x1992>
    582a:	9b08      	ldr	r3, [sp, #32]
    582c:	9a14      	ldr	r2, [sp, #80]	@ 0x50
    582e:	4413      	add	r3, r2
    5830:	9308      	str	r3, [sp, #32]
    5832:	9b04      	ldr	r3, [sp, #16]
    5834:	9a08      	ldr	r2, [sp, #32]
    5836:	f423 6380 	bic.w	r3, r3, #1024	@ 0x400
    583a:	f443 7380 	orr.w	r3, r3, #256	@ 0x100
    583e:	9304      	str	r3, [sp, #16]
    5840:	ea22 72e2 	bic.w	r2, r2, r2, asr #31
    5844:	2300      	movs	r3, #0
    5846:	9312      	str	r3, [sp, #72]	@ 0x48
    5848:	9202      	str	r2, [sp, #8]
    584a:	930f      	str	r3, [sp, #60]	@ 0x3c
    584c:	930d      	str	r3, [sp, #52]	@ 0x34
    584e:	9b13      	ldr	r3, [sp, #76]	@ 0x4c
    5850:	2b00      	cmp	r3, #0
    5852:	f040 811b 	bne.w	5a8c <_svfprintf_r+0x1744>
    5856:	f89d 2087 	ldrb.w	r2, [sp, #135]	@ 0x87
    585a:	9305      	str	r3, [sp, #20]
    585c:	f7fe bf53 	b.w	4706 <_svfprintf_r+0x3be>
    5860:	b2db      	uxtb	r3, r3
    5862:	462a      	mov	r2, r5
    5864:	910b      	str	r1, [sp, #44]	@ 0x2c
    5866:	e493      	b.n	5190 <_svfprintf_r+0xe48>
    5868:	9b0b      	ldr	r3, [sp, #44]	@ 0x2c
    586a:	9a06      	ldr	r2, [sp, #24]
    586c:	681b      	ldr	r3, [r3, #0]
    586e:	801a      	strh	r2, [r3, #0]
    5870:	f7ff b888 	b.w	4984 <_svfprintf_r+0x63c>
    5874:	b2db      	uxtb	r3, r3
    5876:	462a      	mov	r2, r5
    5878:	910b      	str	r1, [sp, #44]	@ 0x2c
    587a:	f7ff b861 	b.w	4940 <_svfprintf_r+0x5f8>
    587e:	9c09      	ldr	r4, [sp, #36]	@ 0x24
    5880:	aa2c      	add	r2, sp, #176	@ 0xb0
    5882:	4621      	mov	r1, r4
    5884:	4658      	mov	r0, fp
    5886:	f000 fafd 	bl	5e84 <__ssprint_r>
    588a:	89a3      	ldrh	r3, [r4, #12]
    588c:	f003 0340 	and.w	r3, r3, #64	@ 0x40
    5890:	f7fe be66 	b.w	4560 <_svfprintf_r+0x218>
    5894:	4630      	mov	r0, r6
    5896:	f000 fd13 	bl	62c0 <strlen>
    589a:	4601      	mov	r1, r0
    589c:	f7fe bfc0 	b.w	4820 <_svfprintf_r+0x4d8>
    58a0:	1c59      	adds	r1, r3, #1
    58a2:	4658      	mov	r0, fp
    58a4:	f7fe fa92 	bl	3dcc <_malloc_r>
    58a8:	4606      	mov	r6, r0
    58aa:	2800      	cmp	r0, #0
    58ac:	f000 82db 	beq.w	5e66 <_svfprintf_r+0x1b1e>
    58b0:	900a      	str	r0, [sp, #40]	@ 0x28
    58b2:	e714      	b.n	56de <_svfprintf_r+0x1396>
    58b4:	9909      	ldr	r1, [sp, #36]	@ 0x24
    58b6:	aa2c      	add	r2, sp, #176	@ 0xb0
    58b8:	4658      	mov	r0, fp
    58ba:	f000 fae3 	bl	5e84 <__ssprint_r>
    58be:	2800      	cmp	r0, #0
    58c0:	f47f a9e6 	bne.w	4c90 <_svfprintf_r+0x948>
    58c4:	9d2e      	ldr	r5, [sp, #184]	@ 0xb8
    58c6:	ac2f      	add	r4, sp, #188	@ 0xbc
    58c8:	f7ff bad2 	b.w	4e70 <_svfprintf_r+0xb28>
    58cc:	9909      	ldr	r1, [sp, #36]	@ 0x24
    58ce:	aa2c      	add	r2, sp, #176	@ 0xb0
    58d0:	4658      	mov	r0, fp
    58d2:	f000 fad7 	bl	5e84 <__ssprint_r>
    58d6:	2800      	cmp	r0, #0
    58d8:	f47f a9da 	bne.w	4c90 <_svfprintf_r+0x948>
    58dc:	e9dd 352d 	ldrd	r3, r5, [sp, #180]	@ 0xb4
    58e0:	9923      	ldr	r1, [sp, #140]	@ 0x8c
    58e2:	aa2f      	add	r2, sp, #188	@ 0xbc
    58e4:	e6aa      	b.n	563c <_svfprintf_r+0x12f4>
    58e6:	2306      	movs	r3, #6
    58e8:	900a      	str	r0, [sp, #40]	@ 0x28
    58ea:	9305      	str	r3, [sp, #20]
    58ec:	e400      	b.n	50f0 <_svfprintf_r+0xda8>
    58ee:	9b05      	ldr	r3, [sp, #20]
    58f0:	2102      	movs	r1, #2
    58f2:	f103 0801 	add.w	r8, r3, #1
    58f6:	ab2a      	add	r3, sp, #168	@ 0xa8
    58f8:	9301      	str	r3, [sp, #4]
    58fa:	ab25      	add	r3, sp, #148	@ 0x94
    58fc:	9300      	str	r3, [sp, #0]
    58fe:	ed9d 0b1e 	vldr	d0, [sp, #120]	@ 0x78
    5902:	ab23      	add	r3, sp, #140	@ 0x8c
    5904:	4642      	mov	r2, r8
    5906:	4658      	mov	r0, fp
    5908:	f000 fe4e 	bl	65a8 <_dtoa_r>
    590c:	9b0c      	ldr	r3, [sp, #48]	@ 0x30
    590e:	f023 0720 	bic.w	r7, r3, #32
    5912:	2f46      	cmp	r7, #70	@ 0x46
    5914:	4606      	mov	r6, r0
    5916:	eb00 0508 	add.w	r5, r0, r8
    591a:	bf18      	it	ne
    591c:	2745      	movne	r7, #69	@ 0x45
    591e:	d105      	bne.n	592c <_svfprintf_r+0x15e4>
    5920:	7833      	ldrb	r3, [r6, #0]
    5922:	2b30      	cmp	r3, #48	@ 0x30
    5924:	f000 813c 	beq.w	5ba0 <_svfprintf_r+0x1858>
    5928:	9b23      	ldr	r3, [sp, #140]	@ 0x8c
    592a:	441d      	add	r5, r3
    592c:	e9dd 011e 	ldrd	r0, r1, [sp, #120]	@ 0x78
    5930:	2200      	movs	r2, #0
    5932:	2300      	movs	r3, #0
    5934:	f004 fc26 	bl	a184 <__aeabi_dcmpeq>
    5938:	2800      	cmp	r0, #0
    593a:	f040 8159 	bne.w	5bf0 <_svfprintf_r+0x18a8>
    593e:	9b2a      	ldr	r3, [sp, #168]	@ 0xa8
    5940:	42ab      	cmp	r3, r5
    5942:	d206      	bcs.n	5952 <_svfprintf_r+0x160a>
    5944:	2130      	movs	r1, #48	@ 0x30
    5946:	1c5a      	adds	r2, r3, #1
    5948:	922a      	str	r2, [sp, #168]	@ 0xa8
    594a:	7019      	strb	r1, [r3, #0]
    594c:	9b2a      	ldr	r3, [sp, #168]	@ 0xa8
    594e:	429d      	cmp	r5, r3
    5950:	d8f9      	bhi.n	5946 <_svfprintf_r+0x15fe>
    5952:	9a23      	ldr	r2, [sp, #140]	@ 0x8c
    5954:	920d      	str	r2, [sp, #52]	@ 0x34
    5956:	1b9b      	subs	r3, r3, r6
    5958:	2f47      	cmp	r7, #71	@ 0x47
    595a:	930e      	str	r3, [sp, #56]	@ 0x38
    595c:	f43f af16 	beq.w	578c <_svfprintf_r+0x1444>
    5960:	2f46      	cmp	r7, #70	@ 0x46
    5962:	f000 812b 	beq.w	5bbc <_svfprintf_r+0x1874>
    5966:	9b0d      	ldr	r3, [sp, #52]	@ 0x34
    5968:	3b01      	subs	r3, #1
    596a:	e71b      	b.n	57a4 <_svfprintf_r+0x145c>
    596c:	a823      	add	r0, sp, #140	@ 0x8c
    596e:	ed9d 0b1e 	vldr	d0, [sp, #120]	@ 0x78
    5972:	f000 fd11 	bl	6398 <frexp>
    5976:	2200      	movs	r2, #0
    5978:	f04f 537f 	mov.w	r3, #1069547520	@ 0x3fc00000
    597c:	ec51 0b10 	vmov	r0, r1, d0
    5980:	f004 f998 	bl	9cb4 <__aeabi_dmul>
    5984:	4602      	mov	r2, r0
    5986:	460b      	mov	r3, r1
    5988:	e9cd 2302 	strd	r2, r3, [sp, #8]
    598c:	2200      	movs	r2, #0
    598e:	2300      	movs	r3, #0
    5990:	f004 fbf8 	bl	a184 <__aeabi_dcmpeq>
    5994:	b108      	cbz	r0, 599a <_svfprintf_r+0x1652>
    5996:	2301      	movs	r3, #1
    5998:	9323      	str	r3, [sp, #140]	@ 0x8c
    599a:	9b05      	ldr	r3, [sp, #20]
    599c:	4a40      	ldr	r2, [pc, #256]	@ (5aa0 <_svfprintf_r+0x1758>)
    599e:	980c      	ldr	r0, [sp, #48]	@ 0x30
    59a0:	f8cd a020 	str.w	sl, [sp, #32]
    59a4:	1e59      	subs	r1, r3, #1
    59a6:	4b3f      	ldr	r3, [pc, #252]	@ (5aa4 <_svfprintf_r+0x175c>)
    59a8:	960d      	str	r6, [sp, #52]	@ 0x34
    59aa:	2861      	cmp	r0, #97	@ 0x61
    59ac:	bf08      	it	eq
    59ae:	461a      	moveq	r2, r3
    59b0:	4637      	mov	r7, r6
    59b2:	46a0      	mov	r8, r4
    59b4:	9205      	str	r2, [sp, #20]
    59b6:	e9dd 4502 	ldrd	r4, r5, [sp, #8]
    59ba:	468a      	mov	sl, r1
    59bc:	4616      	mov	r6, r2
    59be:	e009      	b.n	59d4 <_svfprintf_r+0x168c>
    59c0:	2200      	movs	r2, #0
    59c2:	2300      	movs	r3, #0
    59c4:	f10a 39ff 	add.w	r9, sl, #4294967295
    59c8:	f004 fbdc 	bl	a184 <__aeabi_dcmpeq>
    59cc:	2800      	cmp	r0, #0
    59ce:	f040 81bb 	bne.w	5d48 <_svfprintf_r+0x1a00>
    59d2:	46ca      	mov	sl, r9
    59d4:	4b34      	ldr	r3, [pc, #208]	@ (5aa8 <_svfprintf_r+0x1760>)
    59d6:	2200      	movs	r2, #0
    59d8:	4620      	mov	r0, r4
    59da:	4629      	mov	r1, r5
    59dc:	f004 f96a 	bl	9cb4 <__aeabi_dmul>
    59e0:	460d      	mov	r5, r1
    59e2:	4604      	mov	r4, r0
    59e4:	f004 fc16 	bl	a214 <__aeabi_d2iz>
    59e8:	4681      	mov	r9, r0
    59ea:	f004 f8f9 	bl	9be0 <__aeabi_i2d>
    59ee:	4602      	mov	r2, r0
    59f0:	460b      	mov	r3, r1
    59f2:	4620      	mov	r0, r4
    59f4:	4629      	mov	r1, r5
    59f6:	f003 ffa5 	bl	9944 <__aeabi_dsub>
    59fa:	f816 3009 	ldrb.w	r3, [r6, r9]
    59fe:	f1ba 3fff 	cmp.w	sl, #4294967295
    5a02:	463a      	mov	r2, r7
    5a04:	4604      	mov	r4, r0
    5a06:	f807 3b01 	strb.w	r3, [r7], #1
    5a0a:	460d      	mov	r5, r1
    5a0c:	d1d8      	bne.n	59c0 <_svfprintf_r+0x1678>
    5a0e:	e9cd 4502 	strd	r4, r5, [sp, #8]
    5a12:	4b26      	ldr	r3, [pc, #152]	@ (5aac <_svfprintf_r+0x1764>)
    5a14:	f8dd a020 	ldr.w	sl, [sp, #32]
    5a18:	9e0d      	ldr	r6, [sp, #52]	@ 0x34
    5a1a:	4644      	mov	r4, r8
    5a1c:	4690      	mov	r8, r2
    5a1e:	2200      	movs	r2, #0
    5a20:	464d      	mov	r5, r9
    5a22:	f004 fbd7 	bl	a1d4 <__aeabi_dcmpgt>
    5a26:	2800      	cmp	r0, #0
    5a28:	f000 81ff 	beq.w	5e2a <_svfprintf_r+0x1ae2>
    5a2c:	9b05      	ldr	r3, [sp, #20]
    5a2e:	f8cd 80a8 	str.w	r8, [sp, #168]	@ 0xa8
    5a32:	7bd9      	ldrb	r1, [r3, #15]
    5a34:	f817 2c01 	ldrb.w	r2, [r7, #-1]
    5a38:	4291      	cmp	r1, r2
    5a3a:	463b      	mov	r3, r7
    5a3c:	d109      	bne.n	5a52 <_svfprintf_r+0x170a>
    5a3e:	2030      	movs	r0, #48	@ 0x30
    5a40:	f803 0c01 	strb.w	r0, [r3, #-1]
    5a44:	9b2a      	ldr	r3, [sp, #168]	@ 0xa8
    5a46:	1e5a      	subs	r2, r3, #1
    5a48:	922a      	str	r2, [sp, #168]	@ 0xa8
    5a4a:	f813 2c01 	ldrb.w	r2, [r3, #-1]
    5a4e:	4291      	cmp	r1, r2
    5a50:	d0f6      	beq.n	5a40 <_svfprintf_r+0x16f8>
    5a52:	2a39      	cmp	r2, #57	@ 0x39
    5a54:	bf0b      	itete	eq
    5a56:	9a05      	ldreq	r2, [sp, #20]
    5a58:	3201      	addne	r2, #1
    5a5a:	7a92      	ldrbeq	r2, [r2, #10]
    5a5c:	b2d2      	uxtbne	r2, r2
    5a5e:	f803 2c01 	strb.w	r2, [r3, #-1]
    5a62:	463b      	mov	r3, r7
    5a64:	1b9b      	subs	r3, r3, r6
    5a66:	9a0c      	ldr	r2, [sp, #48]	@ 0x30
    5a68:	930e      	str	r3, [sp, #56]	@ 0x38
    5a6a:	9b23      	ldr	r3, [sp, #140]	@ 0x8c
    5a6c:	930d      	str	r3, [sp, #52]	@ 0x34
    5a6e:	2a61      	cmp	r2, #97	@ 0x61
    5a70:	f103 33ff 	add.w	r3, r3, #4294967295
    5a74:	9323      	str	r3, [sp, #140]	@ 0x8c
    5a76:	f000 81b3 	beq.w	5de0 <_svfprintf_r+0x1a98>
    5a7a:	2141      	movs	r1, #65	@ 0x41
    5a7c:	2250      	movs	r2, #80	@ 0x50
    5a7e:	910c      	str	r1, [sp, #48]	@ 0x30
    5a80:	2101      	movs	r1, #1
    5a82:	e693      	b.n	57ac <_svfprintf_r+0x1464>
    5a84:	f8dd 8014 	ldr.w	r8, [sp, #20]
    5a88:	2103      	movs	r1, #3
    5a8a:	e734      	b.n	58f6 <_svfprintf_r+0x15ae>
    5a8c:	222d      	movs	r2, #45	@ 0x2d
    5a8e:	2300      	movs	r3, #0
    5a90:	f88d 2087 	strb.w	r2, [sp, #135]	@ 0x87
    5a94:	9305      	str	r3, [sp, #20]
    5a96:	f7fe be39 	b.w	470c <_svfprintf_r+0x3c4>
    5a9a:	bf00      	nop
    5a9c:	cccccccd 	.word	0xcccccccd
    5aa0:	0000a2e0 	.word	0x0000a2e0
    5aa4:	0000a2cc 	.word	0x0000a2cc
    5aa8:	40300000 	.word	0x40300000
    5aac:	3fe00000 	.word	0x3fe00000
    5ab0:	e9dd 230d 	ldrd	r2, r3, [sp, #52]	@ 0x34
    5ab4:	4293      	cmp	r3, r2
    5ab6:	f300 80c4 	bgt.w	5c42 <_svfprintf_r+0x18fa>
    5aba:	9b04      	ldr	r3, [sp, #16]
    5abc:	f013 0f01 	tst.w	r3, #1
    5ac0:	9b0d      	ldr	r3, [sp, #52]	@ 0x34
    5ac2:	f000 810f 	beq.w	5ce4 <_svfprintf_r+0x199c>
    5ac6:	9a14      	ldr	r2, [sp, #80]	@ 0x50
    5ac8:	4413      	add	r3, r2
    5aca:	9308      	str	r3, [sp, #32]
    5acc:	9b04      	ldr	r3, [sp, #16]
    5ace:	055f      	lsls	r7, r3, #21
    5ad0:	d503      	bpl.n	5ada <_svfprintf_r+0x1792>
    5ad2:	9b0d      	ldr	r3, [sp, #52]	@ 0x34
    5ad4:	2b00      	cmp	r3, #0
    5ad6:	f300 8147 	bgt.w	5d68 <_svfprintf_r+0x1a20>
    5ada:	9b08      	ldr	r3, [sp, #32]
    5adc:	ea23 73e3 	bic.w	r3, r3, r3, asr #31
    5ae0:	9302      	str	r3, [sp, #8]
    5ae2:	2367      	movs	r3, #103	@ 0x67
    5ae4:	930c      	str	r3, [sp, #48]	@ 0x30
    5ae6:	2300      	movs	r3, #0
    5ae8:	f8cd 9010 	str.w	r9, [sp, #16]
    5aec:	9312      	str	r3, [sp, #72]	@ 0x48
    5aee:	930f      	str	r3, [sp, #60]	@ 0x3c
    5af0:	e6ad      	b.n	584e <_svfprintf_r+0x1506>
    5af2:	f101 4300 	add.w	r3, r1, #2147483648	@ 0x80000000
    5af6:	931f      	str	r3, [sp, #124]	@ 0x7c
    5af8:	232d      	movs	r3, #45	@ 0x2d
    5afa:	901e      	str	r0, [sp, #120]	@ 0x78
    5afc:	9313      	str	r3, [sp, #76]	@ 0x4c
    5afe:	f7ff bb05 	b.w	510c <_svfprintf_r+0xdc4>
    5b02:	aa2c      	add	r2, sp, #176	@ 0xb0
    5b04:	4629      	mov	r1, r5
    5b06:	4658      	mov	r0, fp
    5b08:	f000 f9bc 	bl	5e84 <__ssprint_r>
    5b0c:	2800      	cmp	r0, #0
    5b0e:	f47f a8bf 	bne.w	4c90 <_svfprintf_r+0x948>
    5b12:	f89a 0000 	ldrb.w	r0, [sl]
    5b16:	992e      	ldr	r1, [sp, #184]	@ 0xb8
    5b18:	aa2f      	add	r2, sp, #188	@ 0xbc
    5b1a:	4404      	add	r4, r0
    5b1c:	e408      	b.n	5330 <_svfprintf_r+0xfe8>
    5b1e:	9909      	ldr	r1, [sp, #36]	@ 0x24
    5b20:	aa2c      	add	r2, sp, #176	@ 0xb0
    5b22:	4658      	mov	r0, fp
    5b24:	f000 f9ae 	bl	5e84 <__ssprint_r>
    5b28:	2800      	cmp	r0, #0
    5b2a:	f47f a8b1 	bne.w	4c90 <_svfprintf_r+0x948>
    5b2e:	9d2e      	ldr	r5, [sp, #184]	@ 0xb8
    5b30:	ac2f      	add	r4, sp, #188	@ 0xbc
    5b32:	f7ff b994 	b.w	4e5e <_svfprintf_r+0xb16>
    5b36:	2378      	movs	r3, #120	@ 0x78
    5b38:	f88d 3089 	strb.w	r3, [sp, #137]	@ 0x89
    5b3c:	9b04      	ldr	r3, [sp, #16]
    5b3e:	f043 0302 	orr.w	r3, r3, #2
    5b42:	9304      	str	r3, [sp, #16]
    5b44:	2330      	movs	r3, #48	@ 0x30
    5b46:	f88d 3088 	strb.w	r3, [sp, #136]	@ 0x88
    5b4a:	9b05      	ldr	r3, [sp, #20]
    5b4c:	2b63      	cmp	r3, #99	@ 0x63
    5b4e:	f300 808e 	bgt.w	5c6e <_svfprintf_r+0x1926>
    5b52:	2300      	movs	r3, #0
    5b54:	930a      	str	r3, [sp, #40]	@ 0x28
    5b56:	ae3f      	add	r6, sp, #252	@ 0xfc
    5b58:	f7ff baca 	b.w	50f0 <_svfprintf_r+0xda8>
    5b5c:	9909      	ldr	r1, [sp, #36]	@ 0x24
    5b5e:	aa2c      	add	r2, sp, #176	@ 0xb0
    5b60:	4658      	mov	r0, fp
    5b62:	f000 f98f 	bl	5e84 <__ssprint_r>
    5b66:	2800      	cmp	r0, #0
    5b68:	f47f a892 	bne.w	4c90 <_svfprintf_r+0x948>
    5b6c:	9b23      	ldr	r3, [sp, #140]	@ 0x8c
    5b6e:	9d2e      	ldr	r5, [sp, #184]	@ 0xb8
    5b70:	ac2f      	add	r4, sp, #188	@ 0xbc
    5b72:	f7ff b98d 	b.w	4e90 <_svfprintf_r+0xb48>
    5b76:	2358      	movs	r3, #88	@ 0x58
    5b78:	e7de      	b.n	5b38 <_svfprintf_r+0x17f0>
    5b7a:	9b05      	ldr	r3, [sp, #20]
    5b7c:	2747      	movs	r7, #71	@ 0x47
    5b7e:	18c5      	adds	r5, r0, r3
    5b80:	e6d4      	b.n	592c <_svfprintf_r+0x15e4>
    5b82:	9909      	ldr	r1, [sp, #36]	@ 0x24
    5b84:	aa2c      	add	r2, sp, #176	@ 0xb0
    5b86:	4658      	mov	r0, fp
    5b88:	f000 f97c 	bl	5e84 <__ssprint_r>
    5b8c:	2800      	cmp	r0, #0
    5b8e:	f47f a87f 	bne.w	4c90 <_svfprintf_r+0x948>
    5b92:	9e23      	ldr	r6, [sp, #140]	@ 0x8c
    5b94:	9b0e      	ldr	r3, [sp, #56]	@ 0x38
    5b96:	9d2e      	ldr	r5, [sp, #184]	@ 0xb8
    5b98:	1b9e      	subs	r6, r3, r6
    5b9a:	ac2f      	add	r4, sp, #188	@ 0xbc
    5b9c:	f7ff b98d 	b.w	4eba <_svfprintf_r+0xb72>
    5ba0:	e9dd 011e 	ldrd	r0, r1, [sp, #120]	@ 0x78
    5ba4:	2200      	movs	r2, #0
    5ba6:	2300      	movs	r3, #0
    5ba8:	f004 faec 	bl	a184 <__aeabi_dcmpeq>
    5bac:	2800      	cmp	r0, #0
    5bae:	f000 8119 	beq.w	5de4 <_svfprintf_r+0x1a9c>
    5bb2:	9b23      	ldr	r3, [sp, #140]	@ 0x8c
    5bb4:	930d      	str	r3, [sp, #52]	@ 0x34
    5bb6:	441d      	add	r5, r3
    5bb8:	1bab      	subs	r3, r5, r6
    5bba:	930e      	str	r3, [sp, #56]	@ 0x38
    5bbc:	9b04      	ldr	r3, [sp, #16]
    5bbe:	990d      	ldr	r1, [sp, #52]	@ 0x34
    5bc0:	9a05      	ldr	r2, [sp, #20]
    5bc2:	f003 0301 	and.w	r3, r3, #1
    5bc6:	2900      	cmp	r1, #0
    5bc8:	ea43 0302 	orr.w	r3, r3, r2
    5bcc:	f340 811a 	ble.w	5e04 <_svfprintf_r+0x1abc>
    5bd0:	2b00      	cmp	r3, #0
    5bd2:	f040 80f2 	bne.w	5dba <_svfprintf_r+0x1a72>
    5bd6:	9b0d      	ldr	r3, [sp, #52]	@ 0x34
    5bd8:	9308      	str	r3, [sp, #32]
    5bda:	2366      	movs	r3, #102	@ 0x66
    5bdc:	930c      	str	r3, [sp, #48]	@ 0x30
    5bde:	9b04      	ldr	r3, [sp, #16]
    5be0:	055b      	lsls	r3, r3, #21
    5be2:	f100 80c3 	bmi.w	5d6c <_svfprintf_r+0x1a24>
    5be6:	9b08      	ldr	r3, [sp, #32]
    5be8:	ea23 73e3 	bic.w	r3, r3, r3, asr #31
    5bec:	9302      	str	r3, [sp, #8]
    5bee:	e77a      	b.n	5ae6 <_svfprintf_r+0x179e>
    5bf0:	9a23      	ldr	r2, [sp, #140]	@ 0x8c
    5bf2:	920d      	str	r2, [sp, #52]	@ 0x34
    5bf4:	462b      	mov	r3, r5
    5bf6:	e6ae      	b.n	5956 <_svfprintf_r+0x160e>
    5bf8:	2200      	movs	r2, #0
    5bfa:	4682      	mov	sl, r0
    5bfc:	9205      	str	r2, [sp, #20]
    5bfe:	f7fe bbfd 	b.w	43fc <_svfprintf_r+0xb4>
    5c02:	424f      	negs	r7, r1
    5c04:	3110      	adds	r1, #16
    5c06:	f8df 9278 	ldr.w	r9, [pc, #632]	@ 5e80 <_svfprintf_r+0x1b38>
    5c0a:	bfb8      	it	lt
    5c0c:	2410      	movlt	r4, #16
    5c0e:	db04      	blt.n	5c1a <_svfprintf_r+0x18d2>
    5c10:	e021      	b.n	5c56 <_svfprintf_r+0x190e>
    5c12:	3208      	adds	r2, #8
    5c14:	3f10      	subs	r7, #16
    5c16:	2f10      	cmp	r7, #16
    5c18:	dd1d      	ble.n	5c56 <_svfprintf_r+0x190e>
    5c1a:	3301      	adds	r3, #1
    5c1c:	3510      	adds	r5, #16
    5c1e:	2b07      	cmp	r3, #7
    5c20:	e9c2 9400 	strd	r9, r4, [r2]
    5c24:	e9cd 352d 	strd	r3, r5, [sp, #180]	@ 0xb4
    5c28:	ddf3      	ble.n	5c12 <_svfprintf_r+0x18ca>
    5c2a:	9909      	ldr	r1, [sp, #36]	@ 0x24
    5c2c:	aa2c      	add	r2, sp, #176	@ 0xb0
    5c2e:	4658      	mov	r0, fp
    5c30:	f000 f928 	bl	5e84 <__ssprint_r>
    5c34:	2800      	cmp	r0, #0
    5c36:	f47f a82b 	bne.w	4c90 <_svfprintf_r+0x948>
    5c3a:	e9dd 352d 	ldrd	r3, r5, [sp, #180]	@ 0xb4
    5c3e:	aa2f      	add	r2, sp, #188	@ 0xbc
    5c40:	e7e8      	b.n	5c14 <_svfprintf_r+0x18cc>
    5c42:	9b0e      	ldr	r3, [sp, #56]	@ 0x38
    5c44:	9a14      	ldr	r2, [sp, #80]	@ 0x50
    5c46:	189a      	adds	r2, r3, r2
    5c48:	9b0d      	ldr	r3, [sp, #52]	@ 0x34
    5c4a:	9208      	str	r2, [sp, #32]
    5c4c:	2b00      	cmp	r3, #0
    5c4e:	dd71      	ble.n	5d34 <_svfprintf_r+0x19ec>
    5c50:	2367      	movs	r3, #103	@ 0x67
    5c52:	930c      	str	r3, [sp, #48]	@ 0x30
    5c54:	e7c3      	b.n	5bde <_svfprintf_r+0x1896>
    5c56:	3301      	adds	r3, #1
    5c58:	443d      	add	r5, r7
    5c5a:	2b07      	cmp	r3, #7
    5c5c:	e9cd 352d 	strd	r3, r5, [sp, #180]	@ 0xb4
    5c60:	f8c2 9000 	str.w	r9, [r2]
    5c64:	6057      	str	r7, [r2, #4]
    5c66:	f300 80af 	bgt.w	5dc8 <_svfprintf_r+0x1a80>
    5c6a:	3208      	adds	r2, #8
    5c6c:	e4e9      	b.n	5642 <_svfprintf_r+0x12fa>
    5c6e:	1c59      	adds	r1, r3, #1
    5c70:	4658      	mov	r0, fp
    5c72:	f7fe f8ab 	bl	3dcc <_malloc_r>
    5c76:	4606      	mov	r6, r0
    5c78:	b110      	cbz	r0, 5c80 <_svfprintf_r+0x1938>
    5c7a:	900a      	str	r0, [sp, #40]	@ 0x28
    5c7c:	f7ff ba38 	b.w	50f0 <_svfprintf_r+0xda8>
    5c80:	9a09      	ldr	r2, [sp, #36]	@ 0x24
    5c82:	8993      	ldrh	r3, [r2, #12]
    5c84:	f043 0340 	orr.w	r3, r3, #64	@ 0x40
    5c88:	8193      	strh	r3, [r2, #12]
    5c8a:	f04f 33ff 	mov.w	r3, #4294967295
    5c8e:	9306      	str	r3, [sp, #24]
    5c90:	f7fe bc69 	b.w	4566 <_svfprintf_r+0x21e>
    5c94:	2900      	cmp	r1, #0
    5c96:	d134      	bne.n	5d02 <_svfprintf_r+0x19ba>
    5c98:	2230      	movs	r2, #48	@ 0x30
    5c9a:	f88d 209a 	strb.w	r2, [sp, #154]	@ 0x9a
    5c9e:	f10d 029b 	add.w	r2, sp, #155	@ 0x9b
    5ca2:	3330      	adds	r3, #48	@ 0x30
    5ca4:	f802 3b01 	strb.w	r3, [r2], #1
    5ca8:	ab26      	add	r3, sp, #152	@ 0x98
    5caa:	1ad3      	subs	r3, r2, r3
    5cac:	9318      	str	r3, [sp, #96]	@ 0x60
    5cae:	e5b5      	b.n	581c <_svfprintf_r+0x14d4>
    5cb0:	9b05      	ldr	r3, [sp, #20]
    5cb2:	2b00      	cmp	r3, #0
    5cb4:	f47f aa1b 	bne.w	50ee <_svfprintf_r+0xda6>
    5cb8:	9b05      	ldr	r3, [sp, #20]
    5cba:	930a      	str	r3, [sp, #40]	@ 0x28
    5cbc:	2301      	movs	r3, #1
    5cbe:	9305      	str	r3, [sp, #20]
    5cc0:	f7ff ba16 	b.w	50f0 <_svfprintf_r+0xda8>
    5cc4:	9b09      	ldr	r3, [sp, #36]	@ 0x24
    5cc6:	f9b3 300c 	ldrsh.w	r3, [r3, #12]
    5cca:	2200      	movs	r2, #0
    5ccc:	920a      	str	r2, [sp, #40]	@ 0x28
    5cce:	f043 0340 	orr.w	r3, r3, #64	@ 0x40
    5cd2:	9a09      	ldr	r2, [sp, #36]	@ 0x24
    5cd4:	8193      	strh	r3, [r2, #12]
    5cd6:	f7fe bfdb 	b.w	4c90 <_svfprintf_r+0x948>
    5cda:	9b04      	ldr	r3, [sp, #16]
    5cdc:	07db      	lsls	r3, r3, #31
    5cde:	f57f ada8 	bpl.w	5832 <_svfprintf_r+0x14ea>
    5ce2:	e5a2      	b.n	582a <_svfprintf_r+0x14e2>
    5ce4:	9308      	str	r3, [sp, #32]
    5ce6:	e6f1      	b.n	5acc <_svfprintf_r+0x1784>
    5ce8:	9b05      	ldr	r3, [sp, #20]
    5cea:	9302      	str	r3, [sp, #8]
    5cec:	9308      	str	r3, [sp, #32]
    5cee:	2373      	movs	r3, #115	@ 0x73
    5cf0:	f89d 2087 	ldrb.w	r2, [sp, #135]	@ 0x87
    5cf4:	970b      	str	r7, [sp, #44]	@ 0x2c
    5cf6:	9005      	str	r0, [sp, #20]
    5cf8:	9012      	str	r0, [sp, #72]	@ 0x48
    5cfa:	900f      	str	r0, [sp, #60]	@ 0x3c
    5cfc:	930c      	str	r3, [sp, #48]	@ 0x30
    5cfe:	f7fe bd02 	b.w	4706 <_svfprintf_r+0x3be>
    5d02:	f10d 029a 	add.w	r2, sp, #154	@ 0x9a
    5d06:	e7cc      	b.n	5ca2 <_svfprintf_r+0x195a>
    5d08:	9b11      	ldr	r3, [sp, #68]	@ 0x44
    5d0a:	4e5a      	ldr	r6, [pc, #360]	@ (5e74 <_svfprintf_r+0x1b2c>)
    5d0c:	2b00      	cmp	r3, #0
    5d0e:	9b04      	ldr	r3, [sp, #16]
    5d10:	bfa8      	it	ge
    5d12:	f89d 2087 	ldrbge.w	r2, [sp, #135]	@ 0x87
    5d16:	f023 0380 	bic.w	r3, r3, #128	@ 0x80
    5d1a:	bfb8      	it	lt
    5d1c:	222d      	movlt	r2, #45	@ 0x2d
    5d1e:	9304      	str	r3, [sp, #16]
    5d20:	bfb8      	it	lt
    5d22:	f88d 2087 	strblt.w	r2, [sp, #135]	@ 0x87
    5d26:	4b54      	ldr	r3, [pc, #336]	@ (5e78 <_svfprintf_r+0x1b30>)
    5d28:	f7fe bce0 	b.w	46ec <_svfprintf_r+0x3a4>
    5d2c:	9b05      	ldr	r3, [sp, #20]
    5d2e:	9f02      	ldr	r7, [sp, #8]
    5d30:	9308      	str	r3, [sp, #32]
    5d32:	e4cb      	b.n	56cc <_svfprintf_r+0x1384>
    5d34:	f1c3 0301 	rsb	r3, r3, #1
    5d38:	441a      	add	r2, r3
    5d3a:	ea22 73e2 	bic.w	r3, r2, r2, asr #31
    5d3e:	9302      	str	r3, [sp, #8]
    5d40:	2367      	movs	r3, #103	@ 0x67
    5d42:	9208      	str	r2, [sp, #32]
    5d44:	930c      	str	r3, [sp, #48]	@ 0x30
    5d46:	e6ce      	b.n	5ae6 <_svfprintf_r+0x179e>
    5d48:	4651      	mov	r1, sl
    5d4a:	2900      	cmp	r1, #0
    5d4c:	f8dd a020 	ldr.w	sl, [sp, #32]
    5d50:	9e0d      	ldr	r6, [sp, #52]	@ 0x34
    5d52:	4644      	mov	r4, r8
    5d54:	f6ff ae85 	blt.w	5a62 <_svfprintf_r+0x171a>
    5d58:	1c4b      	adds	r3, r1, #1
    5d5a:	443b      	add	r3, r7
    5d5c:	2230      	movs	r2, #48	@ 0x30
    5d5e:	f807 2b01 	strb.w	r2, [r7], #1
    5d62:	429f      	cmp	r7, r3
    5d64:	d1fb      	bne.n	5d5e <_svfprintf_r+0x1a16>
    5d66:	e67d      	b.n	5a64 <_svfprintf_r+0x171c>
    5d68:	2367      	movs	r3, #103	@ 0x67
    5d6a:	930c      	str	r3, [sp, #48]	@ 0x30
    5d6c:	9917      	ldr	r1, [sp, #92]	@ 0x5c
    5d6e:	780b      	ldrb	r3, [r1, #0]
    5d70:	2bff      	cmp	r3, #255	@ 0xff
    5d72:	d074      	beq.n	5e5e <_svfprintf_r+0x1b16>
    5d74:	2500      	movs	r5, #0
    5d76:	9a0d      	ldr	r2, [sp, #52]	@ 0x34
    5d78:	4628      	mov	r0, r5
    5d7a:	e003      	b.n	5d84 <_svfprintf_r+0x1a3c>
    5d7c:	3001      	adds	r0, #1
    5d7e:	3101      	adds	r1, #1
    5d80:	2bff      	cmp	r3, #255	@ 0xff
    5d82:	d008      	beq.n	5d96 <_svfprintf_r+0x1a4e>
    5d84:	4293      	cmp	r3, r2
    5d86:	da06      	bge.n	5d96 <_svfprintf_r+0x1a4e>
    5d88:	1ad2      	subs	r2, r2, r3
    5d8a:	784b      	ldrb	r3, [r1, #1]
    5d8c:	2b00      	cmp	r3, #0
    5d8e:	d1f5      	bne.n	5d7c <_svfprintf_r+0x1a34>
    5d90:	780b      	ldrb	r3, [r1, #0]
    5d92:	3501      	adds	r5, #1
    5d94:	e7f4      	b.n	5d80 <_svfprintf_r+0x1a38>
    5d96:	9117      	str	r1, [sp, #92]	@ 0x5c
    5d98:	920d      	str	r2, [sp, #52]	@ 0x34
    5d9a:	900f      	str	r0, [sp, #60]	@ 0x3c
    5d9c:	9512      	str	r5, [sp, #72]	@ 0x48
    5d9e:	9a12      	ldr	r2, [sp, #72]	@ 0x48
    5da0:	9b0f      	ldr	r3, [sp, #60]	@ 0x3c
    5da2:	991c      	ldr	r1, [sp, #112]	@ 0x70
    5da4:	f8cd 9010 	str.w	r9, [sp, #16]
    5da8:	4413      	add	r3, r2
    5daa:	9a08      	ldr	r2, [sp, #32]
    5dac:	fb01 2303 	mla	r3, r1, r3, r2
    5db0:	9308      	str	r3, [sp, #32]
    5db2:	ea23 73e3 	bic.w	r3, r3, r3, asr #31
    5db6:	9302      	str	r3, [sp, #8]
    5db8:	e549      	b.n	584e <_svfprintf_r+0x1506>
    5dba:	9b14      	ldr	r3, [sp, #80]	@ 0x50
    5dbc:	441a      	add	r2, r3
    5dbe:	1853      	adds	r3, r2, r1
    5dc0:	9308      	str	r3, [sp, #32]
    5dc2:	2366      	movs	r3, #102	@ 0x66
    5dc4:	930c      	str	r3, [sp, #48]	@ 0x30
    5dc6:	e70a      	b.n	5bde <_svfprintf_r+0x1896>
    5dc8:	9909      	ldr	r1, [sp, #36]	@ 0x24
    5dca:	aa2c      	add	r2, sp, #176	@ 0xb0
    5dcc:	4658      	mov	r0, fp
    5dce:	f000 f859 	bl	5e84 <__ssprint_r>
    5dd2:	2800      	cmp	r0, #0
    5dd4:	f47e af5c 	bne.w	4c90 <_svfprintf_r+0x948>
    5dd8:	e9dd 352d 	ldrd	r3, r5, [sp, #180]	@ 0xb4
    5ddc:	aa2f      	add	r2, sp, #188	@ 0xbc
    5dde:	e430      	b.n	5642 <_svfprintf_r+0x12fa>
    5de0:	2270      	movs	r2, #112	@ 0x70
    5de2:	e64d      	b.n	5a80 <_svfprintf_r+0x1738>
    5de4:	f1c8 0301 	rsb	r3, r8, #1
    5de8:	9323      	str	r3, [sp, #140]	@ 0x8c
    5dea:	e59e      	b.n	592a <_svfprintf_r+0x15e2>
    5dec:	9a0b      	ldr	r2, [sp, #44]	@ 0x2c
    5dee:	f89a 3001 	ldrb.w	r3, [sl, #1]
    5df2:	f852 1b04 	ldr.w	r1, [r2], #4
    5df6:	920b      	str	r2, [sp, #44]	@ 0x2c
    5df8:	ea41 71e1 	orr.w	r1, r1, r1, asr #31
    5dfc:	4682      	mov	sl, r0
    5dfe:	9105      	str	r1, [sp, #20]
    5e00:	f7fe bafa 	b.w	43f8 <_svfprintf_r+0xb0>
    5e04:	b92b      	cbnz	r3, 5e12 <_svfprintf_r+0x1aca>
    5e06:	2301      	movs	r3, #1
    5e08:	2266      	movs	r2, #102	@ 0x66
    5e0a:	9302      	str	r3, [sp, #8]
    5e0c:	920c      	str	r2, [sp, #48]	@ 0x30
    5e0e:	9308      	str	r3, [sp, #32]
    5e10:	e669      	b.n	5ae6 <_svfprintf_r+0x179e>
    5e12:	9b14      	ldr	r3, [sp, #80]	@ 0x50
    5e14:	f103 0801 	add.w	r8, r3, #1
    5e18:	9b05      	ldr	r3, [sp, #20]
    5e1a:	4443      	add	r3, r8
    5e1c:	9308      	str	r3, [sp, #32]
    5e1e:	ea23 73e3 	bic.w	r3, r3, r3, asr #31
    5e22:	9302      	str	r3, [sp, #8]
    5e24:	2366      	movs	r3, #102	@ 0x66
    5e26:	930c      	str	r3, [sp, #48]	@ 0x30
    5e28:	e65d      	b.n	5ae6 <_svfprintf_r+0x179e>
    5e2a:	e9dd 0102 	ldrd	r0, r1, [sp, #8]
    5e2e:	4b13      	ldr	r3, [pc, #76]	@ (5e7c <_svfprintf_r+0x1b34>)
    5e30:	2200      	movs	r2, #0
    5e32:	f004 f9a7 	bl	a184 <__aeabi_dcmpeq>
    5e36:	2800      	cmp	r0, #0
    5e38:	f43f ae13 	beq.w	5a62 <_svfprintf_r+0x171a>
    5e3c:	07e8      	lsls	r0, r5, #31
    5e3e:	f57f ae10 	bpl.w	5a62 <_svfprintf_r+0x171a>
    5e42:	e5f3      	b.n	5a2c <_svfprintf_r+0x16e4>
    5e44:	2302      	movs	r3, #2
    5e46:	9318      	str	r3, [sp, #96]	@ 0x60
    5e48:	e4e8      	b.n	581c <_svfprintf_r+0x14d4>
    5e4a:	9b09      	ldr	r3, [sp, #36]	@ 0x24
    5e4c:	f9b3 300c 	ldrsh.w	r3, [r3, #12]
    5e50:	f043 0340 	orr.w	r3, r3, #64	@ 0x40
    5e54:	e73d      	b.n	5cd2 <_svfprintf_r+0x198a>
    5e56:	230c      	movs	r3, #12
    5e58:	f8cb 3000 	str.w	r3, [fp]
    5e5c:	e715      	b.n	5c8a <_svfprintf_r+0x1942>
    5e5e:	2300      	movs	r3, #0
    5e60:	9312      	str	r3, [sp, #72]	@ 0x48
    5e62:	930f      	str	r3, [sp, #60]	@ 0x3c
    5e64:	e79b      	b.n	5d9e <_svfprintf_r+0x1a56>
    5e66:	9b09      	ldr	r3, [sp, #36]	@ 0x24
    5e68:	900a      	str	r0, [sp, #40]	@ 0x28
    5e6a:	f9b3 300c 	ldrsh.w	r3, [r3, #12]
    5e6e:	f043 0340 	orr.w	r3, r3, #64	@ 0x40
    5e72:	e72e      	b.n	5cd2 <_svfprintf_r+0x198a>
    5e74:	0000a2c8 	.word	0x0000a2c8
    5e78:	0000a2c4 	.word	0x0000a2c4
    5e7c:	3fe00000 	.word	0x3fe00000
    5e80:	0000a464 	.word	0x0000a464

00005e84 <__ssprint_r>:
    5e84:	e92d 43f8 	stmdb	sp!, {r3, r4, r5, r6, r7, r8, r9, lr}
    5e88:	4615      	mov	r5, r2
    5e8a:	6892      	ldr	r2, [r2, #8]
    5e8c:	682c      	ldr	r4, [r5, #0]
    5e8e:	b1fa      	cbz	r2, 5ed0 <__ssprint_r+0x4c>
    5e90:	4680      	mov	r8, r0
    5e92:	4689      	mov	r9, r1
    5e94:	3408      	adds	r4, #8
    5e96:	e001      	b.n	5e9c <__ssprint_r+0x18>
    5e98:	3408      	adds	r4, #8
    5e9a:	b1cf      	cbz	r7, 5ed0 <__ssprint_r+0x4c>
    5e9c:	686b      	ldr	r3, [r5, #4]
    5e9e:	1e59      	subs	r1, r3, #1
    5ea0:	2b00      	cmp	r3, #0
    5ea2:	4617      	mov	r7, r2
    5ea4:	6069      	str	r1, [r5, #4]
    5ea6:	dd13      	ble.n	5ed0 <__ssprint_r+0x4c>
    5ea8:	f854 6c04 	ldr.w	r6, [r4, #-4]
    5eac:	2e00      	cmp	r6, #0
    5eae:	d0f3      	beq.n	5e98 <__ssprint_r+0x14>
    5eb0:	4633      	mov	r3, r6
    5eb2:	f854 2c08 	ldr.w	r2, [r4, #-8]
    5eb6:	4649      	mov	r1, r9
    5eb8:	4640      	mov	r0, r8
    5eba:	f001 fed1 	bl	7c60 <__ssputs_r>
    5ebe:	1c43      	adds	r3, r0, #1
    5ec0:	d007      	beq.n	5ed2 <__ssprint_r+0x4e>
    5ec2:	68aa      	ldr	r2, [r5, #8]
    5ec4:	1b92      	subs	r2, r2, r6
    5ec6:	4617      	mov	r7, r2
    5ec8:	60aa      	str	r2, [r5, #8]
    5eca:	3408      	adds	r4, #8
    5ecc:	2f00      	cmp	r7, #0
    5ece:	d1e5      	bne.n	5e9c <__ssprint_r+0x18>
    5ed0:	2000      	movs	r0, #0
    5ed2:	2300      	movs	r3, #0
    5ed4:	e9c5 3301 	strd	r3, r3, [r5, #4]
    5ed8:	e8bd 83f8 	ldmia.w	sp!, {r3, r4, r5, r6, r7, r8, r9, pc}

00005edc <_fclose_r>:
    5edc:	b570      	push	{r4, r5, r6, lr}
    5ede:	2900      	cmp	r1, #0
    5ee0:	d03f      	beq.n	5f62 <_fclose_r+0x86>
    5ee2:	4606      	mov	r6, r0
    5ee4:	460c      	mov	r4, r1
    5ee6:	b110      	cbz	r0, 5eee <_fclose_r+0x12>
    5ee8:	6b43      	ldr	r3, [r0, #52]	@ 0x34
    5eea:	2b00      	cmp	r3, #0
    5eec:	d03c      	beq.n	5f68 <_fclose_r+0x8c>
    5eee:	6e63      	ldr	r3, [r4, #100]	@ 0x64
    5ef0:	f9b4 200c 	ldrsh.w	r2, [r4, #12]
    5ef4:	07dd      	lsls	r5, r3, #31
    5ef6:	d432      	bmi.n	5f5e <_fclose_r+0x82>
    5ef8:	0590      	lsls	r0, r2, #22
    5efa:	d538      	bpl.n	5f6e <_fclose_r+0x92>
    5efc:	4621      	mov	r1, r4
    5efe:	4630      	mov	r0, r6
    5f00:	f000 f84c 	bl	5f9c <__sflush_r>
    5f04:	6ae3      	ldr	r3, [r4, #44]	@ 0x2c
    5f06:	4605      	mov	r5, r0
    5f08:	b133      	cbz	r3, 5f18 <_fclose_r+0x3c>
    5f0a:	69e1      	ldr	r1, [r4, #28]
    5f0c:	4630      	mov	r0, r6
    5f0e:	4798      	blx	r3
    5f10:	2800      	cmp	r0, #0
    5f12:	bfb8      	it	lt
    5f14:	f04f 35ff 	movlt.w	r5, #4294967295
    5f18:	89a3      	ldrh	r3, [r4, #12]
    5f1a:	061a      	lsls	r2, r3, #24
    5f1c:	d439      	bmi.n	5f92 <_fclose_r+0xb6>
    5f1e:	6b21      	ldr	r1, [r4, #48]	@ 0x30
    5f20:	b141      	cbz	r1, 5f34 <_fclose_r+0x58>
    5f22:	f104 0340 	add.w	r3, r4, #64	@ 0x40
    5f26:	4299      	cmp	r1, r3
    5f28:	d002      	beq.n	5f30 <_fclose_r+0x54>
    5f2a:	4630      	mov	r0, r6
    5f2c:	f7fd fe52 	bl	3bd4 <_free_r>
    5f30:	2300      	movs	r3, #0
    5f32:	6323      	str	r3, [r4, #48]	@ 0x30
    5f34:	6c61      	ldr	r1, [r4, #68]	@ 0x44
    5f36:	b121      	cbz	r1, 5f42 <_fclose_r+0x66>
    5f38:	4630      	mov	r0, r6
    5f3a:	f7fd fe4b 	bl	3bd4 <_free_r>
    5f3e:	2300      	movs	r3, #0
    5f40:	6463      	str	r3, [r4, #68]	@ 0x44
    5f42:	f7fd fbed 	bl	3720 <__sfp_lock_acquire>
    5f46:	6e63      	ldr	r3, [r4, #100]	@ 0x64
    5f48:	2200      	movs	r2, #0
    5f4a:	07db      	lsls	r3, r3, #31
    5f4c:	81a2      	strh	r2, [r4, #12]
    5f4e:	d51c      	bpl.n	5f8a <_fclose_r+0xae>
    5f50:	6da0      	ldr	r0, [r4, #88]	@ 0x58
    5f52:	f7fd fd6d 	bl	3a30 <__retarget_lock_close_recursive>
    5f56:	f7fd fbe9 	bl	372c <__sfp_lock_release>
    5f5a:	4628      	mov	r0, r5
    5f5c:	bd70      	pop	{r4, r5, r6, pc}
    5f5e:	2a00      	cmp	r2, #0
    5f60:	d1cc      	bne.n	5efc <_fclose_r+0x20>
    5f62:	2500      	movs	r5, #0
    5f64:	4628      	mov	r0, r5
    5f66:	bd70      	pop	{r4, r5, r6, pc}
    5f68:	f7fd fbbc 	bl	36e4 <__sinit>
    5f6c:	e7bf      	b.n	5eee <_fclose_r+0x12>
    5f6e:	6da0      	ldr	r0, [r4, #88]	@ 0x58
    5f70:	f7fd fd60 	bl	3a34 <__retarget_lock_acquire_recursive>
    5f74:	f9b4 300c 	ldrsh.w	r3, [r4, #12]
    5f78:	2b00      	cmp	r3, #0
    5f7a:	d1bf      	bne.n	5efc <_fclose_r+0x20>
    5f7c:	6e63      	ldr	r3, [r4, #100]	@ 0x64
    5f7e:	07d9      	lsls	r1, r3, #31
    5f80:	d4ef      	bmi.n	5f62 <_fclose_r+0x86>
    5f82:	6da0      	ldr	r0, [r4, #88]	@ 0x58
    5f84:	f7fd fd58 	bl	3a38 <__retarget_lock_release_recursive>
    5f88:	e7eb      	b.n	5f62 <_fclose_r+0x86>
    5f8a:	6da0      	ldr	r0, [r4, #88]	@ 0x58
    5f8c:	f7fd fd54 	bl	3a38 <__retarget_lock_release_recursive>
    5f90:	e7de      	b.n	5f50 <_fclose_r+0x74>
    5f92:	6921      	ldr	r1, [r4, #16]
    5f94:	4630      	mov	r0, r6
    5f96:	f7fd fe1d 	bl	3bd4 <_free_r>
    5f9a:	e7c0      	b.n	5f1e <_fclose_r+0x42>

00005f9c <__sflush_r>:
    5f9c:	f9b1 200c 	ldrsh.w	r2, [r1, #12]
    5fa0:	e92d 41f0 	stmdb	sp!, {r4, r5, r6, r7, r8, lr}
    5fa4:	0716      	lsls	r6, r2, #28
    5fa6:	460c      	mov	r4, r1
    5fa8:	4680      	mov	r8, r0
    5faa:	d44e      	bmi.n	604a <__sflush_r+0xae>
    5fac:	6849      	ldr	r1, [r1, #4]
    5fae:	f442 6300 	orr.w	r3, r2, #2048	@ 0x800
    5fb2:	2900      	cmp	r1, #0
    5fb4:	81a3      	strh	r3, [r4, #12]
    5fb6:	dd63      	ble.n	6080 <__sflush_r+0xe4>
    5fb8:	6aa5      	ldr	r5, [r4, #40]	@ 0x28
    5fba:	2d00      	cmp	r5, #0
    5fbc:	d042      	beq.n	6044 <__sflush_r+0xa8>
    5fbe:	2100      	movs	r1, #0
    5fc0:	f412 5280 	ands.w	r2, r2, #4096	@ 0x1000
    5fc4:	f8d8 6000 	ldr.w	r6, [r8]
    5fc8:	f8c8 1000 	str.w	r1, [r8]
    5fcc:	69e1      	ldr	r1, [r4, #28]
    5fce:	d164      	bne.n	609a <__sflush_r+0xfe>
    5fd0:	2301      	movs	r3, #1
    5fd2:	4640      	mov	r0, r8
    5fd4:	47a8      	blx	r5
    5fd6:	1c45      	adds	r5, r0, #1
    5fd8:	4602      	mov	r2, r0
    5fda:	d06e      	beq.n	60ba <__sflush_r+0x11e>
    5fdc:	f9b4 300c 	ldrsh.w	r3, [r4, #12]
    5fe0:	6aa5      	ldr	r5, [r4, #40]	@ 0x28
    5fe2:	69e1      	ldr	r1, [r4, #28]
    5fe4:	0758      	lsls	r0, r3, #29
    5fe6:	d505      	bpl.n	5ff4 <__sflush_r+0x58>
    5fe8:	6863      	ldr	r3, [r4, #4]
    5fea:	1ad2      	subs	r2, r2, r3
    5fec:	6b23      	ldr	r3, [r4, #48]	@ 0x30
    5fee:	b10b      	cbz	r3, 5ff4 <__sflush_r+0x58>
    5ff0:	6be3      	ldr	r3, [r4, #60]	@ 0x3c
    5ff2:	1ad2      	subs	r2, r2, r3
    5ff4:	2300      	movs	r3, #0
    5ff6:	4640      	mov	r0, r8
    5ff8:	47a8      	blx	r5
    5ffa:	1c43      	adds	r3, r0, #1
    5ffc:	d14f      	bne.n	609e <__sflush_r+0x102>
    5ffe:	f8d8 1000 	ldr.w	r1, [r8]
    6002:	f9b4 300c 	ldrsh.w	r3, [r4, #12]
    6006:	291d      	cmp	r1, #29
    6008:	d840      	bhi.n	608c <__sflush_r+0xf0>
    600a:	4a31      	ldr	r2, [pc, #196]	@ (60d0 <__sflush_r+0x134>)
    600c:	40ca      	lsrs	r2, r1
    600e:	07d7      	lsls	r7, r2, #31
    6010:	d53c      	bpl.n	608c <__sflush_r+0xf0>
    6012:	6922      	ldr	r2, [r4, #16]
    6014:	6022      	str	r2, [r4, #0]
    6016:	f423 6200 	bic.w	r2, r3, #2048	@ 0x800
    601a:	81a2      	strh	r2, [r4, #12]
    601c:	04dd      	lsls	r5, r3, #19
    601e:	f04f 0200 	mov.w	r2, #0
    6022:	6062      	str	r2, [r4, #4]
    6024:	d501      	bpl.n	602a <__sflush_r+0x8e>
    6026:	2900      	cmp	r1, #0
    6028:	d045      	beq.n	60b6 <__sflush_r+0x11a>
    602a:	6b21      	ldr	r1, [r4, #48]	@ 0x30
    602c:	f8c8 6000 	str.w	r6, [r8]
    6030:	b141      	cbz	r1, 6044 <__sflush_r+0xa8>
    6032:	f104 0340 	add.w	r3, r4, #64	@ 0x40
    6036:	4299      	cmp	r1, r3
    6038:	d002      	beq.n	6040 <__sflush_r+0xa4>
    603a:	4640      	mov	r0, r8
    603c:	f7fd fdca 	bl	3bd4 <_free_r>
    6040:	2300      	movs	r3, #0
    6042:	6323      	str	r3, [r4, #48]	@ 0x30
    6044:	2000      	movs	r0, #0
    6046:	e8bd 81f0 	ldmia.w	sp!, {r4, r5, r6, r7, r8, pc}
    604a:	690e      	ldr	r6, [r1, #16]
    604c:	2e00      	cmp	r6, #0
    604e:	d0f9      	beq.n	6044 <__sflush_r+0xa8>
    6050:	680d      	ldr	r5, [r1, #0]
    6052:	600e      	str	r6, [r1, #0]
    6054:	0792      	lsls	r2, r2, #30
    6056:	bf0c      	ite	eq
    6058:	694b      	ldreq	r3, [r1, #20]
    605a:	2300      	movne	r3, #0
    605c:	1bad      	subs	r5, r5, r6
    605e:	608b      	str	r3, [r1, #8]
    6060:	e00b      	b.n	607a <__sflush_r+0xde>
    6062:	462b      	mov	r3, r5
    6064:	4632      	mov	r2, r6
    6066:	69e1      	ldr	r1, [r4, #28]
    6068:	6a67      	ldr	r7, [r4, #36]	@ 0x24
    606a:	4640      	mov	r0, r8
    606c:	47b8      	blx	r7
    606e:	f1b0 0c00 	subs.w	ip, r0, #0
    6072:	eba5 050c 	sub.w	r5, r5, ip
    6076:	4466      	add	r6, ip
    6078:	dd06      	ble.n	6088 <__sflush_r+0xec>
    607a:	2d00      	cmp	r5, #0
    607c:	dcf1      	bgt.n	6062 <__sflush_r+0xc6>
    607e:	e7e1      	b.n	6044 <__sflush_r+0xa8>
    6080:	6be1      	ldr	r1, [r4, #60]	@ 0x3c
    6082:	2900      	cmp	r1, #0
    6084:	dc98      	bgt.n	5fb8 <__sflush_r+0x1c>
    6086:	e7dd      	b.n	6044 <__sflush_r+0xa8>
    6088:	f9b4 300c 	ldrsh.w	r3, [r4, #12]
    608c:	f043 0340 	orr.w	r3, r3, #64	@ 0x40
    6090:	81a3      	strh	r3, [r4, #12]
    6092:	f04f 30ff 	mov.w	r0, #4294967295
    6096:	e8bd 81f0 	ldmia.w	sp!, {r4, r5, r6, r7, r8, pc}
    609a:	6d22      	ldr	r2, [r4, #80]	@ 0x50
    609c:	e7a2      	b.n	5fe4 <__sflush_r+0x48>
    609e:	f9b4 300c 	ldrsh.w	r3, [r4, #12]
    60a2:	6922      	ldr	r2, [r4, #16]
    60a4:	6022      	str	r2, [r4, #0]
    60a6:	f423 6200 	bic.w	r2, r3, #2048	@ 0x800
    60aa:	81a2      	strh	r2, [r4, #12]
    60ac:	04db      	lsls	r3, r3, #19
    60ae:	f04f 0200 	mov.w	r2, #0
    60b2:	6062      	str	r2, [r4, #4]
    60b4:	d5b9      	bpl.n	602a <__sflush_r+0x8e>
    60b6:	6520      	str	r0, [r4, #80]	@ 0x50
    60b8:	e7b7      	b.n	602a <__sflush_r+0x8e>
    60ba:	f8d8 3000 	ldr.w	r3, [r8]
    60be:	2b00      	cmp	r3, #0
    60c0:	d08c      	beq.n	5fdc <__sflush_r+0x40>
    60c2:	2b1d      	cmp	r3, #29
    60c4:	d001      	beq.n	60ca <__sflush_r+0x12e>
    60c6:	2b16      	cmp	r3, #22
    60c8:	d1de      	bne.n	6088 <__sflush_r+0xec>
    60ca:	f8c8 6000 	str.w	r6, [r8]
    60ce:	e7b9      	b.n	6044 <__sflush_r+0xa8>
    60d0:	20400001 	.word	0x20400001

000060d4 <_fflush_r>:
    60d4:	b538      	push	{r3, r4, r5, lr}
    60d6:	460c      	mov	r4, r1
    60d8:	4605      	mov	r5, r0
    60da:	b108      	cbz	r0, 60e0 <_fflush_r+0xc>
    60dc:	6b43      	ldr	r3, [r0, #52]	@ 0x34
    60de:	b303      	cbz	r3, 6122 <_fflush_r+0x4e>
    60e0:	f9b4 000c 	ldrsh.w	r0, [r4, #12]
    60e4:	b188      	cbz	r0, 610a <_fflush_r+0x36>
    60e6:	6e63      	ldr	r3, [r4, #100]	@ 0x64
    60e8:	07db      	lsls	r3, r3, #31
    60ea:	d401      	bmi.n	60f0 <_fflush_r+0x1c>
    60ec:	0581      	lsls	r1, r0, #22
    60ee:	d50f      	bpl.n	6110 <_fflush_r+0x3c>
    60f0:	4628      	mov	r0, r5
    60f2:	4621      	mov	r1, r4
    60f4:	f7ff ff52 	bl	5f9c <__sflush_r>
    60f8:	6e63      	ldr	r3, [r4, #100]	@ 0x64
    60fa:	07da      	lsls	r2, r3, #31
    60fc:	4605      	mov	r5, r0
    60fe:	d402      	bmi.n	6106 <_fflush_r+0x32>
    6100:	89a3      	ldrh	r3, [r4, #12]
    6102:	059b      	lsls	r3, r3, #22
    6104:	d508      	bpl.n	6118 <_fflush_r+0x44>
    6106:	4628      	mov	r0, r5
    6108:	bd38      	pop	{r3, r4, r5, pc}
    610a:	4605      	mov	r5, r0
    610c:	4628      	mov	r0, r5
    610e:	bd38      	pop	{r3, r4, r5, pc}
    6110:	6da0      	ldr	r0, [r4, #88]	@ 0x58
    6112:	f7fd fc8f 	bl	3a34 <__retarget_lock_acquire_recursive>
    6116:	e7eb      	b.n	60f0 <_fflush_r+0x1c>
    6118:	6da0      	ldr	r0, [r4, #88]	@ 0x58
    611a:	f7fd fc8d 	bl	3a38 <__retarget_lock_release_recursive>
    611e:	4628      	mov	r0, r5
    6120:	bd38      	pop	{r3, r4, r5, pc}
    6122:	f7fd fadf 	bl	36e4 <__sinit>
    6126:	e7db      	b.n	60e0 <_fflush_r+0xc>

00006128 <strncpy>:
    6128:	ea40 0301 	orr.w	r3, r0, r1
    612c:	079b      	lsls	r3, r3, #30
    612e:	b510      	push	{r4, lr}
    6130:	d101      	bne.n	6136 <strncpy+0xe>
    6132:	2a03      	cmp	r2, #3
    6134:	d817      	bhi.n	6166 <strncpy+0x3e>
    6136:	4684      	mov	ip, r0
    6138:	f101 3eff 	add.w	lr, r1, #4294967295
    613c:	e007      	b.n	614e <strncpy+0x26>
    613e:	f81e 1f01 	ldrb.w	r1, [lr, #1]!
    6142:	f803 1b01 	strb.w	r1, [r3], #1
    6146:	1e54      	subs	r4, r2, #1
    6148:	b129      	cbz	r1, 6156 <strncpy+0x2e>
    614a:	469c      	mov	ip, r3
    614c:	4622      	mov	r2, r4
    614e:	4663      	mov	r3, ip
    6150:	2a00      	cmp	r2, #0
    6152:	d1f4      	bne.n	613e <strncpy+0x16>
    6154:	bd10      	pop	{r4, pc}
    6156:	4494      	add	ip, r2
    6158:	2c00      	cmp	r4, #0
    615a:	d0fb      	beq.n	6154 <strncpy+0x2c>
    615c:	f803 1b01 	strb.w	r1, [r3], #1
    6160:	4563      	cmp	r3, ip
    6162:	d1fb      	bne.n	615c <strncpy+0x34>
    6164:	bd10      	pop	{r4, pc}
    6166:	468e      	mov	lr, r1
    6168:	4684      	mov	ip, r0
    616a:	f8de 4000 	ldr.w	r4, [lr]
    616e:	f1a4 3301 	sub.w	r3, r4, #16843009	@ 0x1010101
    6172:	ea23 0304 	bic.w	r3, r3, r4
    6176:	f013 3f80 	tst.w	r3, #2155905152	@ 0x80808080
    617a:	4671      	mov	r1, lr
    617c:	f10e 0e04 	add.w	lr, lr, #4
    6180:	d1da      	bne.n	6138 <strncpy+0x10>
    6182:	3a04      	subs	r2, #4
    6184:	2a03      	cmp	r2, #3
    6186:	f84c 4b04 	str.w	r4, [ip], #4
    618a:	d8ee      	bhi.n	616a <strncpy+0x42>
    618c:	4671      	mov	r1, lr
    618e:	e7d3      	b.n	6138 <strncpy+0x10>

00006190 <__locale_mb_cur_max>:
    6190:	4b01      	ldr	r3, [pc, #4]	@ (6198 <__locale_mb_cur_max+0x8>)
    6192:	f893 0128 	ldrb.w	r0, [r3, #296]	@ 0x128
    6196:	4770      	bx	lr
    6198:	1ffd05e8 	.word	0x1ffd05e8

0000619c <_localeconv_r>:
    619c:	4800      	ldr	r0, [pc, #0]	@ (61a0 <_localeconv_r+0x4>)
    619e:	4770      	bx	lr
    61a0:	1ffd06d8 	.word	0x1ffd06d8

000061a4 <_sbrk_r>:
    61a4:	b538      	push	{r3, r4, r5, lr}
    61a6:	4d07      	ldr	r5, [pc, #28]	@ (61c4 <_sbrk_r+0x20>)
    61a8:	2200      	movs	r2, #0
    61aa:	4604      	mov	r4, r0
    61ac:	4608      	mov	r0, r1
    61ae:	602a      	str	r2, [r5, #0]
    61b0:	f003 fbb4 	bl	991c <_sbrk>
    61b4:	1c43      	adds	r3, r0, #1
    61b6:	d000      	beq.n	61ba <_sbrk_r+0x16>
    61b8:	bd38      	pop	{r3, r4, r5, pc}
    61ba:	682b      	ldr	r3, [r5, #0]
    61bc:	2b00      	cmp	r3, #0
    61be:	d0fb      	beq.n	61b8 <_sbrk_r+0x14>
    61c0:	6023      	str	r3, [r4, #0]
    61c2:	bd38      	pop	{r3, r4, r5, pc}
    61c4:	1ffd3128 	.word	0x1ffd3128

000061c8 <__libc_fini_array>:
    61c8:	b538      	push	{r3, r4, r5, lr}
    61ca:	4d07      	ldr	r5, [pc, #28]	@ (61e8 <__libc_fini_array+0x20>)
    61cc:	4c07      	ldr	r4, [pc, #28]	@ (61ec <__libc_fini_array+0x24>)
    61ce:	1b2c      	subs	r4, r5, r4
    61d0:	10a4      	asrs	r4, r4, #2
    61d2:	d005      	beq.n	61e0 <__libc_fini_array+0x18>
    61d4:	3c01      	subs	r4, #1
    61d6:	f855 3d04 	ldr.w	r3, [r5, #-4]!
    61da:	4798      	blx	r3
    61dc:	2c00      	cmp	r4, #0
    61de:	d1f9      	bne.n	61d4 <__libc_fini_array+0xc>
    61e0:	e8bd 4038 	ldmia.w	sp!, {r3, r4, r5, lr}
    61e4:	f004 b844 	b.w	a270 <_fini>
    61e8:	1ffd0764 	.word	0x1ffd0764
    61ec:	1ffd0760 	.word	0x1ffd0760

000061f0 <sysconf>:
    61f0:	2808      	cmp	r0, #8
    61f2:	d102      	bne.n	61fa <sysconf+0xa>
    61f4:	f44f 5080 	mov.w	r0, #4096	@ 0x1000
    61f8:	4770      	bx	lr
    61fa:	b508      	push	{r3, lr}
    61fc:	f7fd fbe8 	bl	39d0 <__errno>
    6200:	2316      	movs	r3, #22
    6202:	6003      	str	r3, [r0, #0]
    6204:	f04f 30ff 	mov.w	r0, #4294967295
    6208:	bd08      	pop	{r3, pc}
    620a:	bf00      	nop
    620c:	0000      	movs	r0, r0
	...

00006210 <memchr>:
    6210:	f001 01ff 	and.w	r1, r1, #255	@ 0xff
    6214:	2a10      	cmp	r2, #16
    6216:	db2b      	blt.n	6270 <memchr+0x60>
    6218:	f010 0f07 	tst.w	r0, #7
    621c:	d008      	beq.n	6230 <memchr+0x20>
    621e:	f810 3b01 	ldrb.w	r3, [r0], #1
    6222:	3a01      	subs	r2, #1
    6224:	428b      	cmp	r3, r1
    6226:	d02d      	beq.n	6284 <memchr+0x74>
    6228:	f010 0f07 	tst.w	r0, #7
    622c:	b342      	cbz	r2, 6280 <memchr+0x70>
    622e:	d1f6      	bne.n	621e <memchr+0xe>
    6230:	b4f0      	push	{r4, r5, r6, r7}
    6232:	ea41 2101 	orr.w	r1, r1, r1, lsl #8
    6236:	ea41 4101 	orr.w	r1, r1, r1, lsl #16
    623a:	f022 0407 	bic.w	r4, r2, #7
    623e:	f07f 0700 	mvns.w	r7, #0
    6242:	2300      	movs	r3, #0
    6244:	e8f0 5602 	ldrd	r5, r6, [r0], #8
    6248:	3c08      	subs	r4, #8
    624a:	ea85 0501 	eor.w	r5, r5, r1
    624e:	ea86 0601 	eor.w	r6, r6, r1
    6252:	fa85 f547 	uadd8	r5, r5, r7
    6256:	faa3 f587 	sel	r5, r3, r7
    625a:	fa86 f647 	uadd8	r6, r6, r7
    625e:	faa5 f687 	sel	r6, r5, r7
    6262:	b98e      	cbnz	r6, 6288 <memchr+0x78>
    6264:	d1ee      	bne.n	6244 <memchr+0x34>
    6266:	bcf0      	pop	{r4, r5, r6, r7}
    6268:	f001 01ff 	and.w	r1, r1, #255	@ 0xff
    626c:	f002 0207 	and.w	r2, r2, #7
    6270:	b132      	cbz	r2, 6280 <memchr+0x70>
    6272:	f810 3b01 	ldrb.w	r3, [r0], #1
    6276:	3a01      	subs	r2, #1
    6278:	ea83 0301 	eor.w	r3, r3, r1
    627c:	b113      	cbz	r3, 6284 <memchr+0x74>
    627e:	d1f8      	bne.n	6272 <memchr+0x62>
    6280:	2000      	movs	r0, #0
    6282:	4770      	bx	lr
    6284:	3801      	subs	r0, #1
    6286:	4770      	bx	lr
    6288:	2d00      	cmp	r5, #0
    628a:	bf06      	itte	eq
    628c:	4635      	moveq	r5, r6
    628e:	3803      	subeq	r0, #3
    6290:	3807      	subne	r0, #7
    6292:	f015 0f01 	tst.w	r5, #1
    6296:	d107      	bne.n	62a8 <memchr+0x98>
    6298:	3001      	adds	r0, #1
    629a:	f415 7f80 	tst.w	r5, #256	@ 0x100
    629e:	bf02      	ittt	eq
    62a0:	3001      	addeq	r0, #1
    62a2:	f415 3fc0 	tsteq.w	r5, #98304	@ 0x18000
    62a6:	3001      	addeq	r0, #1
    62a8:	bcf0      	pop	{r4, r5, r6, r7}
    62aa:	3801      	subs	r0, #1
    62ac:	4770      	bx	lr
    62ae:	bf00      	nop
	...

000062c0 <strlen>:
    62c0:	b430      	push	{r4, r5}
    62c2:	f890 f000 	pld	[r0]
    62c6:	f020 0107 	bic.w	r1, r0, #7
    62ca:	f06f 0c00 	mvn.w	ip, #0
    62ce:	f010 0407 	ands.w	r4, r0, #7
    62d2:	f891 f020 	pld	[r1, #32]
    62d6:	f040 8048 	bne.w	636a <strlen+0xaa>
    62da:	f04f 0400 	mov.w	r4, #0
    62de:	f06f 0007 	mvn.w	r0, #7
    62e2:	e9d1 2300 	ldrd	r2, r3, [r1]
    62e6:	f891 f040 	pld	[r1, #64]	@ 0x40
    62ea:	f100 0008 	add.w	r0, r0, #8
    62ee:	fa82 f24c 	uadd8	r2, r2, ip
    62f2:	faa4 f28c 	sel	r2, r4, ip
    62f6:	fa83 f34c 	uadd8	r3, r3, ip
    62fa:	faa2 f38c 	sel	r3, r2, ip
    62fe:	bb4b      	cbnz	r3, 6354 <strlen+0x94>
    6300:	e9d1 2302 	ldrd	r2, r3, [r1, #8]
    6304:	fa82 f24c 	uadd8	r2, r2, ip
    6308:	f100 0008 	add.w	r0, r0, #8
    630c:	faa4 f28c 	sel	r2, r4, ip
    6310:	fa83 f34c 	uadd8	r3, r3, ip
    6314:	faa2 f38c 	sel	r3, r2, ip
    6318:	b9e3      	cbnz	r3, 6354 <strlen+0x94>
    631a:	e9d1 2304 	ldrd	r2, r3, [r1, #16]
    631e:	fa82 f24c 	uadd8	r2, r2, ip
    6322:	f100 0008 	add.w	r0, r0, #8
    6326:	faa4 f28c 	sel	r2, r4, ip
    632a:	fa83 f34c 	uadd8	r3, r3, ip
    632e:	faa2 f38c 	sel	r3, r2, ip
    6332:	b97b      	cbnz	r3, 6354 <strlen+0x94>
    6334:	e9d1 2306 	ldrd	r2, r3, [r1, #24]
    6338:	f101 0120 	add.w	r1, r1, #32
    633c:	fa82 f24c 	uadd8	r2, r2, ip
    6340:	f100 0008 	add.w	r0, r0, #8
    6344:	faa4 f28c 	sel	r2, r4, ip
    6348:	fa83 f34c 	uadd8	r3, r3, ip
    634c:	faa2 f38c 	sel	r3, r2, ip
    6350:	2b00      	cmp	r3, #0
    6352:	d0c6      	beq.n	62e2 <strlen+0x22>
    6354:	2a00      	cmp	r2, #0
    6356:	bf04      	itt	eq
    6358:	3004      	addeq	r0, #4
    635a:	461a      	moveq	r2, r3
    635c:	ba12      	rev	r2, r2
    635e:	fab2 f282 	clz	r2, r2
    6362:	eb00 00d2 	add.w	r0, r0, r2, lsr #3
    6366:	bc30      	pop	{r4, r5}
    6368:	4770      	bx	lr
    636a:	e9d1 2300 	ldrd	r2, r3, [r1]
    636e:	f004 0503 	and.w	r5, r4, #3
    6372:	f1c4 0000 	rsb	r0, r4, #0
    6376:	ea4f 05c5 	mov.w	r5, r5, lsl #3
    637a:	f014 0f04 	tst.w	r4, #4
    637e:	f891 f040 	pld	[r1, #64]	@ 0x40
    6382:	fa0c f505 	lsl.w	r5, ip, r5
    6386:	ea62 0205 	orn	r2, r2, r5
    638a:	bf1c      	itt	ne
    638c:	ea63 0305 	ornne	r3, r3, r5
    6390:	4662      	movne	r2, ip
    6392:	f04f 0400 	mov.w	r4, #0
    6396:	e7aa      	b.n	62ee <strlen+0x2e>

00006398 <frexp>:
    6398:	b570      	push	{r4, r5, r6, lr}
    639a:	ec55 4b10 	vmov	r4, r5, d0
    639e:	4606      	mov	r6, r0
    63a0:	4813      	ldr	r0, [pc, #76]	@ (63f0 <frexp+0x58>)
    63a2:	f025 4300 	bic.w	r3, r5, #2147483648	@ 0x80000000
    63a6:	2100      	movs	r1, #0
    63a8:	4283      	cmp	r3, r0
    63aa:	6031      	str	r1, [r6, #0]
    63ac:	d81d      	bhi.n	63ea <frexp+0x52>
    63ae:	4620      	mov	r0, r4
    63b0:	4318      	orrs	r0, r3
    63b2:	d01a      	beq.n	63ea <frexp+0x52>
    63b4:	480f      	ldr	r0, [pc, #60]	@ (63f4 <frexp+0x5c>)
    63b6:	4028      	ands	r0, r5
    63b8:	462a      	mov	r2, r5
    63ba:	b958      	cbnz	r0, 63d4 <frexp+0x3c>
    63bc:	4b0e      	ldr	r3, [pc, #56]	@ (63f8 <frexp+0x60>)
    63be:	2200      	movs	r2, #0
    63c0:	4620      	mov	r0, r4
    63c2:	4629      	mov	r1, r5
    63c4:	f003 fc76 	bl	9cb4 <__aeabi_dmul>
    63c8:	460a      	mov	r2, r1
    63ca:	f021 4300 	bic.w	r3, r1, #2147483648	@ 0x80000000
    63ce:	4604      	mov	r4, r0
    63d0:	f06f 0135 	mvn.w	r1, #53	@ 0x35
    63d4:	151b      	asrs	r3, r3, #20
    63d6:	f36f 521e 	bfc	r2, #20, #11
    63da:	f2a3 33fe 	subw	r3, r3, #1022	@ 0x3fe
    63de:	f042 557f 	orr.w	r5, r2, #1069547520	@ 0x3fc00000
    63e2:	440b      	add	r3, r1
    63e4:	f445 1500 	orr.w	r5, r5, #2097152	@ 0x200000
    63e8:	6033      	str	r3, [r6, #0]
    63ea:	ec45 4b10 	vmov	d0, r4, r5
    63ee:	bd70      	pop	{r4, r5, r6, pc}
    63f0:	7fefffff 	.word	0x7fefffff
    63f4:	7ff00000 	.word	0x7ff00000
    63f8:	43500000 	.word	0x43500000

000063fc <__register_exitproc>:
    63fc:	e92d 43f8 	stmdb	sp!, {r3, r4, r5, r6, r7, r8, r9, lr}
    6400:	4d1b      	ldr	r5, [pc, #108]	@ (6470 <__register_exitproc+0x74>)
    6402:	4606      	mov	r6, r0
    6404:	6828      	ldr	r0, [r5, #0]
    6406:	4698      	mov	r8, r3
    6408:	460f      	mov	r7, r1
    640a:	4691      	mov	r9, r2
    640c:	f7fd fb12 	bl	3a34 <__retarget_lock_acquire_recursive>
    6410:	4b18      	ldr	r3, [pc, #96]	@ (6474 <__register_exitproc+0x78>)
    6412:	681c      	ldr	r4, [r3, #0]
    6414:	b31c      	cbz	r4, 645e <__register_exitproc+0x62>
    6416:	6828      	ldr	r0, [r5, #0]
    6418:	6865      	ldr	r5, [r4, #4]
    641a:	2d1f      	cmp	r5, #31
    641c:	dc22      	bgt.n	6464 <__register_exitproc+0x68>
    641e:	b94e      	cbnz	r6, 6434 <__register_exitproc+0x38>
    6420:	1c6b      	adds	r3, r5, #1
    6422:	3502      	adds	r5, #2
    6424:	6063      	str	r3, [r4, #4]
    6426:	f844 7025 	str.w	r7, [r4, r5, lsl #2]
    642a:	f7fd fb05 	bl	3a38 <__retarget_lock_release_recursive>
    642e:	2000      	movs	r0, #0
    6430:	e8bd 83f8 	ldmia.w	sp!, {r3, r4, r5, r6, r7, r8, r9, pc}
    6434:	eb04 0185 	add.w	r1, r4, r5, lsl #2
    6438:	2301      	movs	r3, #1
    643a:	f8c1 9088 	str.w	r9, [r1, #136]	@ 0x88
    643e:	f8d4 2188 	ldr.w	r2, [r4, #392]	@ 0x188
    6442:	40ab      	lsls	r3, r5
    6444:	431a      	orrs	r2, r3
    6446:	2e02      	cmp	r6, #2
    6448:	f8c4 2188 	str.w	r2, [r4, #392]	@ 0x188
    644c:	f8c1 8108 	str.w	r8, [r1, #264]	@ 0x108
    6450:	d1e6      	bne.n	6420 <__register_exitproc+0x24>
    6452:	f8d4 218c 	ldr.w	r2, [r4, #396]	@ 0x18c
    6456:	431a      	orrs	r2, r3
    6458:	f8c4 218c 	str.w	r2, [r4, #396]	@ 0x18c
    645c:	e7e0      	b.n	6420 <__register_exitproc+0x24>
    645e:	4c06      	ldr	r4, [pc, #24]	@ (6478 <__register_exitproc+0x7c>)
    6460:	601c      	str	r4, [r3, #0]
    6462:	e7d8      	b.n	6416 <__register_exitproc+0x1a>
    6464:	f7fd fae8 	bl	3a38 <__retarget_lock_release_recursive>
    6468:	f04f 30ff 	mov.w	r0, #4294967295
    646c:	e7e0      	b.n	6430 <__register_exitproc+0x34>
    646e:	bf00      	nop
    6470:	1ffd01d0 	.word	0x1ffd01d0
    6474:	1ffd3138 	.word	0x1ffd3138
    6478:	1ffd3170 	.word	0x1ffd3170

0000647c <quorem>:
    647c:	e92d 4ff0 	stmdb	sp!, {r4, r5, r6, r7, r8, r9, sl, fp, lr}
    6480:	6903      	ldr	r3, [r0, #16]
    6482:	690c      	ldr	r4, [r1, #16]
    6484:	42a3      	cmp	r3, r4
    6486:	b083      	sub	sp, #12
    6488:	f2c0 808a 	blt.w	65a0 <quorem+0x124>
    648c:	3c01      	subs	r4, #1
    648e:	f101 0514 	add.w	r5, r1, #20
    6492:	f100 0814 	add.w	r8, r0, #20
    6496:	f855 3024 	ldr.w	r3, [r5, r4, lsl #2]
    649a:	f858 2024 	ldr.w	r2, [r8, r4, lsl #2]
    649e:	3301      	adds	r3, #1
    64a0:	429a      	cmp	r2, r3
    64a2:	468e      	mov	lr, r1
    64a4:	4681      	mov	r9, r0
    64a6:	ea4f 0184 	mov.w	r1, r4, lsl #2
    64aa:	eb05 0784 	add.w	r7, r5, r4, lsl #2
    64ae:	eb08 0a84 	add.w	sl, r8, r4, lsl #2
    64b2:	fbb2 f6f3 	udiv	r6, r2, r3
    64b6:	d33a      	bcc.n	652e <quorem+0xb2>
    64b8:	e9cd 1500 	strd	r1, r5, [sp]
    64bc:	2200      	movs	r2, #0
    64be:	46ac      	mov	ip, r5
    64c0:	4640      	mov	r0, r8
    64c2:	4613      	mov	r3, r2
    64c4:	f85c 1b04 	ldr.w	r1, [ip], #4
    64c8:	6805      	ldr	r5, [r0, #0]
    64ca:	fa1f fb81 	uxth.w	fp, r1
    64ce:	fb06 220b 	mla	r2, r6, fp, r2
    64d2:	0c09      	lsrs	r1, r1, #16
    64d4:	ea4f 4b12 	mov.w	fp, r2, lsr #16
    64d8:	fb06 bb01 	mla	fp, r6, r1, fp
    64dc:	b292      	uxth	r2, r2
    64de:	b2a9      	uxth	r1, r5
    64e0:	1a89      	subs	r1, r1, r2
    64e2:	4419      	add	r1, r3
    64e4:	fa1f f38b 	uxth.w	r3, fp
    64e8:	ebc3 4321 	rsb	r3, r3, r1, asr #16
    64ec:	eb03 4315 	add.w	r3, r3, r5, lsr #16
    64f0:	b289      	uxth	r1, r1
    64f2:	ea41 4103 	orr.w	r1, r1, r3, lsl #16
    64f6:	4567      	cmp	r7, ip
    64f8:	f840 1b04 	str.w	r1, [r0], #4
    64fc:	ea4f 421b 	mov.w	r2, fp, lsr #16
    6500:	ea4f 4323 	mov.w	r3, r3, asr #16
    6504:	d2de      	bcs.n	64c4 <quorem+0x48>
    6506:	e9dd 1500 	ldrd	r1, r5, [sp]
    650a:	f858 3001 	ldr.w	r3, [r8, r1]
    650e:	b973      	cbnz	r3, 652e <quorem+0xb2>
    6510:	f1aa 0a04 	sub.w	sl, sl, #4
    6514:	45d0      	cmp	r8, sl
    6516:	d304      	bcc.n	6522 <quorem+0xa6>
    6518:	e007      	b.n	652a <quorem+0xae>
    651a:	45d0      	cmp	r8, sl
    651c:	f104 34ff 	add.w	r4, r4, #4294967295
    6520:	d203      	bcs.n	652a <quorem+0xae>
    6522:	f85a 3904 	ldr.w	r3, [sl], #-4
    6526:	2b00      	cmp	r3, #0
    6528:	d0f7      	beq.n	651a <quorem+0x9e>
    652a:	f8c9 4010 	str.w	r4, [r9, #16]
    652e:	4671      	mov	r1, lr
    6530:	4648      	mov	r0, r9
    6532:	f001 fa17 	bl	7964 <__mcmp>
    6536:	2800      	cmp	r0, #0
    6538:	db2e      	blt.n	6598 <quorem+0x11c>
    653a:	4641      	mov	r1, r8
    653c:	2200      	movs	r2, #0
    653e:	f855 0b04 	ldr.w	r0, [r5], #4
    6542:	f8d1 c000 	ldr.w	ip, [r1]
    6546:	fa1f fe80 	uxth.w	lr, r0
    654a:	fa1f f38c 	uxth.w	r3, ip
    654e:	eba3 030e 	sub.w	r3, r3, lr
    6552:	4413      	add	r3, r2
    6554:	0c02      	lsrs	r2, r0, #16
    6556:	ebc2 4223 	rsb	r2, r2, r3, asr #16
    655a:	eb02 421c 	add.w	r2, r2, ip, lsr #16
    655e:	b29b      	uxth	r3, r3
    6560:	ea43 4302 	orr.w	r3, r3, r2, lsl #16
    6564:	42af      	cmp	r7, r5
    6566:	f841 3b04 	str.w	r3, [r1], #4
    656a:	ea4f 4222 	mov.w	r2, r2, asr #16
    656e:	d2e6      	bcs.n	653e <quorem+0xc2>
    6570:	f858 2024 	ldr.w	r2, [r8, r4, lsl #2]
    6574:	eb08 0384 	add.w	r3, r8, r4, lsl #2
    6578:	b96a      	cbnz	r2, 6596 <quorem+0x11a>
    657a:	3b04      	subs	r3, #4
    657c:	4543      	cmp	r3, r8
    657e:	d804      	bhi.n	658a <quorem+0x10e>
    6580:	e007      	b.n	6592 <quorem+0x116>
    6582:	4598      	cmp	r8, r3
    6584:	f104 34ff 	add.w	r4, r4, #4294967295
    6588:	d203      	bcs.n	6592 <quorem+0x116>
    658a:	f853 2904 	ldr.w	r2, [r3], #-4
    658e:	2a00      	cmp	r2, #0
    6590:	d0f7      	beq.n	6582 <quorem+0x106>
    6592:	f8c9 4010 	str.w	r4, [r9, #16]
    6596:	3601      	adds	r6, #1
    6598:	4630      	mov	r0, r6
    659a:	b003      	add	sp, #12
    659c:	e8bd 8ff0 	ldmia.w	sp!, {r4, r5, r6, r7, r8, r9, sl, fp, pc}
    65a0:	2000      	movs	r0, #0
    65a2:	b003      	add	sp, #12
    65a4:	e8bd 8ff0 	ldmia.w	sp!, {r4, r5, r6, r7, r8, r9, sl, fp, pc}

000065a8 <_dtoa_r>:
    65a8:	e92d 4ff0 	stmdb	sp!, {r4, r5, r6, r7, r8, r9, sl, fp, lr}
    65ac:	b09d      	sub	sp, #116	@ 0x74
    65ae:	e9cd 320a 	strd	r3, r2, [sp, #40]	@ 0x28
    65b2:	9102      	str	r1, [sp, #8]
    65b4:	6b81      	ldr	r1, [r0, #56]	@ 0x38
    65b6:	9d26      	ldr	r5, [sp, #152]	@ 0x98
    65b8:	9004      	str	r0, [sp, #16]
    65ba:	ed8d 0b06 	vstr	d0, [sp, #24]
    65be:	ec57 6b10 	vmov	r6, r7, d0
    65c2:	b149      	cbz	r1, 65d8 <_dtoa_r+0x30>
    65c4:	6bc2      	ldr	r2, [r0, #60]	@ 0x3c
    65c6:	604a      	str	r2, [r1, #4]
    65c8:	2301      	movs	r3, #1
    65ca:	4093      	lsls	r3, r2
    65cc:	4604      	mov	r4, r0
    65ce:	608b      	str	r3, [r1, #8]
    65d0:	f000 ff66 	bl	74a0 <_Bfree>
    65d4:	2300      	movs	r3, #0
    65d6:	63a3      	str	r3, [r4, #56]	@ 0x38
    65d8:	f1b7 0900 	subs.w	r9, r7, #0
    65dc:	bfb4      	ite	lt
    65de:	2301      	movlt	r3, #1
    65e0:	2300      	movge	r3, #0
    65e2:	602b      	str	r3, [r5, #0]
    65e4:	4b76      	ldr	r3, [pc, #472]	@ (67c0 <_dtoa_r+0x218>)
    65e6:	bfbc      	itt	lt
    65e8:	f029 4900 	biclt.w	r9, r9, #2147483648	@ 0x80000000
    65ec:	f8cd 901c 	strlt.w	r9, [sp, #28]
    65f0:	ea33 0309 	bics.w	r3, r3, r9
    65f4:	f000 80aa 	beq.w	674c <_dtoa_r+0x1a4>
    65f8:	ed9d 7b06 	vldr	d7, [sp, #24]
    65fc:	2200      	movs	r2, #0
    65fe:	ec51 0b17 	vmov	r0, r1, d7
    6602:	2300      	movs	r3, #0
    6604:	ed8d 7b00 	vstr	d7, [sp]
    6608:	f003 fdbc 	bl	a184 <__aeabi_dcmpeq>
    660c:	4680      	mov	r8, r0
    660e:	b168      	cbz	r0, 662c <_dtoa_r+0x84>
    6610:	9a0a      	ldr	r2, [sp, #40]	@ 0x28
    6612:	2301      	movs	r3, #1
    6614:	6013      	str	r3, [r2, #0]
    6616:	9b27      	ldr	r3, [sp, #156]	@ 0x9c
    6618:	b113      	cbz	r3, 6620 <_dtoa_r+0x78>
    661a:	9a27      	ldr	r2, [sp, #156]	@ 0x9c
    661c:	4b69      	ldr	r3, [pc, #420]	@ (67c4 <_dtoa_r+0x21c>)
    661e:	6013      	str	r3, [r2, #0]
    6620:	4b69      	ldr	r3, [pc, #420]	@ (67c8 <_dtoa_r+0x220>)
    6622:	9305      	str	r3, [sp, #20]
    6624:	9805      	ldr	r0, [sp, #20]
    6626:	b01d      	add	sp, #116	@ 0x74
    6628:	e8bd 8ff0 	ldmia.w	sp!, {r4, r5, r6, r7, r8, r9, sl, fp, pc}
    662c:	ed9d 0b00 	vldr	d0, [sp]
    6630:	9804      	ldr	r0, [sp, #16]
    6632:	aa1a      	add	r2, sp, #104	@ 0x68
    6634:	a91b      	add	r1, sp, #108	@ 0x6c
    6636:	f001 fa73 	bl	7b20 <__d2b>
    663a:	ea5f 5519 	movs.w	r5, r9, lsr #20
    663e:	4682      	mov	sl, r0
    6640:	f040 809a 	bne.w	6778 <_dtoa_r+0x1d0>
    6644:	e9dd 851a 	ldrd	r8, r5, [sp, #104]	@ 0x68
    6648:	4445      	add	r5, r8
    664a:	f205 4332 	addw	r3, r5, #1074	@ 0x432
    664e:	2b20      	cmp	r3, #32
    6650:	f340 838a 	ble.w	6d68 <_dtoa_r+0x7c0>
    6654:	f1c3 0340 	rsb	r3, r3, #64	@ 0x40
    6658:	fa09 f903 	lsl.w	r9, r9, r3
    665c:	f205 4312 	addw	r3, r5, #1042	@ 0x412
    6660:	fa26 f303 	lsr.w	r3, r6, r3
    6664:	ea49 0003 	orr.w	r0, r9, r3
    6668:	f003 faaa 	bl	9bc0 <__aeabi_ui2d>
    666c:	2301      	movs	r3, #1
    666e:	3d01      	subs	r5, #1
    6670:	f1a1 71f8 	sub.w	r1, r1, #32505856	@ 0x1f00000
    6674:	9312      	str	r3, [sp, #72]	@ 0x48
    6676:	4b55      	ldr	r3, [pc, #340]	@ (67cc <_dtoa_r+0x224>)
    6678:	2200      	movs	r2, #0
    667a:	f003 f963 	bl	9944 <__aeabi_dsub>
    667e:	a34a      	add	r3, pc, #296	@ (adr r3, 67a8 <_dtoa_r+0x200>)
    6680:	e9d3 2300 	ldrd	r2, r3, [r3]
    6684:	f003 fb16 	bl	9cb4 <__aeabi_dmul>
    6688:	a349      	add	r3, pc, #292	@ (adr r3, 67b0 <_dtoa_r+0x208>)
    668a:	e9d3 2300 	ldrd	r2, r3, [r3]
    668e:	f003 f95b 	bl	9948 <__adddf3>
    6692:	4606      	mov	r6, r0
    6694:	4628      	mov	r0, r5
    6696:	460f      	mov	r7, r1
    6698:	f003 faa2 	bl	9be0 <__aeabi_i2d>
    669c:	a346      	add	r3, pc, #280	@ (adr r3, 67b8 <_dtoa_r+0x210>)
    669e:	e9d3 2300 	ldrd	r2, r3, [r3]
    66a2:	f003 fb07 	bl	9cb4 <__aeabi_dmul>
    66a6:	4602      	mov	r2, r0
    66a8:	460b      	mov	r3, r1
    66aa:	4630      	mov	r0, r6
    66ac:	4639      	mov	r1, r7
    66ae:	f003 f94b 	bl	9948 <__adddf3>
    66b2:	4606      	mov	r6, r0
    66b4:	460f      	mov	r7, r1
    66b6:	f003 fdad 	bl	a214 <__aeabi_d2iz>
    66ba:	2200      	movs	r2, #0
    66bc:	4604      	mov	r4, r0
    66be:	9009      	str	r0, [sp, #36]	@ 0x24
    66c0:	2300      	movs	r3, #0
    66c2:	4630      	mov	r0, r6
    66c4:	4639      	mov	r1, r7
    66c6:	f003 fd67 	bl	a198 <__aeabi_dcmplt>
    66ca:	2800      	cmp	r0, #0
    66cc:	f040 8322 	bne.w	6d14 <_dtoa_r+0x76c>
    66d0:	9c09      	ldr	r4, [sp, #36]	@ 0x24
    66d2:	eba8 0805 	sub.w	r8, r8, r5
    66d6:	f108 33ff 	add.w	r3, r8, #4294967295
    66da:	2c16      	cmp	r4, #22
    66dc:	9308      	str	r3, [sp, #32]
    66de:	f200 818a 	bhi.w	69f6 <_dtoa_r+0x44e>
    66e2:	4b3b      	ldr	r3, [pc, #236]	@ (67d0 <_dtoa_r+0x228>)
    66e4:	eb03 03c4 	add.w	r3, r3, r4, lsl #3
    66e8:	e9d3 2300 	ldrd	r2, r3, [r3]
    66ec:	e9dd 0100 	ldrd	r0, r1, [sp]
    66f0:	f003 fd52 	bl	a198 <__aeabi_dcmplt>
    66f4:	2800      	cmp	r0, #0
    66f6:	d071      	beq.n	67dc <_dtoa_r+0x234>
    66f8:	1e63      	subs	r3, r4, #1
    66fa:	9309      	str	r3, [sp, #36]	@ 0x24
    66fc:	2300      	movs	r3, #0
    66fe:	9311      	str	r3, [sp, #68]	@ 0x44
    6700:	9b08      	ldr	r3, [sp, #32]
    6702:	2b00      	cmp	r3, #0
    6704:	f2c0 817d 	blt.w	6a02 <_dtoa_r+0x45a>
    6708:	2300      	movs	r3, #0
    670a:	930c      	str	r3, [sp, #48]	@ 0x30
    670c:	9b09      	ldr	r3, [sp, #36]	@ 0x24
    670e:	2b00      	cmp	r3, #0
    6710:	da6a      	bge.n	67e8 <_dtoa_r+0x240>
    6712:	9b09      	ldr	r3, [sp, #36]	@ 0x24
    6714:	9a0c      	ldr	r2, [sp, #48]	@ 0x30
    6716:	930d      	str	r3, [sp, #52]	@ 0x34
    6718:	1ad2      	subs	r2, r2, r3
    671a:	920c      	str	r2, [sp, #48]	@ 0x30
    671c:	425a      	negs	r2, r3
    671e:	2300      	movs	r3, #0
    6720:	9309      	str	r3, [sp, #36]	@ 0x24
    6722:	9b02      	ldr	r3, [sp, #8]
    6724:	9210      	str	r2, [sp, #64]	@ 0x40
    6726:	2b09      	cmp	r3, #9
    6728:	d868      	bhi.n	67fc <_dtoa_r+0x254>
    672a:	2b05      	cmp	r3, #5
    672c:	f340 8321 	ble.w	6d72 <_dtoa_r+0x7ca>
    6730:	3b04      	subs	r3, #4
    6732:	9302      	str	r3, [sp, #8]
    6734:	2500      	movs	r5, #0
    6736:	9b02      	ldr	r3, [sp, #8]
    6738:	3b02      	subs	r3, #2
    673a:	2b03      	cmp	r3, #3
    673c:	f200 8636 	bhi.w	73ac <_dtoa_r+0xe04>
    6740:	e8df f013 	tbh	[pc, r3, lsl #1]
    6744:	046b046e 	.word	0x046b046e
    6748:	04470463 	.word	0x04470463
    674c:	9a0a      	ldr	r2, [sp, #40]	@ 0x28
    674e:	f3c9 0913 	ubfx	r9, r9, #0, #20
    6752:	f242 730f 	movw	r3, #9999	@ 0x270f
    6756:	ea59 0906 	orrs.w	r9, r9, r6
    675a:	6013      	str	r3, [r2, #0]
    675c:	d11c      	bne.n	6798 <_dtoa_r+0x1f0>
    675e:	9b27      	ldr	r3, [sp, #156]	@ 0x9c
    6760:	2b00      	cmp	r3, #0
    6762:	f000 8643 	beq.w	73ec <_dtoa_r+0xe44>
    6766:	4b1b      	ldr	r3, [pc, #108]	@ (67d4 <_dtoa_r+0x22c>)
    6768:	9305      	str	r3, [sp, #20]
    676a:	3308      	adds	r3, #8
    676c:	9a27      	ldr	r2, [sp, #156]	@ 0x9c
    676e:	9805      	ldr	r0, [sp, #20]
    6770:	6013      	str	r3, [r2, #0]
    6772:	b01d      	add	sp, #116	@ 0x74
    6774:	e8bd 8ff0 	ldmia.w	sp!, {r4, r5, r6, r7, r8, r9, sl, fp, pc}
    6778:	e9dd 1200 	ldrd	r1, r2, [sp]
    677c:	f3c2 0313 	ubfx	r3, r2, #0, #20
    6780:	4608      	mov	r0, r1
    6782:	f043 517f 	orr.w	r1, r3, #1069547520	@ 0x3fc00000
    6786:	f8cd 8048 	str.w	r8, [sp, #72]	@ 0x48
    678a:	f2a5 35ff 	subw	r5, r5, #1023	@ 0x3ff
    678e:	f8dd 8068 	ldr.w	r8, [sp, #104]	@ 0x68
    6792:	f441 1140 	orr.w	r1, r1, #3145728	@ 0x300000
    6796:	e76e      	b.n	6676 <_dtoa_r+0xce>
    6798:	9b27      	ldr	r3, [sp, #156]	@ 0x9c
    679a:	2b00      	cmp	r3, #0
    679c:	f040 83f4 	bne.w	6f88 <_dtoa_r+0x9e0>
    67a0:	4b0d      	ldr	r3, [pc, #52]	@ (67d8 <_dtoa_r+0x230>)
    67a2:	9305      	str	r3, [sp, #20]
    67a4:	e73e      	b.n	6624 <_dtoa_r+0x7c>
    67a6:	bf00      	nop
    67a8:	636f4361 	.word	0x636f4361
    67ac:	3fd287a7 	.word	0x3fd287a7
    67b0:	8b60c8b3 	.word	0x8b60c8b3
    67b4:	3fc68a28 	.word	0x3fc68a28
    67b8:	509f79fb 	.word	0x509f79fb
    67bc:	3fd34413 	.word	0x3fd34413
    67c0:	7ff00000 	.word	0x7ff00000
    67c4:	0000a2fd 	.word	0x0000a2fd
    67c8:	0000a2fc 	.word	0x0000a2fc
    67cc:	3ff80000 	.word	0x3ff80000
    67d0:	0000a4b8 	.word	0x0000a4b8
    67d4:	0000a348 	.word	0x0000a348
    67d8:	0000a354 	.word	0x0000a354
    67dc:	f1b8 0f00 	cmp.w	r8, #0
    67e0:	f340 84a3 	ble.w	712a <_dtoa_r+0xb82>
    67e4:	9011      	str	r0, [sp, #68]	@ 0x44
    67e6:	900c      	str	r0, [sp, #48]	@ 0x30
    67e8:	e9dd 3208 	ldrd	r3, r2, [sp, #32]
    67ec:	4413      	add	r3, r2
    67ee:	9308      	str	r3, [sp, #32]
    67f0:	2300      	movs	r3, #0
    67f2:	9310      	str	r3, [sp, #64]	@ 0x40
    67f4:	9b02      	ldr	r3, [sp, #8]
    67f6:	920d      	str	r2, [sp, #52]	@ 0x34
    67f8:	2b09      	cmp	r3, #9
    67fa:	d996      	bls.n	672a <_dtoa_r+0x182>
    67fc:	2300      	movs	r3, #0
    67fe:	2501      	movs	r5, #1
    6800:	9302      	str	r3, [sp, #8]
    6802:	950e      	str	r5, [sp, #56]	@ 0x38
    6804:	f04f 3bff 	mov.w	fp, #4294967295
    6808:	930b      	str	r3, [sp, #44]	@ 0x2c
    680a:	9b04      	ldr	r3, [sp, #16]
    680c:	f8cd b04c 	str.w	fp, [sp, #76]	@ 0x4c
    6810:	2100      	movs	r1, #0
    6812:	63d9      	str	r1, [r3, #60]	@ 0x3c
    6814:	9804      	ldr	r0, [sp, #16]
    6816:	f000 fe1d 	bl	7454 <_Balloc>
    681a:	9005      	str	r0, [sp, #20]
    681c:	2800      	cmp	r0, #0
    681e:	f000 85ce 	beq.w	73be <_dtoa_r+0xe16>
    6822:	e9dd 3204 	ldrd	r3, r2, [sp, #16]
    6826:	f1bb 0f0e 	cmp.w	fp, #14
    682a:	639a      	str	r2, [r3, #56]	@ 0x38
    682c:	f200 8118 	bhi.w	6a60 <_dtoa_r+0x4b8>
    6830:	2d00      	cmp	r5, #0
    6832:	f000 8115 	beq.w	6a60 <_dtoa_r+0x4b8>
    6836:	990d      	ldr	r1, [sp, #52]	@ 0x34
    6838:	2900      	cmp	r1, #0
    683a:	f340 8446 	ble.w	70ca <_dtoa_r+0xb22>
    683e:	4bb3      	ldr	r3, [pc, #716]	@ (6b0c <_dtoa_r+0x564>)
    6840:	f001 020f 	and.w	r2, r1, #15
    6844:	eb03 03c2 	add.w	r3, r3, r2, lsl #3
    6848:	05c8      	lsls	r0, r1, #23
    684a:	e9d3 8900 	ldrd	r8, r9, [r3]
    684e:	ea4f 1521 	mov.w	r5, r1, asr #4
    6852:	f140 8408 	bpl.w	7066 <_dtoa_r+0xabe>
    6856:	4bae      	ldr	r3, [pc, #696]	@ (6b10 <_dtoa_r+0x568>)
    6858:	e9dd 0100 	ldrd	r0, r1, [sp]
    685c:	e9d3 2308 	ldrd	r2, r3, [r3, #32]
    6860:	f003 fb52 	bl	9f08 <__aeabi_ddiv>
    6864:	e9cd 0114 	strd	r0, r1, [sp, #80]	@ 0x50
    6868:	f005 050f 	and.w	r5, r5, #15
    686c:	2703      	movs	r7, #3
    686e:	b17d      	cbz	r5, 6890 <_dtoa_r+0x2e8>
    6870:	4ea7      	ldr	r6, [pc, #668]	@ (6b10 <_dtoa_r+0x568>)
    6872:	07e9      	lsls	r1, r5, #31
    6874:	d508      	bpl.n	6888 <_dtoa_r+0x2e0>
    6876:	4640      	mov	r0, r8
    6878:	4649      	mov	r1, r9
    687a:	e9d6 2300 	ldrd	r2, r3, [r6]
    687e:	f003 fa19 	bl	9cb4 <__aeabi_dmul>
    6882:	3701      	adds	r7, #1
    6884:	4680      	mov	r8, r0
    6886:	4689      	mov	r9, r1
    6888:	106d      	asrs	r5, r5, #1
    688a:	f106 0608 	add.w	r6, r6, #8
    688e:	d1f0      	bne.n	6872 <_dtoa_r+0x2ca>
    6890:	4642      	mov	r2, r8
    6892:	464b      	mov	r3, r9
    6894:	e9dd 0114 	ldrd	r0, r1, [sp, #80]	@ 0x50
    6898:	f003 fb36 	bl	9f08 <__aeabi_ddiv>
    689c:	4680      	mov	r8, r0
    689e:	4689      	mov	r9, r1
    68a0:	9b11      	ldr	r3, [sp, #68]	@ 0x44
    68a2:	b143      	cbz	r3, 68b6 <_dtoa_r+0x30e>
    68a4:	4b9b      	ldr	r3, [pc, #620]	@ (6b14 <_dtoa_r+0x56c>)
    68a6:	2200      	movs	r2, #0
    68a8:	4640      	mov	r0, r8
    68aa:	4649      	mov	r1, r9
    68ac:	f003 fc74 	bl	a198 <__aeabi_dcmplt>
    68b0:	2800      	cmp	r0, #0
    68b2:	f040 850b 	bne.w	72cc <_dtoa_r+0xd24>
    68b6:	4638      	mov	r0, r7
    68b8:	f003 f992 	bl	9be0 <__aeabi_i2d>
    68bc:	4642      	mov	r2, r8
    68be:	464b      	mov	r3, r9
    68c0:	f003 f9f8 	bl	9cb4 <__aeabi_dmul>
    68c4:	4b94      	ldr	r3, [pc, #592]	@ (6b18 <_dtoa_r+0x570>)
    68c6:	2200      	movs	r2, #0
    68c8:	f003 f83e 	bl	9948 <__adddf3>
    68cc:	f1a1 7350 	sub.w	r3, r1, #54525952	@ 0x3400000
    68d0:	e9cd 0114 	strd	r0, r1, [sp, #80]	@ 0x50
    68d4:	9315      	str	r3, [sp, #84]	@ 0x54
    68d6:	f1bb 0f00 	cmp.w	fp, #0
    68da:	f000 80a8 	beq.w	6a2e <_dtoa_r+0x486>
    68de:	9b0d      	ldr	r3, [sp, #52]	@ 0x34
    68e0:	e9cd b318 	strd	fp, r3, [sp, #96]	@ 0x60
    68e4:	4649      	mov	r1, r9
    68e6:	4640      	mov	r0, r8
    68e8:	f003 fc94 	bl	a214 <__aeabi_d2iz>
    68ec:	9a18      	ldr	r2, [sp, #96]	@ 0x60
    68ee:	4b87      	ldr	r3, [pc, #540]	@ (6b0c <_dtoa_r+0x564>)
    68f0:	eb03 03c2 	add.w	r3, r3, r2, lsl #3
    68f4:	ed13 7b02 	vldr	d7, [r3, #-8]
    68f8:	4605      	mov	r5, r0
    68fa:	ed8d 7b16 	vstr	d7, [sp, #88]	@ 0x58
    68fe:	f003 f96f 	bl	9be0 <__aeabi_i2d>
    6902:	460b      	mov	r3, r1
    6904:	4602      	mov	r2, r0
    6906:	4649      	mov	r1, r9
    6908:	4640      	mov	r0, r8
    690a:	f003 f81b 	bl	9944 <__aeabi_dsub>
    690e:	9f05      	ldr	r7, [sp, #20]
    6910:	9b0e      	ldr	r3, [sp, #56]	@ 0x38
    6912:	3530      	adds	r5, #48	@ 0x30
    6914:	1c7e      	adds	r6, r7, #1
    6916:	b2ec      	uxtb	r4, r5
    6918:	4680      	mov	r8, r0
    691a:	4689      	mov	r9, r1
    691c:	4635      	mov	r5, r6
    691e:	2b00      	cmp	r3, #0
    6920:	f000 846c 	beq.w	71fc <_dtoa_r+0xc54>
    6924:	e9dd 2316 	ldrd	r2, r3, [sp, #88]	@ 0x58
    6928:	497c      	ldr	r1, [pc, #496]	@ (6b1c <_dtoa_r+0x574>)
    692a:	2000      	movs	r0, #0
    692c:	f003 faec 	bl	9f08 <__aeabi_ddiv>
    6930:	e9dd 2314 	ldrd	r2, r3, [sp, #80]	@ 0x50
    6934:	f003 f806 	bl	9944 <__aeabi_dsub>
    6938:	703c      	strb	r4, [r7, #0]
    693a:	4642      	mov	r2, r8
    693c:	464b      	mov	r3, r9
    693e:	4604      	mov	r4, r0
    6940:	460d      	mov	r5, r1
    6942:	f003 fc47 	bl	a1d4 <__aeabi_dcmpgt>
    6946:	2800      	cmp	r0, #0
    6948:	f040 84b8 	bne.w	72bc <_dtoa_r+0xd14>
    694c:	f8cd a050 	str.w	sl, [sp, #80]	@ 0x50
    6950:	f8cd b058 	str.w	fp, [sp, #88]	@ 0x58
    6954:	2700      	movs	r7, #0
    6956:	46ab      	mov	fp, r5
    6958:	46a2      	mov	sl, r4
    695a:	9d18      	ldr	r5, [sp, #96]	@ 0x60
    695c:	e02a      	b.n	69b4 <_dtoa_r+0x40c>
    695e:	3701      	adds	r7, #1
    6960:	42af      	cmp	r7, r5
    6962:	f280 84fd 	bge.w	7360 <_dtoa_r+0xdb8>
    6966:	4b6e      	ldr	r3, [pc, #440]	@ (6b20 <_dtoa_r+0x578>)
    6968:	4650      	mov	r0, sl
    696a:	4659      	mov	r1, fp
    696c:	2200      	movs	r2, #0
    696e:	f003 f9a1 	bl	9cb4 <__aeabi_dmul>
    6972:	4b6b      	ldr	r3, [pc, #428]	@ (6b20 <_dtoa_r+0x578>)
    6974:	2200      	movs	r2, #0
    6976:	4682      	mov	sl, r0
    6978:	468b      	mov	fp, r1
    697a:	4640      	mov	r0, r8
    697c:	4649      	mov	r1, r9
    697e:	f003 f999 	bl	9cb4 <__aeabi_dmul>
    6982:	4689      	mov	r9, r1
    6984:	4680      	mov	r8, r0
    6986:	f003 fc45 	bl	a214 <__aeabi_d2iz>
    698a:	4604      	mov	r4, r0
    698c:	f003 f928 	bl	9be0 <__aeabi_i2d>
    6990:	4602      	mov	r2, r0
    6992:	460b      	mov	r3, r1
    6994:	4640      	mov	r0, r8
    6996:	4649      	mov	r1, r9
    6998:	f002 ffd4 	bl	9944 <__aeabi_dsub>
    699c:	3430      	adds	r4, #48	@ 0x30
    699e:	f806 4b01 	strb.w	r4, [r6], #1
    69a2:	4652      	mov	r2, sl
    69a4:	465b      	mov	r3, fp
    69a6:	4680      	mov	r8, r0
    69a8:	4689      	mov	r9, r1
    69aa:	f003 fbf5 	bl	a198 <__aeabi_dcmplt>
    69ae:	2800      	cmp	r0, #0
    69b0:	f040 84d3 	bne.w	735a <_dtoa_r+0xdb2>
    69b4:	4642      	mov	r2, r8
    69b6:	464b      	mov	r3, r9
    69b8:	4956      	ldr	r1, [pc, #344]	@ (6b14 <_dtoa_r+0x56c>)
    69ba:	2000      	movs	r0, #0
    69bc:	f002 ffc2 	bl	9944 <__aeabi_dsub>
    69c0:	4652      	mov	r2, sl
    69c2:	465b      	mov	r3, fp
    69c4:	f003 fbe8 	bl	a198 <__aeabi_dcmplt>
    69c8:	2800      	cmp	r0, #0
    69ca:	d0c8      	beq.n	695e <_dtoa_r+0x3b6>
    69cc:	9b19      	ldr	r3, [sp, #100]	@ 0x64
    69ce:	f8dd a050 	ldr.w	sl, [sp, #80]	@ 0x50
    69d2:	9a05      	ldr	r2, [sp, #20]
    69d4:	4637      	mov	r7, r6
    69d6:	f103 0801 	add.w	r8, r3, #1
    69da:	e002      	b.n	69e2 <_dtoa_r+0x43a>
    69dc:	4297      	cmp	r7, r2
    69de:	f000 849b 	beq.w	7318 <_dtoa_r+0xd70>
    69e2:	463e      	mov	r6, r7
    69e4:	f817 3d01 	ldrb.w	r3, [r7, #-1]!
    69e8:	2b39      	cmp	r3, #57	@ 0x39
    69ea:	d0f7      	beq.n	69dc <_dtoa_r+0x434>
    69ec:	3301      	adds	r3, #1
    69ee:	b2db      	uxtb	r3, r3
    69f0:	703b      	strb	r3, [r7, #0]
    69f2:	4645      	mov	r5, r8
    69f4:	e17d      	b.n	6cf2 <_dtoa_r+0x74a>
    69f6:	2301      	movs	r3, #1
    69f8:	9311      	str	r3, [sp, #68]	@ 0x44
    69fa:	9b08      	ldr	r3, [sp, #32]
    69fc:	2b00      	cmp	r3, #0
    69fe:	f6bf ae83 	bge.w	6708 <_dtoa_r+0x160>
    6a02:	f1c8 0301 	rsb	r3, r8, #1
    6a06:	930c      	str	r3, [sp, #48]	@ 0x30
    6a08:	2300      	movs	r3, #0
    6a0a:	9308      	str	r3, [sp, #32]
    6a0c:	e67e      	b.n	670c <_dtoa_r+0x164>
    6a0e:	4638      	mov	r0, r7
    6a10:	f003 f8e6 	bl	9be0 <__aeabi_i2d>
    6a14:	4642      	mov	r2, r8
    6a16:	464b      	mov	r3, r9
    6a18:	f003 f94c 	bl	9cb4 <__aeabi_dmul>
    6a1c:	4b3e      	ldr	r3, [pc, #248]	@ (6b18 <_dtoa_r+0x570>)
    6a1e:	2200      	movs	r2, #0
    6a20:	f002 ff92 	bl	9948 <__adddf3>
    6a24:	f1a1 7350 	sub.w	r3, r1, #54525952	@ 0x3400000
    6a28:	e9cd 0114 	strd	r0, r1, [sp, #80]	@ 0x50
    6a2c:	9315      	str	r3, [sp, #84]	@ 0x54
    6a2e:	4b3d      	ldr	r3, [pc, #244]	@ (6b24 <_dtoa_r+0x57c>)
    6a30:	2200      	movs	r2, #0
    6a32:	4640      	mov	r0, r8
    6a34:	4649      	mov	r1, r9
    6a36:	f002 ff85 	bl	9944 <__aeabi_dsub>
    6a3a:	e9dd 4514 	ldrd	r4, r5, [sp, #80]	@ 0x50
    6a3e:	4622      	mov	r2, r4
    6a40:	462b      	mov	r3, r5
    6a42:	4606      	mov	r6, r0
    6a44:	460f      	mov	r7, r1
    6a46:	f003 fbc5 	bl	a1d4 <__aeabi_dcmpgt>
    6a4a:	2800      	cmp	r0, #0
    6a4c:	f040 8473 	bne.w	7336 <_dtoa_r+0xd8e>
    6a50:	4630      	mov	r0, r6
    6a52:	4639      	mov	r1, r7
    6a54:	4622      	mov	r2, r4
    6a56:	f105 4300 	add.w	r3, r5, #2147483648	@ 0x80000000
    6a5a:	f003 fb9d 	bl	a198 <__aeabi_dcmplt>
    6a5e:	bb28      	cbnz	r0, 6aac <_dtoa_r+0x504>
    6a60:	9b1b      	ldr	r3, [sp, #108]	@ 0x6c
    6a62:	2b00      	cmp	r3, #0
    6a64:	f2c0 8090 	blt.w	6b88 <_dtoa_r+0x5e0>
    6a68:	9a0d      	ldr	r2, [sp, #52]	@ 0x34
    6a6a:	2a0e      	cmp	r2, #14
    6a6c:	f300 808c 	bgt.w	6b88 <_dtoa_r+0x5e0>
    6a70:	4b26      	ldr	r3, [pc, #152]	@ (6b0c <_dtoa_r+0x564>)
    6a72:	9a0d      	ldr	r2, [sp, #52]	@ 0x34
    6a74:	eb03 03c2 	add.w	r3, r3, r2, lsl #3
    6a78:	ed93 7b00 	vldr	d7, [r3]
    6a7c:	9b0b      	ldr	r3, [sp, #44]	@ 0x2c
    6a7e:	2b00      	cmp	r3, #0
    6a80:	ed8d 7b02 	vstr	d7, [sp, #8]
    6a84:	da19      	bge.n	6aba <_dtoa_r+0x512>
    6a86:	f1bb 0f00 	cmp.w	fp, #0
    6a8a:	dc16      	bgt.n	6aba <_dtoa_r+0x512>
    6a8c:	d10e      	bne.n	6aac <_dtoa_r+0x504>
    6a8e:	4b25      	ldr	r3, [pc, #148]	@ (6b24 <_dtoa_r+0x57c>)
    6a90:	2200      	movs	r2, #0
    6a92:	e9dd 0102 	ldrd	r0, r1, [sp, #8]
    6a96:	f003 f90d 	bl	9cb4 <__aeabi_dmul>
    6a9a:	4602      	mov	r2, r0
    6a9c:	460b      	mov	r3, r1
    6a9e:	e9dd 0100 	ldrd	r0, r1, [sp]
    6aa2:	f003 fb83 	bl	a1ac <__aeabi_dcmple>
    6aa6:	2800      	cmp	r0, #0
    6aa8:	f000 8445 	beq.w	7336 <_dtoa_r+0xd8e>
    6aac:	2300      	movs	r3, #0
    6aae:	9e05      	ldr	r6, [sp, #20]
    6ab0:	9300      	str	r3, [sp, #0]
    6ab2:	461f      	mov	r7, r3
    6ab4:	9b0b      	ldr	r3, [sp, #44]	@ 0x2c
    6ab6:	43dd      	mvns	r5, r3
    6ab8:	e22d      	b.n	6f16 <_dtoa_r+0x96e>
    6aba:	9b05      	ldr	r3, [sp, #20]
    6abc:	1c5d      	adds	r5, r3, #1
    6abe:	e9dd 7802 	ldrd	r7, r8, [sp, #8]
    6ac2:	e9dd 0100 	ldrd	r0, r1, [sp]
    6ac6:	463a      	mov	r2, r7
    6ac8:	4643      	mov	r3, r8
    6aca:	f003 fa1d 	bl	9f08 <__aeabi_ddiv>
    6ace:	f003 fba1 	bl	a214 <__aeabi_d2iz>
    6ad2:	4606      	mov	r6, r0
    6ad4:	f003 f884 	bl	9be0 <__aeabi_i2d>
    6ad8:	463a      	mov	r2, r7
    6ada:	4643      	mov	r3, r8
    6adc:	f003 f8ea 	bl	9cb4 <__aeabi_dmul>
    6ae0:	4602      	mov	r2, r0
    6ae2:	460b      	mov	r3, r1
    6ae4:	e9dd 0100 	ldrd	r0, r1, [sp]
    6ae8:	f002 ff2c 	bl	9944 <__aeabi_dsub>
    6aec:	9a05      	ldr	r2, [sp, #20]
    6aee:	f106 0330 	add.w	r3, r6, #48	@ 0x30
    6af2:	f1bb 0f01 	cmp.w	fp, #1
    6af6:	462f      	mov	r7, r5
    6af8:	7013      	strb	r3, [r2, #0]
    6afa:	f000 8321 	beq.w	7140 <_dtoa_r+0xb98>
    6afe:	2501      	movs	r5, #1
    6b00:	f8cd a000 	str.w	sl, [sp]
    6b04:	46a8      	mov	r8, r5
    6b06:	e9dd 9a02 	ldrd	r9, sl, [sp, #8]
    6b0a:	e02b      	b.n	6b64 <_dtoa_r+0x5bc>
    6b0c:	0000a4b8 	.word	0x0000a4b8
    6b10:	0000a490 	.word	0x0000a490
    6b14:	3ff00000 	.word	0x3ff00000
    6b18:	401c0000 	.word	0x401c0000
    6b1c:	3fe00000 	.word	0x3fe00000
    6b20:	40240000 	.word	0x40240000
    6b24:	40140000 	.word	0x40140000
    6b28:	464a      	mov	r2, r9
    6b2a:	4653      	mov	r3, sl
    6b2c:	4620      	mov	r0, r4
    6b2e:	4629      	mov	r1, r5
    6b30:	f003 f9ea 	bl	9f08 <__aeabi_ddiv>
    6b34:	f003 fb6e 	bl	a214 <__aeabi_d2iz>
    6b38:	4606      	mov	r6, r0
    6b3a:	f003 f851 	bl	9be0 <__aeabi_i2d>
    6b3e:	464a      	mov	r2, r9
    6b40:	4653      	mov	r3, sl
    6b42:	f003 f8b7 	bl	9cb4 <__aeabi_dmul>
    6b46:	f108 0801 	add.w	r8, r8, #1
    6b4a:	460b      	mov	r3, r1
    6b4c:	4602      	mov	r2, r0
    6b4e:	4629      	mov	r1, r5
    6b50:	4620      	mov	r0, r4
    6b52:	f002 fef7 	bl	9944 <__aeabi_dsub>
    6b56:	f106 0330 	add.w	r3, r6, #48	@ 0x30
    6b5a:	45d8      	cmp	r8, fp
    6b5c:	f807 3b01 	strb.w	r3, [r7], #1
    6b60:	f000 82ec 	beq.w	713c <_dtoa_r+0xb94>
    6b64:	4b84      	ldr	r3, [pc, #528]	@ (6d78 <_dtoa_r+0x7d0>)
    6b66:	2200      	movs	r2, #0
    6b68:	f003 f8a4 	bl	9cb4 <__aeabi_dmul>
    6b6c:	2200      	movs	r2, #0
    6b6e:	2300      	movs	r3, #0
    6b70:	4604      	mov	r4, r0
    6b72:	460d      	mov	r5, r1
    6b74:	f003 fb06 	bl	a184 <__aeabi_dcmpeq>
    6b78:	2800      	cmp	r0, #0
    6b7a:	d0d5      	beq.n	6b28 <_dtoa_r+0x580>
    6b7c:	9d0d      	ldr	r5, [sp, #52]	@ 0x34
    6b7e:	f8dd a000 	ldr.w	sl, [sp]
    6b82:	3501      	adds	r5, #1
    6b84:	463e      	mov	r6, r7
    6b86:	e0b4      	b.n	6cf2 <_dtoa_r+0x74a>
    6b88:	9a0e      	ldr	r2, [sp, #56]	@ 0x38
    6b8a:	2a00      	cmp	r2, #0
    6b8c:	f040 80d8 	bne.w	6d40 <_dtoa_r+0x798>
    6b90:	2300      	movs	r3, #0
    6b92:	9e10      	ldr	r6, [sp, #64]	@ 0x40
    6b94:	9d0c      	ldr	r5, [sp, #48]	@ 0x30
    6b96:	930e      	str	r3, [sp, #56]	@ 0x38
    6b98:	461f      	mov	r7, r3
    6b9a:	b165      	cbz	r5, 6bb6 <_dtoa_r+0x60e>
    6b9c:	9a08      	ldr	r2, [sp, #32]
    6b9e:	2a00      	cmp	r2, #0
    6ba0:	dd09      	ble.n	6bb6 <_dtoa_r+0x60e>
    6ba2:	990c      	ldr	r1, [sp, #48]	@ 0x30
    6ba4:	42aa      	cmp	r2, r5
    6ba6:	4613      	mov	r3, r2
    6ba8:	bfa8      	it	ge
    6baa:	462b      	movge	r3, r5
    6bac:	1ac9      	subs	r1, r1, r3
    6bae:	1aed      	subs	r5, r5, r3
    6bb0:	1ad3      	subs	r3, r2, r3
    6bb2:	910c      	str	r1, [sp, #48]	@ 0x30
    6bb4:	9308      	str	r3, [sp, #32]
    6bb6:	9b10      	ldr	r3, [sp, #64]	@ 0x40
    6bb8:	b153      	cbz	r3, 6bd0 <_dtoa_r+0x628>
    6bba:	9b0e      	ldr	r3, [sp, #56]	@ 0x38
    6bbc:	b113      	cbz	r3, 6bc4 <_dtoa_r+0x61c>
    6bbe:	2e00      	cmp	r6, #0
    6bc0:	f040 82f7 	bne.w	71b2 <_dtoa_r+0xc0a>
    6bc4:	4651      	mov	r1, sl
    6bc6:	9a10      	ldr	r2, [sp, #64]	@ 0x40
    6bc8:	9804      	ldr	r0, [sp, #16]
    6bca:	f000 fdf9 	bl	77c0 <__pow5mult>
    6bce:	4682      	mov	sl, r0
    6bd0:	9804      	ldr	r0, [sp, #16]
    6bd2:	2101      	movs	r1, #1
    6bd4:	f000 fd10 	bl	75f8 <__i2b>
    6bd8:	9b09      	ldr	r3, [sp, #36]	@ 0x24
    6bda:	9000      	str	r0, [sp, #0]
    6bdc:	2b00      	cmp	r3, #0
    6bde:	f040 81be 	bne.w	6f5e <_dtoa_r+0x9b6>
    6be2:	9b02      	ldr	r3, [sp, #8]
    6be4:	2b01      	cmp	r3, #1
    6be6:	f340 81d4 	ble.w	6f92 <_dtoa_r+0x9ea>
    6bea:	2001      	movs	r0, #1
    6bec:	9a08      	ldr	r2, [sp, #32]
    6bee:	4410      	add	r0, r2
    6bf0:	f010 001f 	ands.w	r0, r0, #31
    6bf4:	f000 809b 	beq.w	6d2e <_dtoa_r+0x786>
    6bf8:	f1c0 0320 	rsb	r3, r0, #32
    6bfc:	2b04      	cmp	r3, #4
    6bfe:	f340 81e3 	ble.w	6fc8 <_dtoa_r+0xa20>
    6c02:	9b0c      	ldr	r3, [sp, #48]	@ 0x30
    6c04:	f1c0 001c 	rsb	r0, r0, #28
    6c08:	4403      	add	r3, r0
    6c0a:	4402      	add	r2, r0
    6c0c:	930c      	str	r3, [sp, #48]	@ 0x30
    6c0e:	4405      	add	r5, r0
    6c10:	9208      	str	r2, [sp, #32]
    6c12:	9b0c      	ldr	r3, [sp, #48]	@ 0x30
    6c14:	2b00      	cmp	r3, #0
    6c16:	dd05      	ble.n	6c24 <_dtoa_r+0x67c>
    6c18:	4651      	mov	r1, sl
    6c1a:	9804      	ldr	r0, [sp, #16]
    6c1c:	461a      	mov	r2, r3
    6c1e:	f000 fe29 	bl	7874 <__lshift>
    6c22:	4682      	mov	sl, r0
    6c24:	9b08      	ldr	r3, [sp, #32]
    6c26:	2b00      	cmp	r3, #0
    6c28:	dd05      	ble.n	6c36 <_dtoa_r+0x68e>
    6c2a:	9900      	ldr	r1, [sp, #0]
    6c2c:	9804      	ldr	r0, [sp, #16]
    6c2e:	461a      	mov	r2, r3
    6c30:	f000 fe20 	bl	7874 <__lshift>
    6c34:	9000      	str	r0, [sp, #0]
    6c36:	9b11      	ldr	r3, [sp, #68]	@ 0x44
    6c38:	2b00      	cmp	r3, #0
    6c3a:	f040 8175 	bne.w	6f28 <_dtoa_r+0x980>
    6c3e:	f1bb 0f00 	cmp.w	fp, #0
    6c42:	f340 814c 	ble.w	6ede <_dtoa_r+0x936>
    6c46:	9b0e      	ldr	r3, [sp, #56]	@ 0x38
    6c48:	2b00      	cmp	r3, #0
    6c4a:	f040 80a4 	bne.w	6d96 <_dtoa_r+0x7ee>
    6c4e:	9d0d      	ldr	r5, [sp, #52]	@ 0x34
    6c50:	3501      	adds	r5, #1
    6c52:	f8dd 8014 	ldr.w	r8, [sp, #20]
    6c56:	9c00      	ldr	r4, [sp, #0]
    6c58:	f8dd 9010 	ldr.w	r9, [sp, #16]
    6c5c:	2601      	movs	r6, #1
    6c5e:	e007      	b.n	6c70 <_dtoa_r+0x6c8>
    6c60:	4651      	mov	r1, sl
    6c62:	2300      	movs	r3, #0
    6c64:	220a      	movs	r2, #10
    6c66:	4648      	mov	r0, r9
    6c68:	f000 fc24 	bl	74b4 <__multadd>
    6c6c:	3601      	adds	r6, #1
    6c6e:	4682      	mov	sl, r0
    6c70:	4621      	mov	r1, r4
    6c72:	4650      	mov	r0, sl
    6c74:	f7ff fc02 	bl	647c <quorem>
    6c78:	45b3      	cmp	fp, r6
    6c7a:	f100 0030 	add.w	r0, r0, #48	@ 0x30
    6c7e:	f808 0b01 	strb.w	r0, [r8], #1
    6c82:	dced      	bgt.n	6c60 <_dtoa_r+0x6b8>
    6c84:	f1bb 0f00 	cmp.w	fp, #0
    6c88:	9b05      	ldr	r3, [sp, #20]
    6c8a:	bfcc      	ite	gt
    6c8c:	465e      	movgt	r6, fp
    6c8e:	2601      	movle	r6, #1
    6c90:	4681      	mov	r9, r0
    6c92:	eb03 0b06 	add.w	fp, r3, r6
    6c96:	2400      	movs	r4, #0
    6c98:	4651      	mov	r1, sl
    6c9a:	2201      	movs	r2, #1
    6c9c:	9804      	ldr	r0, [sp, #16]
    6c9e:	f000 fde9 	bl	7874 <__lshift>
    6ca2:	9900      	ldr	r1, [sp, #0]
    6ca4:	4682      	mov	sl, r0
    6ca6:	f000 fe5d 	bl	7964 <__mcmp>
    6caa:	2800      	cmp	r0, #0
    6cac:	f340 81ee 	ble.w	708c <_dtoa_r+0xae4>
    6cb0:	9a05      	ldr	r2, [sp, #20]
    6cb2:	e002      	b.n	6cba <_dtoa_r+0x712>
    6cb4:	4593      	cmp	fp, r2
    6cb6:	f000 8203 	beq.w	70c0 <_dtoa_r+0xb18>
    6cba:	465e      	mov	r6, fp
    6cbc:	f10b 3bff 	add.w	fp, fp, #4294967295
    6cc0:	f816 3c01 	ldrb.w	r3, [r6, #-1]
    6cc4:	2b39      	cmp	r3, #57	@ 0x39
    6cc6:	d0f5      	beq.n	6cb4 <_dtoa_r+0x70c>
    6cc8:	3301      	adds	r3, #1
    6cca:	f88b 3000 	strb.w	r3, [fp]
    6cce:	f8dd 8010 	ldr.w	r8, [sp, #16]
    6cd2:	9900      	ldr	r1, [sp, #0]
    6cd4:	4640      	mov	r0, r8
    6cd6:	f000 fbe3 	bl	74a0 <_Bfree>
    6cda:	b157      	cbz	r7, 6cf2 <_dtoa_r+0x74a>
    6cdc:	b12c      	cbz	r4, 6cea <_dtoa_r+0x742>
    6cde:	42bc      	cmp	r4, r7
    6ce0:	d003      	beq.n	6cea <_dtoa_r+0x742>
    6ce2:	4621      	mov	r1, r4
    6ce4:	4640      	mov	r0, r8
    6ce6:	f000 fbdb 	bl	74a0 <_Bfree>
    6cea:	9804      	ldr	r0, [sp, #16]
    6cec:	4639      	mov	r1, r7
    6cee:	f000 fbd7 	bl	74a0 <_Bfree>
    6cf2:	9804      	ldr	r0, [sp, #16]
    6cf4:	4651      	mov	r1, sl
    6cf6:	f000 fbd3 	bl	74a0 <_Bfree>
    6cfa:	2300      	movs	r3, #0
    6cfc:	7033      	strb	r3, [r6, #0]
    6cfe:	9b0a      	ldr	r3, [sp, #40]	@ 0x28
    6d00:	601d      	str	r5, [r3, #0]
    6d02:	9b27      	ldr	r3, [sp, #156]	@ 0x9c
    6d04:	2b00      	cmp	r3, #0
    6d06:	f43f ac8d 	beq.w	6624 <_dtoa_r+0x7c>
    6d0a:	9805      	ldr	r0, [sp, #20]
    6d0c:	601e      	str	r6, [r3, #0]
    6d0e:	b01d      	add	sp, #116	@ 0x74
    6d10:	e8bd 8ff0 	ldmia.w	sp!, {r4, r5, r6, r7, r8, r9, sl, fp, pc}
    6d14:	4620      	mov	r0, r4
    6d16:	f002 ff63 	bl	9be0 <__aeabi_i2d>
    6d1a:	4632      	mov	r2, r6
    6d1c:	463b      	mov	r3, r7
    6d1e:	f003 fa31 	bl	a184 <__aeabi_dcmpeq>
    6d22:	2800      	cmp	r0, #0
    6d24:	f47f acd4 	bne.w	66d0 <_dtoa_r+0x128>
    6d28:	1e63      	subs	r3, r4, #1
    6d2a:	9309      	str	r3, [sp, #36]	@ 0x24
    6d2c:	e4d0      	b.n	66d0 <_dtoa_r+0x128>
    6d2e:	231c      	movs	r3, #28
    6d30:	9a0c      	ldr	r2, [sp, #48]	@ 0x30
    6d32:	441a      	add	r2, r3
    6d34:	920c      	str	r2, [sp, #48]	@ 0x30
    6d36:	9a08      	ldr	r2, [sp, #32]
    6d38:	441a      	add	r2, r3
    6d3a:	441d      	add	r5, r3
    6d3c:	9208      	str	r2, [sp, #32]
    6d3e:	e768      	b.n	6c12 <_dtoa_r+0x66a>
    6d40:	9a02      	ldr	r2, [sp, #8]
    6d42:	2a01      	cmp	r2, #1
    6d44:	f340 81ad 	ble.w	70a2 <_dtoa_r+0xafa>
    6d48:	9b10      	ldr	r3, [sp, #64]	@ 0x40
    6d4a:	f10b 36ff 	add.w	r6, fp, #4294967295
    6d4e:	42b3      	cmp	r3, r6
    6d50:	f2c0 8169 	blt.w	7026 <_dtoa_r+0xa7e>
    6d54:	f1bb 0f00 	cmp.w	fp, #0
    6d58:	eba3 0606 	sub.w	r6, r3, r6
    6d5c:	f280 82ef 	bge.w	733e <_dtoa_r+0xd96>
    6d60:	9b0c      	ldr	r3, [sp, #48]	@ 0x30
    6d62:	eba3 050b 	sub.w	r5, r3, fp
    6d66:	e16c      	b.n	7042 <_dtoa_r+0xa9a>
    6d68:	f1c3 0320 	rsb	r3, r3, #32
    6d6c:	fa06 f003 	lsl.w	r0, r6, r3
    6d70:	e47a      	b.n	6668 <_dtoa_r+0xc0>
    6d72:	2501      	movs	r5, #1
    6d74:	e4df      	b.n	6736 <_dtoa_r+0x18e>
    6d76:	bf00      	nop
    6d78:	40240000 	.word	0x40240000
    6d7c:	4639      	mov	r1, r7
    6d7e:	2300      	movs	r3, #0
    6d80:	9804      	ldr	r0, [sp, #16]
    6d82:	220a      	movs	r2, #10
    6d84:	f000 fb96 	bl	74b4 <__multadd>
    6d88:	9b13      	ldr	r3, [sp, #76]	@ 0x4c
    6d8a:	2b00      	cmp	r3, #0
    6d8c:	4607      	mov	r7, r0
    6d8e:	f340 82ff 	ble.w	7390 <_dtoa_r+0xde8>
    6d92:	960d      	str	r6, [sp, #52]	@ 0x34
    6d94:	469b      	mov	fp, r3
    6d96:	2d00      	cmp	r5, #0
    6d98:	dd05      	ble.n	6da6 <_dtoa_r+0x7fe>
    6d9a:	4639      	mov	r1, r7
    6d9c:	9804      	ldr	r0, [sp, #16]
    6d9e:	462a      	mov	r2, r5
    6da0:	f000 fd68 	bl	7874 <__lshift>
    6da4:	4607      	mov	r7, r0
    6da6:	9b09      	ldr	r3, [sp, #36]	@ 0x24
    6da8:	2b00      	cmp	r3, #0
    6daa:	f040 81e6 	bne.w	717a <_dtoa_r+0xbd2>
    6dae:	46b8      	mov	r8, r7
    6db0:	9e05      	ldr	r6, [sp, #20]
    6db2:	1e73      	subs	r3, r6, #1
    6db4:	eb03 040b 	add.w	r4, r3, fp
    6db8:	9b06      	ldr	r3, [sp, #24]
    6dba:	f003 0301 	and.w	r3, r3, #1
    6dbe:	e9cd 430b 	strd	r4, r3, [sp, #44]	@ 0x2c
    6dc2:	9c04      	ldr	r4, [sp, #16]
    6dc4:	9900      	ldr	r1, [sp, #0]
    6dc6:	4650      	mov	r0, sl
    6dc8:	f7ff fb58 	bl	647c <quorem>
    6dcc:	4639      	mov	r1, r7
    6dce:	4683      	mov	fp, r0
    6dd0:	4650      	mov	r0, sl
    6dd2:	f000 fdc7 	bl	7964 <__mcmp>
    6dd6:	9900      	ldr	r1, [sp, #0]
    6dd8:	4605      	mov	r5, r0
    6dda:	4642      	mov	r2, r8
    6ddc:	4620      	mov	r0, r4
    6dde:	f000 fde3 	bl	79a8 <__mdiff>
    6de2:	68c3      	ldr	r3, [r0, #12]
    6de4:	f10b 0930 	add.w	r9, fp, #48	@ 0x30
    6de8:	4601      	mov	r1, r0
    6dea:	bbab      	cbnz	r3, 6e58 <_dtoa_r+0x8b0>
    6dec:	9009      	str	r0, [sp, #36]	@ 0x24
    6dee:	4650      	mov	r0, sl
    6df0:	f000 fdb8 	bl	7964 <__mcmp>
    6df4:	9909      	ldr	r1, [sp, #36]	@ 0x24
    6df6:	9008      	str	r0, [sp, #32]
    6df8:	4620      	mov	r0, r4
    6dfa:	f000 fb51 	bl	74a0 <_Bfree>
    6dfe:	9a08      	ldr	r2, [sp, #32]
    6e00:	2a00      	cmp	r2, #0
    6e02:	d154      	bne.n	6eae <_dtoa_r+0x906>
    6e04:	9b02      	ldr	r3, [sp, #8]
    6e06:	b91b      	cbnz	r3, 6e10 <_dtoa_r+0x868>
    6e08:	9b0c      	ldr	r3, [sp, #48]	@ 0x30
    6e0a:	2b00      	cmp	r3, #0
    6e0c:	f000 82ae 	beq.w	736c <_dtoa_r+0xdc4>
    6e10:	2d00      	cmp	r5, #0
    6e12:	db3f      	blt.n	6e94 <_dtoa_r+0x8ec>
    6e14:	9b0b      	ldr	r3, [sp, #44]	@ 0x2c
    6e16:	46b3      	mov	fp, r6
    6e18:	429e      	cmp	r6, r3
    6e1a:	f80b 9b01 	strb.w	r9, [fp], #1
    6e1e:	f000 81c3 	beq.w	71a8 <_dtoa_r+0xc00>
    6e22:	4651      	mov	r1, sl
    6e24:	2300      	movs	r3, #0
    6e26:	220a      	movs	r2, #10
    6e28:	4620      	mov	r0, r4
    6e2a:	f000 fb43 	bl	74b4 <__multadd>
    6e2e:	4547      	cmp	r7, r8
    6e30:	4682      	mov	sl, r0
    6e32:	4639      	mov	r1, r7
    6e34:	f04f 0300 	mov.w	r3, #0
    6e38:	f04f 020a 	mov.w	r2, #10
    6e3c:	4620      	mov	r0, r4
    6e3e:	d030      	beq.n	6ea2 <_dtoa_r+0x8fa>
    6e40:	f000 fb38 	bl	74b4 <__multadd>
    6e44:	4641      	mov	r1, r8
    6e46:	4607      	mov	r7, r0
    6e48:	2300      	movs	r3, #0
    6e4a:	220a      	movs	r2, #10
    6e4c:	4620      	mov	r0, r4
    6e4e:	f000 fb31 	bl	74b4 <__multadd>
    6e52:	465e      	mov	r6, fp
    6e54:	4680      	mov	r8, r0
    6e56:	e7b5      	b.n	6dc4 <_dtoa_r+0x81c>
    6e58:	9804      	ldr	r0, [sp, #16]
    6e5a:	f000 fb21 	bl	74a0 <_Bfree>
    6e5e:	2d00      	cmp	r5, #0
    6e60:	db06      	blt.n	6e70 <_dtoa_r+0x8c8>
    6e62:	9b06      	ldr	r3, [sp, #24]
    6e64:	f003 0201 	and.w	r2, r3, #1
    6e68:	9b02      	ldr	r3, [sp, #8]
    6e6a:	431d      	orrs	r5, r3
    6e6c:	432a      	orrs	r2, r5
    6e6e:	d129      	bne.n	6ec4 <_dtoa_r+0x91c>
    6e70:	4651      	mov	r1, sl
    6e72:	2201      	movs	r2, #1
    6e74:	9804      	ldr	r0, [sp, #16]
    6e76:	f000 fcfd 	bl	7874 <__lshift>
    6e7a:	9900      	ldr	r1, [sp, #0]
    6e7c:	4682      	mov	sl, r0
    6e7e:	f000 fd71 	bl	7964 <__mcmp>
    6e82:	2800      	cmp	r0, #0
    6e84:	f340 80f6 	ble.w	7074 <_dtoa_r+0xacc>
    6e88:	f1b9 0f39 	cmp.w	r9, #57	@ 0x39
    6e8c:	f000 8249 	beq.w	7322 <_dtoa_r+0xd7a>
    6e90:	f10b 0931 	add.w	r9, fp, #49	@ 0x31
    6e94:	9d0d      	ldr	r5, [sp, #52]	@ 0x34
    6e96:	f806 9b01 	strb.w	r9, [r6], #1
    6e9a:	463c      	mov	r4, r7
    6e9c:	3501      	adds	r5, #1
    6e9e:	4647      	mov	r7, r8
    6ea0:	e715      	b.n	6cce <_dtoa_r+0x726>
    6ea2:	f000 fb07 	bl	74b4 <__multadd>
    6ea6:	465e      	mov	r6, fp
    6ea8:	4607      	mov	r7, r0
    6eaa:	4680      	mov	r8, r0
    6eac:	e78a      	b.n	6dc4 <_dtoa_r+0x81c>
    6eae:	2d00      	cmp	r5, #0
    6eb0:	f2c0 8293 	blt.w	73da <_dtoa_r+0xe32>
    6eb4:	9b02      	ldr	r3, [sp, #8]
    6eb6:	431d      	orrs	r5, r3
    6eb8:	9b0c      	ldr	r3, [sp, #48]	@ 0x30
    6eba:	431d      	orrs	r5, r3
    6ebc:	f000 828d 	beq.w	73da <_dtoa_r+0xe32>
    6ec0:	2a00      	cmp	r2, #0
    6ec2:	dda7      	ble.n	6e14 <_dtoa_r+0x86c>
    6ec4:	f1b9 0f39 	cmp.w	r9, #57	@ 0x39
    6ec8:	f000 822b 	beq.w	7322 <_dtoa_r+0xd7a>
    6ecc:	9d0d      	ldr	r5, [sp, #52]	@ 0x34
    6ece:	f109 0301 	add.w	r3, r9, #1
    6ed2:	463c      	mov	r4, r7
    6ed4:	f806 3b01 	strb.w	r3, [r6], #1
    6ed8:	3501      	adds	r5, #1
    6eda:	4647      	mov	r7, r8
    6edc:	e6f7      	b.n	6cce <_dtoa_r+0x726>
    6ede:	9b02      	ldr	r3, [sp, #8]
    6ee0:	2b02      	cmp	r3, #2
    6ee2:	f77f aeb0 	ble.w	6c46 <_dtoa_r+0x69e>
    6ee6:	f1bb 0f00 	cmp.w	fp, #0
    6eea:	f040 8125 	bne.w	7138 <_dtoa_r+0xb90>
    6eee:	9900      	ldr	r1, [sp, #0]
    6ef0:	9804      	ldr	r0, [sp, #16]
    6ef2:	465b      	mov	r3, fp
    6ef4:	2205      	movs	r2, #5
    6ef6:	f000 fadd 	bl	74b4 <__multadd>
    6efa:	4601      	mov	r1, r0
    6efc:	9000      	str	r0, [sp, #0]
    6efe:	4650      	mov	r0, sl
    6f00:	f000 fd30 	bl	7964 <__mcmp>
    6f04:	2800      	cmp	r0, #0
    6f06:	f340 8117 	ble.w	7138 <_dtoa_r+0xb90>
    6f0a:	9e05      	ldr	r6, [sp, #20]
    6f0c:	9d0d      	ldr	r5, [sp, #52]	@ 0x34
    6f0e:	2331      	movs	r3, #49	@ 0x31
    6f10:	f806 3b01 	strb.w	r3, [r6], #1
    6f14:	3501      	adds	r5, #1
    6f16:	9900      	ldr	r1, [sp, #0]
    6f18:	9804      	ldr	r0, [sp, #16]
    6f1a:	f000 fac1 	bl	74a0 <_Bfree>
    6f1e:	3501      	adds	r5, #1
    6f20:	2f00      	cmp	r7, #0
    6f22:	f47f aee2 	bne.w	6cea <_dtoa_r+0x742>
    6f26:	e6e4      	b.n	6cf2 <_dtoa_r+0x74a>
    6f28:	9900      	ldr	r1, [sp, #0]
    6f2a:	4650      	mov	r0, sl
    6f2c:	f000 fd1a 	bl	7964 <__mcmp>
    6f30:	2800      	cmp	r0, #0
    6f32:	f6bf ae84 	bge.w	6c3e <_dtoa_r+0x696>
    6f36:	4651      	mov	r1, sl
    6f38:	2300      	movs	r3, #0
    6f3a:	9804      	ldr	r0, [sp, #16]
    6f3c:	9c0d      	ldr	r4, [sp, #52]	@ 0x34
    6f3e:	220a      	movs	r2, #10
    6f40:	f000 fab8 	bl	74b4 <__multadd>
    6f44:	9b0e      	ldr	r3, [sp, #56]	@ 0x38
    6f46:	1e66      	subs	r6, r4, #1
    6f48:	4682      	mov	sl, r0
    6f4a:	2b00      	cmp	r3, #0
    6f4c:	f47f af16 	bne.w	6d7c <_dtoa_r+0x7d4>
    6f50:	9b13      	ldr	r3, [sp, #76]	@ 0x4c
    6f52:	2b00      	cmp	r3, #0
    6f54:	f340 8211 	ble.w	737a <_dtoa_r+0xdd2>
    6f58:	9d0d      	ldr	r5, [sp, #52]	@ 0x34
    6f5a:	469b      	mov	fp, r3
    6f5c:	e679      	b.n	6c52 <_dtoa_r+0x6aa>
    6f5e:	4601      	mov	r1, r0
    6f60:	461a      	mov	r2, r3
    6f62:	9804      	ldr	r0, [sp, #16]
    6f64:	f000 fc2c 	bl	77c0 <__pow5mult>
    6f68:	9b02      	ldr	r3, [sp, #8]
    6f6a:	9000      	str	r0, [sp, #0]
    6f6c:	2b01      	cmp	r3, #1
    6f6e:	dd6e      	ble.n	704e <_dtoa_r+0xaa6>
    6f70:	2300      	movs	r3, #0
    6f72:	9309      	str	r3, [sp, #36]	@ 0x24
    6f74:	9a00      	ldr	r2, [sp, #0]
    6f76:	6913      	ldr	r3, [r2, #16]
    6f78:	eb02 0383 	add.w	r3, r2, r3, lsl #2
    6f7c:	6918      	ldr	r0, [r3, #16]
    6f7e:	f000 fae9 	bl	7554 <__hi0bits>
    6f82:	f1c0 0020 	rsb	r0, r0, #32
    6f86:	e631      	b.n	6bec <_dtoa_r+0x644>
    6f88:	4b98      	ldr	r3, [pc, #608]	@ (71ec <_dtoa_r+0xc44>)
    6f8a:	9305      	str	r3, [sp, #20]
    6f8c:	3303      	adds	r3, #3
    6f8e:	f7ff bbed 	b.w	676c <_dtoa_r+0x1c4>
    6f92:	9b06      	ldr	r3, [sp, #24]
    6f94:	2b00      	cmp	r3, #0
    6f96:	f47f ae28 	bne.w	6bea <_dtoa_r+0x642>
    6f9a:	e9dd 1206 	ldrd	r1, r2, [sp, #24]
    6f9e:	f3c2 0313 	ubfx	r3, r2, #0, #20
    6fa2:	2b00      	cmp	r3, #0
    6fa4:	f47f ae21 	bne.w	6bea <_dtoa_r+0x642>
    6fa8:	4b91      	ldr	r3, [pc, #580]	@ (71f0 <_dtoa_r+0xc48>)
    6faa:	4013      	ands	r3, r2
    6fac:	b133      	cbz	r3, 6fbc <_dtoa_r+0xa14>
    6fae:	9b0c      	ldr	r3, [sp, #48]	@ 0x30
    6fb0:	3301      	adds	r3, #1
    6fb2:	930c      	str	r3, [sp, #48]	@ 0x30
    6fb4:	9b08      	ldr	r3, [sp, #32]
    6fb6:	3301      	adds	r3, #1
    6fb8:	9308      	str	r3, [sp, #32]
    6fba:	2301      	movs	r3, #1
    6fbc:	9a09      	ldr	r2, [sp, #36]	@ 0x24
    6fbe:	9309      	str	r3, [sp, #36]	@ 0x24
    6fc0:	2a00      	cmp	r2, #0
    6fc2:	f43f ae12 	beq.w	6bea <_dtoa_r+0x642>
    6fc6:	e7d5      	b.n	6f74 <_dtoa_r+0x9cc>
    6fc8:	f43f ae23 	beq.w	6c12 <_dtoa_r+0x66a>
    6fcc:	f1c0 033c 	rsb	r3, r0, #60	@ 0x3c
    6fd0:	e6ae      	b.n	6d30 <_dtoa_r+0x788>
    6fd2:	2301      	movs	r3, #1
    6fd4:	930e      	str	r3, [sp, #56]	@ 0x38
    6fd6:	9b0b      	ldr	r3, [sp, #44]	@ 0x2c
    6fd8:	9a0d      	ldr	r2, [sp, #52]	@ 0x34
    6fda:	4413      	add	r3, r2
    6fdc:	f103 0b01 	add.w	fp, r3, #1
    6fe0:	465e      	mov	r6, fp
    6fe2:	2e01      	cmp	r6, #1
    6fe4:	9313      	str	r3, [sp, #76]	@ 0x4c
    6fe6:	bfb8      	it	lt
    6fe8:	2601      	movlt	r6, #1
    6fea:	2e17      	cmp	r6, #23
    6fec:	f340 81f9 	ble.w	73e2 <_dtoa_r+0xe3a>
    6ff0:	2201      	movs	r2, #1
    6ff2:	2304      	movs	r3, #4
    6ff4:	005b      	lsls	r3, r3, #1
    6ff6:	f103 0014 	add.w	r0, r3, #20
    6ffa:	42b0      	cmp	r0, r6
    6ffc:	4611      	mov	r1, r2
    6ffe:	f102 0201 	add.w	r2, r2, #1
    7002:	d9f7      	bls.n	6ff4 <_dtoa_r+0xa4c>
    7004:	9b04      	ldr	r3, [sp, #16]
    7006:	63d9      	str	r1, [r3, #60]	@ 0x3c
    7008:	e404      	b.n	6814 <_dtoa_r+0x26c>
    700a:	2301      	movs	r3, #1
    700c:	930e      	str	r3, [sp, #56]	@ 0x38
    700e:	9e0b      	ldr	r6, [sp, #44]	@ 0x2c
    7010:	2e00      	cmp	r6, #0
    7012:	dd36      	ble.n	7082 <_dtoa_r+0xada>
    7014:	9613      	str	r6, [sp, #76]	@ 0x4c
    7016:	46b3      	mov	fp, r6
    7018:	e7e7      	b.n	6fea <_dtoa_r+0xa42>
    701a:	2300      	movs	r3, #0
    701c:	930e      	str	r3, [sp, #56]	@ 0x38
    701e:	e7da      	b.n	6fd6 <_dtoa_r+0xa2e>
    7020:	2300      	movs	r3, #0
    7022:	930e      	str	r3, [sp, #56]	@ 0x38
    7024:	e7f3      	b.n	700e <_dtoa_r+0xa66>
    7026:	9b10      	ldr	r3, [sp, #64]	@ 0x40
    7028:	9a09      	ldr	r2, [sp, #36]	@ 0x24
    702a:	9610      	str	r6, [sp, #64]	@ 0x40
    702c:	1af3      	subs	r3, r6, r3
    702e:	441a      	add	r2, r3
    7030:	9b08      	ldr	r3, [sp, #32]
    7032:	9209      	str	r2, [sp, #36]	@ 0x24
    7034:	445b      	add	r3, fp
    7036:	9308      	str	r3, [sp, #32]
    7038:	9b0c      	ldr	r3, [sp, #48]	@ 0x30
    703a:	461d      	mov	r5, r3
    703c:	445b      	add	r3, fp
    703e:	930c      	str	r3, [sp, #48]	@ 0x30
    7040:	2600      	movs	r6, #0
    7042:	9804      	ldr	r0, [sp, #16]
    7044:	2101      	movs	r1, #1
    7046:	f000 fad7 	bl	75f8 <__i2b>
    704a:	4607      	mov	r7, r0
    704c:	e5a5      	b.n	6b9a <_dtoa_r+0x5f2>
    704e:	9b06      	ldr	r3, [sp, #24]
    7050:	2b00      	cmp	r3, #0
    7052:	d18d      	bne.n	6f70 <_dtoa_r+0x9c8>
    7054:	e9dd 0106 	ldrd	r0, r1, [sp, #24]
    7058:	f3c1 0313 	ubfx	r3, r1, #0, #20
    705c:	460a      	mov	r2, r1
    705e:	2b00      	cmp	r3, #0
    7060:	d0a2      	beq.n	6fa8 <_dtoa_r+0xa00>
    7062:	9009      	str	r0, [sp, #36]	@ 0x24
    7064:	e786      	b.n	6f74 <_dtoa_r+0x9cc>
    7066:	ed9d 7b00 	vldr	d7, [sp]
    706a:	2702      	movs	r7, #2
    706c:	ed8d 7b14 	vstr	d7, [sp, #80]	@ 0x50
    7070:	f7ff bbfd 	b.w	686e <_dtoa_r+0x2c6>
    7074:	f47f af0e 	bne.w	6e94 <_dtoa_r+0x8ec>
    7078:	f019 0f01 	tst.w	r9, #1
    707c:	f47f af04 	bne.w	6e88 <_dtoa_r+0x8e0>
    7080:	e708      	b.n	6e94 <_dtoa_r+0x8ec>
    7082:	2301      	movs	r3, #1
    7084:	930b      	str	r3, [sp, #44]	@ 0x2c
    7086:	469b      	mov	fp, r3
    7088:	f7ff bbbf 	b.w	680a <_dtoa_r+0x262>
    708c:	d103      	bne.n	7096 <_dtoa_r+0xaee>
    708e:	f019 0f01 	tst.w	r9, #1
    7092:	f47f ae0d 	bne.w	6cb0 <_dtoa_r+0x708>
    7096:	465e      	mov	r6, fp
    7098:	f81b 3d01 	ldrb.w	r3, [fp, #-1]!
    709c:	2b30      	cmp	r3, #48	@ 0x30
    709e:	d0fa      	beq.n	7096 <_dtoa_r+0xaee>
    70a0:	e615      	b.n	6cce <_dtoa_r+0x726>
    70a2:	9a12      	ldr	r2, [sp, #72]	@ 0x48
    70a4:	2a00      	cmp	r2, #0
    70a6:	f000 809c 	beq.w	71e2 <_dtoa_r+0xc3a>
    70aa:	f203 4333 	addw	r3, r3, #1075	@ 0x433
    70ae:	9a08      	ldr	r2, [sp, #32]
    70b0:	9e10      	ldr	r6, [sp, #64]	@ 0x40
    70b2:	441a      	add	r2, r3
    70b4:	9208      	str	r2, [sp, #32]
    70b6:	9a0c      	ldr	r2, [sp, #48]	@ 0x30
    70b8:	4615      	mov	r5, r2
    70ba:	441a      	add	r2, r3
    70bc:	920c      	str	r2, [sp, #48]	@ 0x30
    70be:	e7c0      	b.n	7042 <_dtoa_r+0xa9a>
    70c0:	9a05      	ldr	r2, [sp, #20]
    70c2:	2331      	movs	r3, #49	@ 0x31
    70c4:	3501      	adds	r5, #1
    70c6:	7013      	strb	r3, [r2, #0]
    70c8:	e601      	b.n	6cce <_dtoa_r+0x726>
    70ca:	f000 80fa 	beq.w	72c2 <_dtoa_r+0xd1a>
    70ce:	9a0d      	ldr	r2, [sp, #52]	@ 0x34
    70d0:	4b48      	ldr	r3, [pc, #288]	@ (71f4 <_dtoa_r+0xc4c>)
    70d2:	4255      	negs	r5, r2
    70d4:	f005 020f 	and.w	r2, r5, #15
    70d8:	eb03 03c2 	add.w	r3, r3, r2, lsl #3
    70dc:	e9d3 2300 	ldrd	r2, r3, [r3]
    70e0:	e9dd 0100 	ldrd	r0, r1, [sp]
    70e4:	f002 fde6 	bl	9cb4 <__aeabi_dmul>
    70e8:	112d      	asrs	r5, r5, #4
    70ea:	e9cd 0114 	strd	r0, r1, [sp, #80]	@ 0x50
    70ee:	f000 8158 	beq.w	73a2 <_dtoa_r+0xdfa>
    70f2:	4e41      	ldr	r6, [pc, #260]	@ (71f8 <_dtoa_r+0xc50>)
    70f4:	2300      	movs	r3, #0
    70f6:	2702      	movs	r7, #2
    70f8:	4680      	mov	r8, r0
    70fa:	4689      	mov	r9, r1
    70fc:	07ea      	lsls	r2, r5, #31
    70fe:	d509      	bpl.n	7114 <_dtoa_r+0xb6c>
    7100:	e9d6 2300 	ldrd	r2, r3, [r6]
    7104:	4640      	mov	r0, r8
    7106:	4649      	mov	r1, r9
    7108:	f002 fdd4 	bl	9cb4 <__aeabi_dmul>
    710c:	3701      	adds	r7, #1
    710e:	4680      	mov	r8, r0
    7110:	4689      	mov	r9, r1
    7112:	2301      	movs	r3, #1
    7114:	106d      	asrs	r5, r5, #1
    7116:	f106 0608 	add.w	r6, r6, #8
    711a:	d1ef      	bne.n	70fc <_dtoa_r+0xb54>
    711c:	2b00      	cmp	r3, #0
    711e:	f47f abbf 	bne.w	68a0 <_dtoa_r+0x2f8>
    7122:	e9dd 8914 	ldrd	r8, r9, [sp, #80]	@ 0x50
    7126:	f7ff bbbb 	b.w	68a0 <_dtoa_r+0x2f8>
    712a:	f1c8 0301 	rsb	r3, r8, #1
    712e:	9008      	str	r0, [sp, #32]
    7130:	930c      	str	r3, [sp, #48]	@ 0x30
    7132:	9011      	str	r0, [sp, #68]	@ 0x44
    7134:	f7ff bb58 	b.w	67e8 <_dtoa_r+0x240>
    7138:	9e05      	ldr	r6, [sp, #20]
    713a:	e4bb      	b.n	6ab4 <_dtoa_r+0x50c>
    713c:	f8dd a000 	ldr.w	sl, [sp]
    7140:	4602      	mov	r2, r0
    7142:	460b      	mov	r3, r1
    7144:	f002 fc00 	bl	9948 <__adddf3>
    7148:	9d0d      	ldr	r5, [sp, #52]	@ 0x34
    714a:	e9cd 0100 	strd	r0, r1, [sp]
    714e:	3501      	adds	r5, #1
    7150:	4602      	mov	r2, r0
    7152:	460b      	mov	r3, r1
    7154:	e9dd 0102 	ldrd	r0, r1, [sp, #8]
    7158:	46a8      	mov	r8, r5
    715a:	f003 f81d 	bl	a198 <__aeabi_dcmplt>
    715e:	b940      	cbnz	r0, 7172 <_dtoa_r+0xbca>
    7160:	e9dd 2300 	ldrd	r2, r3, [sp]
    7164:	e9dd 0102 	ldrd	r0, r1, [sp, #8]
    7168:	f003 f80c 	bl	a184 <__aeabi_dcmpeq>
    716c:	b118      	cbz	r0, 7176 <_dtoa_r+0xbce>
    716e:	07f3      	lsls	r3, r6, #31
    7170:	d501      	bpl.n	7176 <_dtoa_r+0xbce>
    7172:	9a05      	ldr	r2, [sp, #20]
    7174:	e435      	b.n	69e2 <_dtoa_r+0x43a>
    7176:	463e      	mov	r6, r7
    7178:	e5bb      	b.n	6cf2 <_dtoa_r+0x74a>
    717a:	6879      	ldr	r1, [r7, #4]
    717c:	9804      	ldr	r0, [sp, #16]
    717e:	f000 f969 	bl	7454 <_Balloc>
    7182:	4605      	mov	r5, r0
    7184:	2800      	cmp	r0, #0
    7186:	f000 8121 	beq.w	73cc <_dtoa_r+0xe24>
    718a:	693b      	ldr	r3, [r7, #16]
    718c:	3302      	adds	r3, #2
    718e:	009a      	lsls	r2, r3, #2
    7190:	f107 010c 	add.w	r1, r7, #12
    7194:	300c      	adds	r0, #12
    7196:	f000 fe43 	bl	7e20 <memcpy>
    719a:	9804      	ldr	r0, [sp, #16]
    719c:	4629      	mov	r1, r5
    719e:	2201      	movs	r2, #1
    71a0:	f000 fb68 	bl	7874 <__lshift>
    71a4:	4680      	mov	r8, r0
    71a6:	e603      	b.n	6db0 <_dtoa_r+0x808>
    71a8:	9d0d      	ldr	r5, [sp, #52]	@ 0x34
    71aa:	463c      	mov	r4, r7
    71ac:	3501      	adds	r5, #1
    71ae:	4647      	mov	r7, r8
    71b0:	e572      	b.n	6c98 <_dtoa_r+0x6f0>
    71b2:	9c04      	ldr	r4, [sp, #16]
    71b4:	4639      	mov	r1, r7
    71b6:	4632      	mov	r2, r6
    71b8:	4620      	mov	r0, r4
    71ba:	f000 fb01 	bl	77c0 <__pow5mult>
    71be:	4652      	mov	r2, sl
    71c0:	4601      	mov	r1, r0
    71c2:	4607      	mov	r7, r0
    71c4:	4620      	mov	r0, r4
    71c6:	f000 fa45 	bl	7654 <__multiply>
    71ca:	4651      	mov	r1, sl
    71cc:	4680      	mov	r8, r0
    71ce:	4620      	mov	r0, r4
    71d0:	f000 f966 	bl	74a0 <_Bfree>
    71d4:	9b10      	ldr	r3, [sp, #64]	@ 0x40
    71d6:	1b9b      	subs	r3, r3, r6
    71d8:	46c2      	mov	sl, r8
    71da:	9310      	str	r3, [sp, #64]	@ 0x40
    71dc:	f43f acf8 	beq.w	6bd0 <_dtoa_r+0x628>
    71e0:	e4f0      	b.n	6bc4 <_dtoa_r+0x61c>
    71e2:	9b1a      	ldr	r3, [sp, #104]	@ 0x68
    71e4:	f1c3 0336 	rsb	r3, r3, #54	@ 0x36
    71e8:	e761      	b.n	70ae <_dtoa_r+0xb06>
    71ea:	bf00      	nop
    71ec:	0000a354 	.word	0x0000a354
    71f0:	7ff00000 	.word	0x7ff00000
    71f4:	0000a4b8 	.word	0x0000a4b8
    71f8:	0000a490 	.word	0x0000a490
    71fc:	e9dd 2316 	ldrd	r2, r3, [sp, #88]	@ 0x58
    7200:	e9dd 0114 	ldrd	r0, r1, [sp, #80]	@ 0x50
    7204:	f002 fd56 	bl	9cb4 <__aeabi_dmul>
    7208:	9b05      	ldr	r3, [sp, #20]
    720a:	701c      	strb	r4, [r3, #0]
    720c:	9b18      	ldr	r3, [sp, #96]	@ 0x60
    720e:	2b01      	cmp	r3, #1
    7210:	e9cd 010e 	strd	r0, r1, [sp, #56]	@ 0x38
    7214:	f000 80c3 	beq.w	739e <_dtoa_r+0xdf6>
    7218:	9f18      	ldr	r7, [sp, #96]	@ 0x60
    721a:	9b05      	ldr	r3, [sp, #20]
    721c:	9612      	str	r6, [sp, #72]	@ 0x48
    721e:	441f      	add	r7, r3
    7220:	4b7a      	ldr	r3, [pc, #488]	@ (740c <_dtoa_r+0xe64>)
    7222:	2200      	movs	r2, #0
    7224:	4640      	mov	r0, r8
    7226:	4649      	mov	r1, r9
    7228:	f002 fd44 	bl	9cb4 <__aeabi_dmul>
    722c:	460d      	mov	r5, r1
    722e:	4604      	mov	r4, r0
    7230:	f002 fff0 	bl	a214 <__aeabi_d2iz>
    7234:	4681      	mov	r9, r0
    7236:	f002 fcd3 	bl	9be0 <__aeabi_i2d>
    723a:	f109 0930 	add.w	r9, r9, #48	@ 0x30
    723e:	4602      	mov	r2, r0
    7240:	460b      	mov	r3, r1
    7242:	4620      	mov	r0, r4
    7244:	4629      	mov	r1, r5
    7246:	f002 fb7d 	bl	9944 <__aeabi_dsub>
    724a:	f806 9b01 	strb.w	r9, [r6], #1
    724e:	42be      	cmp	r6, r7
    7250:	4680      	mov	r8, r0
    7252:	4689      	mov	r9, r1
    7254:	d1e4      	bne.n	7220 <_dtoa_r+0xc78>
    7256:	9d12      	ldr	r5, [sp, #72]	@ 0x48
    7258:	4b6d      	ldr	r3, [pc, #436]	@ (7410 <_dtoa_r+0xe68>)
    725a:	2200      	movs	r2, #0
    725c:	e9dd 010e 	ldrd	r0, r1, [sp, #56]	@ 0x38
    7260:	f002 fb72 	bl	9948 <__adddf3>
    7264:	4602      	mov	r2, r0
    7266:	460b      	mov	r3, r1
    7268:	4640      	mov	r0, r8
    726a:	4649      	mov	r1, r9
    726c:	f002 ffb2 	bl	a1d4 <__aeabi_dcmpgt>
    7270:	2800      	cmp	r0, #0
    7272:	d16c      	bne.n	734e <_dtoa_r+0xda6>
    7274:	e9dd 230e 	ldrd	r2, r3, [sp, #56]	@ 0x38
    7278:	4965      	ldr	r1, [pc, #404]	@ (7410 <_dtoa_r+0xe68>)
    727a:	2000      	movs	r0, #0
    727c:	f002 fb62 	bl	9944 <__aeabi_dsub>
    7280:	4602      	mov	r2, r0
    7282:	460b      	mov	r3, r1
    7284:	4640      	mov	r0, r8
    7286:	4649      	mov	r1, r9
    7288:	f002 ff86 	bl	a198 <__aeabi_dcmplt>
    728c:	b980      	cbnz	r0, 72b0 <_dtoa_r+0xd08>
    728e:	9b1b      	ldr	r3, [sp, #108]	@ 0x6c
    7290:	2b00      	cmp	r3, #0
    7292:	f6ff ac7d 	blt.w	6b90 <_dtoa_r+0x5e8>
    7296:	9b0d      	ldr	r3, [sp, #52]	@ 0x34
    7298:	2b0e      	cmp	r3, #14
    729a:	f73f ac79 	bgt.w	6b90 <_dtoa_r+0x5e8>
    729e:	4b5d      	ldr	r3, [pc, #372]	@ (7414 <_dtoa_r+0xe6c>)
    72a0:	9a0d      	ldr	r2, [sp, #52]	@ 0x34
    72a2:	eb03 03c2 	add.w	r3, r3, r2, lsl #3
    72a6:	ed93 7b00 	vldr	d7, [r3]
    72aa:	ed8d 7b02 	vstr	d7, [sp, #8]
    72ae:	e406      	b.n	6abe <_dtoa_r+0x516>
    72b0:	463e      	mov	r6, r7
    72b2:	3f01      	subs	r7, #1
    72b4:	f816 3c01 	ldrb.w	r3, [r6, #-1]
    72b8:	2b30      	cmp	r3, #48	@ 0x30
    72ba:	d0f9      	beq.n	72b0 <_dtoa_r+0xd08>
    72bc:	9d19      	ldr	r5, [sp, #100]	@ 0x64
    72be:	3501      	adds	r5, #1
    72c0:	e517      	b.n	6cf2 <_dtoa_r+0x74a>
    72c2:	e9dd 8900 	ldrd	r8, r9, [sp]
    72c6:	2702      	movs	r7, #2
    72c8:	f7ff baea 	b.w	68a0 <_dtoa_r+0x2f8>
    72cc:	f1bb 0f00 	cmp.w	fp, #0
    72d0:	f43f ab9d 	beq.w	6a0e <_dtoa_r+0x466>
    72d4:	9c13      	ldr	r4, [sp, #76]	@ 0x4c
    72d6:	2c00      	cmp	r4, #0
    72d8:	f77f abc2 	ble.w	6a60 <_dtoa_r+0x4b8>
    72dc:	9b0d      	ldr	r3, [sp, #52]	@ 0x34
    72de:	3b01      	subs	r3, #1
    72e0:	2200      	movs	r2, #0
    72e2:	4640      	mov	r0, r8
    72e4:	4649      	mov	r1, r9
    72e6:	9319      	str	r3, [sp, #100]	@ 0x64
    72e8:	4b48      	ldr	r3, [pc, #288]	@ (740c <_dtoa_r+0xe64>)
    72ea:	f002 fce3 	bl	9cb4 <__aeabi_dmul>
    72ee:	4680      	mov	r8, r0
    72f0:	4689      	mov	r9, r1
    72f2:	1c78      	adds	r0, r7, #1
    72f4:	f002 fc74 	bl	9be0 <__aeabi_i2d>
    72f8:	4642      	mov	r2, r8
    72fa:	464b      	mov	r3, r9
    72fc:	f002 fcda 	bl	9cb4 <__aeabi_dmul>
    7300:	4b45      	ldr	r3, [pc, #276]	@ (7418 <_dtoa_r+0xe70>)
    7302:	2200      	movs	r2, #0
    7304:	f002 fb20 	bl	9948 <__adddf3>
    7308:	f1a1 7350 	sub.w	r3, r1, #54525952	@ 0x3400000
    730c:	e9cd 0114 	strd	r0, r1, [sp, #80]	@ 0x50
    7310:	9418      	str	r4, [sp, #96]	@ 0x60
    7312:	9315      	str	r3, [sp, #84]	@ 0x54
    7314:	f7ff bae6 	b.w	68e4 <_dtoa_r+0x33c>
    7318:	f108 0801 	add.w	r8, r8, #1
    731c:	2331      	movs	r3, #49	@ 0x31
    731e:	f7ff bb67 	b.w	69f0 <_dtoa_r+0x448>
    7322:	9d0d      	ldr	r5, [sp, #52]	@ 0x34
    7324:	9a05      	ldr	r2, [sp, #20]
    7326:	46b3      	mov	fp, r6
    7328:	2339      	movs	r3, #57	@ 0x39
    732a:	463c      	mov	r4, r7
    732c:	f80b 3b01 	strb.w	r3, [fp], #1
    7330:	3501      	adds	r5, #1
    7332:	4647      	mov	r7, r8
    7334:	e4c1      	b.n	6cba <_dtoa_r+0x712>
    7336:	2300      	movs	r3, #0
    7338:	9300      	str	r3, [sp, #0]
    733a:	461f      	mov	r7, r3
    733c:	e5e5      	b.n	6f0a <_dtoa_r+0x962>
    733e:	9b08      	ldr	r3, [sp, #32]
    7340:	445b      	add	r3, fp
    7342:	9308      	str	r3, [sp, #32]
    7344:	9b0c      	ldr	r3, [sp, #48]	@ 0x30
    7346:	461d      	mov	r5, r3
    7348:	445b      	add	r3, fp
    734a:	930c      	str	r3, [sp, #48]	@ 0x30
    734c:	e679      	b.n	7042 <_dtoa_r+0xa9a>
    734e:	9b19      	ldr	r3, [sp, #100]	@ 0x64
    7350:	9a05      	ldr	r2, [sp, #20]
    7352:	f103 0801 	add.w	r8, r3, #1
    7356:	f7ff bb44 	b.w	69e2 <_dtoa_r+0x43a>
    735a:	f8dd a050 	ldr.w	sl, [sp, #80]	@ 0x50
    735e:	e7ad      	b.n	72bc <_dtoa_r+0xd14>
    7360:	f8dd a050 	ldr.w	sl, [sp, #80]	@ 0x50
    7364:	f8dd b058 	ldr.w	fp, [sp, #88]	@ 0x58
    7368:	f7ff bb7a 	b.w	6a60 <_dtoa_r+0x4b8>
    736c:	f1b9 0f39 	cmp.w	r9, #57	@ 0x39
    7370:	d0d7      	beq.n	7322 <_dtoa_r+0xd7a>
    7372:	2d00      	cmp	r5, #0
    7374:	f73f ad8c 	bgt.w	6e90 <_dtoa_r+0x8e8>
    7378:	e58c      	b.n	6e94 <_dtoa_r+0x8ec>
    737a:	9b02      	ldr	r3, [sp, #8]
    737c:	2b02      	cmp	r3, #2
    737e:	dc03      	bgt.n	7388 <_dtoa_r+0xde0>
    7380:	9d0d      	ldr	r5, [sp, #52]	@ 0x34
    7382:	f8dd b04c 	ldr.w	fp, [sp, #76]	@ 0x4c
    7386:	e464      	b.n	6c52 <_dtoa_r+0x6aa>
    7388:	f8dd b04c 	ldr.w	fp, [sp, #76]	@ 0x4c
    738c:	960d      	str	r6, [sp, #52]	@ 0x34
    738e:	e5aa      	b.n	6ee6 <_dtoa_r+0x93e>
    7390:	9b02      	ldr	r3, [sp, #8]
    7392:	2b02      	cmp	r3, #2
    7394:	dcf8      	bgt.n	7388 <_dtoa_r+0xde0>
    7396:	f8dd b04c 	ldr.w	fp, [sp, #76]	@ 0x4c
    739a:	960d      	str	r6, [sp, #52]	@ 0x34
    739c:	e4fb      	b.n	6d96 <_dtoa_r+0x7ee>
    739e:	4637      	mov	r7, r6
    73a0:	e75a      	b.n	7258 <_dtoa_r+0xcb0>
    73a2:	e9dd 8914 	ldrd	r8, r9, [sp, #80]	@ 0x50
    73a6:	2702      	movs	r7, #2
    73a8:	f7ff ba7a 	b.w	68a0 <_dtoa_r+0x2f8>
    73ac:	9b04      	ldr	r3, [sp, #16]
    73ae:	2500      	movs	r5, #0
    73b0:	63dd      	str	r5, [r3, #60]	@ 0x3c
    73b2:	4629      	mov	r1, r5
    73b4:	4618      	mov	r0, r3
    73b6:	f000 f84d 	bl	7454 <_Balloc>
    73ba:	9005      	str	r0, [sp, #20]
    73bc:	b9d0      	cbnz	r0, 73f4 <_dtoa_r+0xe4c>
    73be:	4b17      	ldr	r3, [pc, #92]	@ (741c <_dtoa_r+0xe74>)
    73c0:	4817      	ldr	r0, [pc, #92]	@ (7420 <_dtoa_r+0xe78>)
    73c2:	2200      	movs	r2, #0
    73c4:	f240 11af 	movw	r1, #431	@ 0x1af
    73c8:	f000 fdc4 	bl	7f54 <__assert_func>
    73cc:	4b13      	ldr	r3, [pc, #76]	@ (741c <_dtoa_r+0xe74>)
    73ce:	4814      	ldr	r0, [pc, #80]	@ (7420 <_dtoa_r+0xe78>)
    73d0:	462a      	mov	r2, r5
    73d2:	f240 21ef 	movw	r1, #751	@ 0x2ef
    73d6:	f000 fdbd 	bl	7f54 <__assert_func>
    73da:	2a00      	cmp	r2, #0
    73dc:	f73f ad48 	bgt.w	6e70 <_dtoa_r+0x8c8>
    73e0:	e558      	b.n	6e94 <_dtoa_r+0x8ec>
    73e2:	9b04      	ldr	r3, [sp, #16]
    73e4:	2100      	movs	r1, #0
    73e6:	63d9      	str	r1, [r3, #60]	@ 0x3c
    73e8:	f7ff ba14 	b.w	6814 <_dtoa_r+0x26c>
    73ec:	4b0d      	ldr	r3, [pc, #52]	@ (7424 <_dtoa_r+0xe7c>)
    73ee:	9305      	str	r3, [sp, #20]
    73f0:	f7ff b918 	b.w	6624 <_dtoa_r+0x7c>
    73f4:	e9dd 3204 	ldrd	r3, r2, [sp, #16]
    73f8:	639a      	str	r2, [r3, #56]	@ 0x38
    73fa:	f04f 33ff 	mov.w	r3, #4294967295
    73fe:	2201      	movs	r2, #1
    7400:	950b      	str	r5, [sp, #44]	@ 0x2c
    7402:	9313      	str	r3, [sp, #76]	@ 0x4c
    7404:	920e      	str	r2, [sp, #56]	@ 0x38
    7406:	469b      	mov	fp, r3
    7408:	f7ff bb2a 	b.w	6a60 <_dtoa_r+0x4b8>
    740c:	40240000 	.word	0x40240000
    7410:	3fe00000 	.word	0x3fe00000
    7414:	0000a4b8 	.word	0x0000a4b8
    7418:	401c0000 	.word	0x401c0000
    741c:	0000a358 	.word	0x0000a358
    7420:	0000a36c 	.word	0x0000a36c
    7424:	0000a348 	.word	0x0000a348

00007428 <__ascii_mbtowc>:
    7428:	b082      	sub	sp, #8
    742a:	b149      	cbz	r1, 7440 <__ascii_mbtowc+0x18>
    742c:	b15a      	cbz	r2, 7446 <__ascii_mbtowc+0x1e>
    742e:	b16b      	cbz	r3, 744c <__ascii_mbtowc+0x24>
    7430:	7813      	ldrb	r3, [r2, #0]
    7432:	600b      	str	r3, [r1, #0]
    7434:	7812      	ldrb	r2, [r2, #0]
    7436:	1e10      	subs	r0, r2, #0
    7438:	bf18      	it	ne
    743a:	2001      	movne	r0, #1
    743c:	b002      	add	sp, #8
    743e:	4770      	bx	lr
    7440:	a901      	add	r1, sp, #4
    7442:	2a00      	cmp	r2, #0
    7444:	d1f3      	bne.n	742e <__ascii_mbtowc+0x6>
    7446:	4610      	mov	r0, r2
    7448:	b002      	add	sp, #8
    744a:	4770      	bx	lr
    744c:	f06f 0001 	mvn.w	r0, #1
    7450:	e7f4      	b.n	743c <__ascii_mbtowc+0x14>
    7452:	bf00      	nop

00007454 <_Balloc>:
    7454:	6c43      	ldr	r3, [r0, #68]	@ 0x44
    7456:	b570      	push	{r4, r5, r6, lr}
    7458:	4605      	mov	r5, r0
    745a:	460c      	mov	r4, r1
    745c:	b14b      	cbz	r3, 7472 <_Balloc+0x1e>
    745e:	f853 0024 	ldr.w	r0, [r3, r4, lsl #2]
    7462:	b180      	cbz	r0, 7486 <_Balloc+0x32>
    7464:	6802      	ldr	r2, [r0, #0]
    7466:	f843 2024 	str.w	r2, [r3, r4, lsl #2]
    746a:	2300      	movs	r3, #0
    746c:	e9c0 3303 	strd	r3, r3, [r0, #12]
    7470:	bd70      	pop	{r4, r5, r6, pc}
    7472:	2221      	movs	r2, #33	@ 0x21
    7474:	2104      	movs	r1, #4
    7476:	f000 fd8d 	bl	7f94 <_calloc_r>
    747a:	4603      	mov	r3, r0
    747c:	6468      	str	r0, [r5, #68]	@ 0x44
    747e:	2800      	cmp	r0, #0
    7480:	d1ed      	bne.n	745e <_Balloc+0xa>
    7482:	2000      	movs	r0, #0
    7484:	bd70      	pop	{r4, r5, r6, pc}
    7486:	2101      	movs	r1, #1
    7488:	fa01 f604 	lsl.w	r6, r1, r4
    748c:	1d72      	adds	r2, r6, #5
    748e:	0092      	lsls	r2, r2, #2
    7490:	4628      	mov	r0, r5
    7492:	f000 fd7f 	bl	7f94 <_calloc_r>
    7496:	2800      	cmp	r0, #0
    7498:	d0f3      	beq.n	7482 <_Balloc+0x2e>
    749a:	e9c0 4601 	strd	r4, r6, [r0, #4]
    749e:	e7e4      	b.n	746a <_Balloc+0x16>

000074a0 <_Bfree>:
    74a0:	b131      	cbz	r1, 74b0 <_Bfree+0x10>
    74a2:	6c43      	ldr	r3, [r0, #68]	@ 0x44
    74a4:	684a      	ldr	r2, [r1, #4]
    74a6:	f853 0022 	ldr.w	r0, [r3, r2, lsl #2]
    74aa:	6008      	str	r0, [r1, #0]
    74ac:	f843 1022 	str.w	r1, [r3, r2, lsl #2]
    74b0:	4770      	bx	lr
    74b2:	bf00      	nop

000074b4 <__multadd>:
    74b4:	e92d 41f0 	stmdb	sp!, {r4, r5, r6, r7, r8, lr}
    74b8:	690d      	ldr	r5, [r1, #16]
    74ba:	4607      	mov	r7, r0
    74bc:	460e      	mov	r6, r1
    74be:	461c      	mov	r4, r3
    74c0:	f101 0e14 	add.w	lr, r1, #20
    74c4:	2000      	movs	r0, #0
    74c6:	f8de 1000 	ldr.w	r1, [lr]
    74ca:	b28b      	uxth	r3, r1
    74cc:	fb02 4303 	mla	r3, r2, r3, r4
    74d0:	ea4f 4c13 	mov.w	ip, r3, lsr #16
    74d4:	0c09      	lsrs	r1, r1, #16
    74d6:	fb02 cc01 	mla	ip, r2, r1, ip
    74da:	3001      	adds	r0, #1
    74dc:	b29b      	uxth	r3, r3
    74de:	eb03 430c 	add.w	r3, r3, ip, lsl #16
    74e2:	4285      	cmp	r5, r0
    74e4:	f84e 3b04 	str.w	r3, [lr], #4
    74e8:	ea4f 441c 	mov.w	r4, ip, lsr #16
    74ec:	dceb      	bgt.n	74c6 <__multadd+0x12>
    74ee:	b13c      	cbz	r4, 7500 <__multadd+0x4c>
    74f0:	68b3      	ldr	r3, [r6, #8]
    74f2:	42ab      	cmp	r3, r5
    74f4:	dd07      	ble.n	7506 <__multadd+0x52>
    74f6:	eb06 0385 	add.w	r3, r6, r5, lsl #2
    74fa:	3501      	adds	r5, #1
    74fc:	615c      	str	r4, [r3, #20]
    74fe:	6135      	str	r5, [r6, #16]
    7500:	4630      	mov	r0, r6
    7502:	e8bd 81f0 	ldmia.w	sp!, {r4, r5, r6, r7, r8, pc}
    7506:	6871      	ldr	r1, [r6, #4]
    7508:	4638      	mov	r0, r7
    750a:	3101      	adds	r1, #1
    750c:	f7ff ffa2 	bl	7454 <_Balloc>
    7510:	4680      	mov	r8, r0
    7512:	b1a8      	cbz	r0, 7540 <__multadd+0x8c>
    7514:	6932      	ldr	r2, [r6, #16]
    7516:	3202      	adds	r2, #2
    7518:	f106 010c 	add.w	r1, r6, #12
    751c:	0092      	lsls	r2, r2, #2
    751e:	300c      	adds	r0, #12
    7520:	f000 fc7e 	bl	7e20 <memcpy>
    7524:	6c7b      	ldr	r3, [r7, #68]	@ 0x44
    7526:	6872      	ldr	r2, [r6, #4]
    7528:	f853 1022 	ldr.w	r1, [r3, r2, lsl #2]
    752c:	6031      	str	r1, [r6, #0]
    752e:	f843 6022 	str.w	r6, [r3, r2, lsl #2]
    7532:	4646      	mov	r6, r8
    7534:	eb06 0385 	add.w	r3, r6, r5, lsl #2
    7538:	3501      	adds	r5, #1
    753a:	615c      	str	r4, [r3, #20]
    753c:	6135      	str	r5, [r6, #16]
    753e:	e7df      	b.n	7500 <__multadd+0x4c>
    7540:	4b02      	ldr	r3, [pc, #8]	@ (754c <__multadd+0x98>)
    7542:	4803      	ldr	r0, [pc, #12]	@ (7550 <__multadd+0x9c>)
    7544:	4642      	mov	r2, r8
    7546:	21ba      	movs	r1, #186	@ 0xba
    7548:	f000 fd04 	bl	7f54 <__assert_func>
    754c:	0000a358 	.word	0x0000a358
    7550:	0000a3c8 	.word	0x0000a3c8

00007554 <__hi0bits>:
    7554:	f5b0 3f80 	cmp.w	r0, #65536	@ 0x10000
    7558:	4603      	mov	r3, r0
    755a:	bf36      	itet	cc
    755c:	0403      	lslcc	r3, r0, #16
    755e:	2000      	movcs	r0, #0
    7560:	2010      	movcc	r0, #16
    7562:	f1b3 7f80 	cmp.w	r3, #16777216	@ 0x1000000
    7566:	bf3c      	itt	cc
    7568:	021b      	lslcc	r3, r3, #8
    756a:	3008      	addcc	r0, #8
    756c:	f1b3 5f80 	cmp.w	r3, #268435456	@ 0x10000000
    7570:	bf3c      	itt	cc
    7572:	011b      	lslcc	r3, r3, #4
    7574:	3004      	addcc	r0, #4
    7576:	f1b3 4f80 	cmp.w	r3, #1073741824	@ 0x40000000
    757a:	d303      	bcc.n	7584 <__hi0bits+0x30>
    757c:	2b00      	cmp	r3, #0
    757e:	db06      	blt.n	758e <__hi0bits+0x3a>
    7580:	3001      	adds	r0, #1
    7582:	4770      	bx	lr
    7584:	009b      	lsls	r3, r3, #2
    7586:	d403      	bmi.n	7590 <__hi0bits+0x3c>
    7588:	005b      	lsls	r3, r3, #1
    758a:	d403      	bmi.n	7594 <__hi0bits+0x40>
    758c:	2020      	movs	r0, #32
    758e:	4770      	bx	lr
    7590:	3002      	adds	r0, #2
    7592:	4770      	bx	lr
    7594:	3003      	adds	r0, #3
    7596:	4770      	bx	lr

00007598 <__lo0bits>:
    7598:	6803      	ldr	r3, [r0, #0]
    759a:	f013 0207 	ands.w	r2, r3, #7
    759e:	4601      	mov	r1, r0
    75a0:	d007      	beq.n	75b2 <__lo0bits+0x1a>
    75a2:	07da      	lsls	r2, r3, #31
    75a4:	d41f      	bmi.n	75e6 <__lo0bits+0x4e>
    75a6:	0798      	lsls	r0, r3, #30
    75a8:	d521      	bpl.n	75ee <__lo0bits+0x56>
    75aa:	085b      	lsrs	r3, r3, #1
    75ac:	600b      	str	r3, [r1, #0]
    75ae:	2001      	movs	r0, #1
    75b0:	4770      	bx	lr
    75b2:	b298      	uxth	r0, r3
    75b4:	b1a0      	cbz	r0, 75e0 <__lo0bits+0x48>
    75b6:	4610      	mov	r0, r2
    75b8:	b2da      	uxtb	r2, r3
    75ba:	b90a      	cbnz	r2, 75c0 <__lo0bits+0x28>
    75bc:	3008      	adds	r0, #8
    75be:	0a1b      	lsrs	r3, r3, #8
    75c0:	071a      	lsls	r2, r3, #28
    75c2:	bf04      	itt	eq
    75c4:	091b      	lsreq	r3, r3, #4
    75c6:	3004      	addeq	r0, #4
    75c8:	079a      	lsls	r2, r3, #30
    75ca:	bf04      	itt	eq
    75cc:	089b      	lsreq	r3, r3, #2
    75ce:	3002      	addeq	r0, #2
    75d0:	07da      	lsls	r2, r3, #31
    75d2:	d403      	bmi.n	75dc <__lo0bits+0x44>
    75d4:	085b      	lsrs	r3, r3, #1
    75d6:	f100 0001 	add.w	r0, r0, #1
    75da:	d006      	beq.n	75ea <__lo0bits+0x52>
    75dc:	600b      	str	r3, [r1, #0]
    75de:	4770      	bx	lr
    75e0:	0c1b      	lsrs	r3, r3, #16
    75e2:	2010      	movs	r0, #16
    75e4:	e7e8      	b.n	75b8 <__lo0bits+0x20>
    75e6:	2000      	movs	r0, #0
    75e8:	4770      	bx	lr
    75ea:	2020      	movs	r0, #32
    75ec:	4770      	bx	lr
    75ee:	089b      	lsrs	r3, r3, #2
    75f0:	600b      	str	r3, [r1, #0]
    75f2:	2002      	movs	r0, #2
    75f4:	4770      	bx	lr
    75f6:	bf00      	nop

000075f8 <__i2b>:
    75f8:	b538      	push	{r3, r4, r5, lr}
    75fa:	6c43      	ldr	r3, [r0, #68]	@ 0x44
    75fc:	4604      	mov	r4, r0
    75fe:	460d      	mov	r5, r1
    7600:	b14b      	cbz	r3, 7616 <__i2b+0x1e>
    7602:	6858      	ldr	r0, [r3, #4]
    7604:	b1b0      	cbz	r0, 7634 <__i2b+0x3c>
    7606:	6802      	ldr	r2, [r0, #0]
    7608:	605a      	str	r2, [r3, #4]
    760a:	2200      	movs	r2, #0
    760c:	2301      	movs	r3, #1
    760e:	e9c0 2303 	strd	r2, r3, [r0, #12]
    7612:	6145      	str	r5, [r0, #20]
    7614:	bd38      	pop	{r3, r4, r5, pc}
    7616:	2221      	movs	r2, #33	@ 0x21
    7618:	2104      	movs	r1, #4
    761a:	f000 fcbb 	bl	7f94 <_calloc_r>
    761e:	4603      	mov	r3, r0
    7620:	6460      	str	r0, [r4, #68]	@ 0x44
    7622:	2800      	cmp	r0, #0
    7624:	d1ed      	bne.n	7602 <__i2b+0xa>
    7626:	4b09      	ldr	r3, [pc, #36]	@ (764c <__i2b+0x54>)
    7628:	4809      	ldr	r0, [pc, #36]	@ (7650 <__i2b+0x58>)
    762a:	2200      	movs	r2, #0
    762c:	f240 1145 	movw	r1, #325	@ 0x145
    7630:	f000 fc90 	bl	7f54 <__assert_func>
    7634:	221c      	movs	r2, #28
    7636:	2101      	movs	r1, #1
    7638:	4620      	mov	r0, r4
    763a:	f000 fcab 	bl	7f94 <_calloc_r>
    763e:	2800      	cmp	r0, #0
    7640:	d0f1      	beq.n	7626 <__i2b+0x2e>
    7642:	2201      	movs	r2, #1
    7644:	2302      	movs	r3, #2
    7646:	e9c0 2301 	strd	r2, r3, [r0, #4]
    764a:	e7de      	b.n	760a <__i2b+0x12>
    764c:	0000a358 	.word	0x0000a358
    7650:	0000a3c8 	.word	0x0000a3c8

00007654 <__multiply>:
    7654:	e92d 4ff0 	stmdb	sp!, {r4, r5, r6, r7, r8, r9, sl, fp, lr}
    7658:	f8d1 8010 	ldr.w	r8, [r1, #16]
    765c:	6915      	ldr	r5, [r2, #16]
    765e:	45a8      	cmp	r8, r5
    7660:	b085      	sub	sp, #20
    7662:	460e      	mov	r6, r1
    7664:	4692      	mov	sl, r2
    7666:	db05      	blt.n	7674 <__multiply+0x20>
    7668:	462a      	mov	r2, r5
    766a:	4653      	mov	r3, sl
    766c:	4645      	mov	r5, r8
    766e:	468a      	mov	sl, r1
    7670:	4690      	mov	r8, r2
    7672:	461e      	mov	r6, r3
    7674:	f8da 3008 	ldr.w	r3, [sl, #8]
    7678:	f8da 1004 	ldr.w	r1, [sl, #4]
    767c:	eb05 0408 	add.w	r4, r5, r8
    7680:	42a3      	cmp	r3, r4
    7682:	bfb8      	it	lt
    7684:	3101      	addlt	r1, #1
    7686:	f7ff fee5 	bl	7454 <_Balloc>
    768a:	4684      	mov	ip, r0
    768c:	2800      	cmp	r0, #0
    768e:	f000 808b 	beq.w	77a8 <__multiply+0x154>
    7692:	f100 0714 	add.w	r7, r0, #20
    7696:	eb07 0e84 	add.w	lr, r7, r4, lsl #2
    769a:	4577      	cmp	r7, lr
    769c:	d205      	bcs.n	76aa <__multiply+0x56>
    769e:	463b      	mov	r3, r7
    76a0:	2200      	movs	r2, #0
    76a2:	f843 2b04 	str.w	r2, [r3], #4
    76a6:	459e      	cmp	lr, r3
    76a8:	d8fb      	bhi.n	76a2 <__multiply+0x4e>
    76aa:	3614      	adds	r6, #20
    76ac:	eb06 0888 	add.w	r8, r6, r8, lsl #2
    76b0:	f10a 0914 	add.w	r9, sl, #20
    76b4:	4546      	cmp	r6, r8
    76b6:	eb09 0585 	add.w	r5, r9, r5, lsl #2
    76ba:	d266      	bcs.n	778a <__multiply+0x136>
    76bc:	eba5 030a 	sub.w	r3, r5, sl
    76c0:	3b15      	subs	r3, #21
    76c2:	f023 0303 	bic.w	r3, r3, #3
    76c6:	f10a 0a15 	add.w	sl, sl, #21
    76ca:	3304      	adds	r3, #4
    76cc:	4555      	cmp	r5, sl
    76ce:	bf2c      	ite	cs
    76d0:	469b      	movcs	fp, r3
    76d2:	f04f 0b04 	movcc.w	fp, #4
    76d6:	f8cd e008 	str.w	lr, [sp, #8]
    76da:	9403      	str	r4, [sp, #12]
    76dc:	46ae      	mov	lr, r5
    76de:	46e2      	mov	sl, ip
    76e0:	e005      	b.n	76ee <__multiply+0x9a>
    76e2:	0c09      	lsrs	r1, r1, #16
    76e4:	d12a      	bne.n	773c <__multiply+0xe8>
    76e6:	45b0      	cmp	r8, r6
    76e8:	f107 0704 	add.w	r7, r7, #4
    76ec:	d94a      	bls.n	7784 <__multiply+0x130>
    76ee:	f856 1b04 	ldr.w	r1, [r6], #4
    76f2:	b28d      	uxth	r5, r1
    76f4:	2d00      	cmp	r5, #0
    76f6:	d0f4      	beq.n	76e2 <__multiply+0x8e>
    76f8:	46cc      	mov	ip, r9
    76fa:	463c      	mov	r4, r7
    76fc:	2300      	movs	r3, #0
    76fe:	9601      	str	r6, [sp, #4]
    7700:	f85c 0b04 	ldr.w	r0, [ip], #4
    7704:	6821      	ldr	r1, [r4, #0]
    7706:	b286      	uxth	r6, r0
    7708:	b28a      	uxth	r2, r1
    770a:	0c00      	lsrs	r0, r0, #16
    770c:	fb05 2206 	mla	r2, r5, r6, r2
    7710:	0c09      	lsrs	r1, r1, #16
    7712:	441a      	add	r2, r3
    7714:	fb05 1100 	mla	r1, r5, r0, r1
    7718:	eb01 4112 	add.w	r1, r1, r2, lsr #16
    771c:	b292      	uxth	r2, r2
    771e:	ea42 4201 	orr.w	r2, r2, r1, lsl #16
    7722:	45e6      	cmp	lr, ip
    7724:	f844 2b04 	str.w	r2, [r4], #4
    7728:	ea4f 4311 	mov.w	r3, r1, lsr #16
    772c:	d8e8      	bhi.n	7700 <__multiply+0xac>
    772e:	9e01      	ldr	r6, [sp, #4]
    7730:	f847 300b 	str.w	r3, [r7, fp]
    7734:	f856 1c04 	ldr.w	r1, [r6, #-4]
    7738:	0c09      	lsrs	r1, r1, #16
    773a:	d0d4      	beq.n	76e6 <__multiply+0x92>
    773c:	683b      	ldr	r3, [r7, #0]
    773e:	2200      	movs	r2, #0
    7740:	4648      	mov	r0, r9
    7742:	461d      	mov	r5, r3
    7744:	463c      	mov	r4, r7
    7746:	4694      	mov	ip, r2
    7748:	8802      	ldrh	r2, [r0, #0]
    774a:	fb01 c202 	mla	r2, r1, r2, ip
    774e:	eb02 4215 	add.w	r2, r2, r5, lsr #16
    7752:	b29b      	uxth	r3, r3
    7754:	ea43 4302 	orr.w	r3, r3, r2, lsl #16
    7758:	f844 3b04 	str.w	r3, [r4], #4
    775c:	f850 3b04 	ldr.w	r3, [r0], #4
    7760:	6825      	ldr	r5, [r4, #0]
    7762:	ea4f 4c13 	mov.w	ip, r3, lsr #16
    7766:	b2ab      	uxth	r3, r5
    7768:	fb01 330c 	mla	r3, r1, ip, r3
    776c:	eb03 4312 	add.w	r3, r3, r2, lsr #16
    7770:	4570      	cmp	r0, lr
    7772:	ea4f 4c13 	mov.w	ip, r3, lsr #16
    7776:	d3e7      	bcc.n	7748 <__multiply+0xf4>
    7778:	45b0      	cmp	r8, r6
    777a:	f847 300b 	str.w	r3, [r7, fp]
    777e:	f107 0704 	add.w	r7, r7, #4
    7782:	d8b4      	bhi.n	76ee <__multiply+0x9a>
    7784:	e9dd e402 	ldrd	lr, r4, [sp, #8]
    7788:	46d4      	mov	ip, sl
    778a:	2c00      	cmp	r4, #0
    778c:	dc02      	bgt.n	7794 <__multiply+0x140>
    778e:	e005      	b.n	779c <__multiply+0x148>
    7790:	3c01      	subs	r4, #1
    7792:	d003      	beq.n	779c <__multiply+0x148>
    7794:	f85e 3d04 	ldr.w	r3, [lr, #-4]!
    7798:	2b00      	cmp	r3, #0
    779a:	d0f9      	beq.n	7790 <__multiply+0x13c>
    779c:	4660      	mov	r0, ip
    779e:	f8cc 4010 	str.w	r4, [ip, #16]
    77a2:	b005      	add	sp, #20
    77a4:	e8bd 8ff0 	ldmia.w	sp!, {r4, r5, r6, r7, r8, r9, sl, fp, pc}
    77a8:	4b03      	ldr	r3, [pc, #12]	@ (77b8 <__multiply+0x164>)
    77aa:	4804      	ldr	r0, [pc, #16]	@ (77bc <__multiply+0x168>)
    77ac:	4662      	mov	r2, ip
    77ae:	f44f 71b1 	mov.w	r1, #354	@ 0x162
    77b2:	f000 fbcf 	bl	7f54 <__assert_func>
    77b6:	bf00      	nop
    77b8:	0000a358 	.word	0x0000a358
    77bc:	0000a3c8 	.word	0x0000a3c8

000077c0 <__pow5mult>:
    77c0:	f012 0303 	ands.w	r3, r2, #3
    77c4:	e92d 41f0 	stmdb	sp!, {r4, r5, r6, r7, r8, lr}
    77c8:	4614      	mov	r4, r2
    77ca:	4607      	mov	r7, r0
    77cc:	d12c      	bne.n	7828 <__pow5mult+0x68>
    77ce:	460d      	mov	r5, r1
    77d0:	10a4      	asrs	r4, r4, #2
    77d2:	d01c      	beq.n	780e <__pow5mult+0x4e>
    77d4:	6c3e      	ldr	r6, [r7, #64]	@ 0x40
    77d6:	b386      	cbz	r6, 783a <__pow5mult+0x7a>
    77d8:	07e3      	lsls	r3, r4, #31
    77da:	f04f 0800 	mov.w	r8, #0
    77de:	d406      	bmi.n	77ee <__pow5mult+0x2e>
    77e0:	1064      	asrs	r4, r4, #1
    77e2:	d014      	beq.n	780e <__pow5mult+0x4e>
    77e4:	6830      	ldr	r0, [r6, #0]
    77e6:	b1a8      	cbz	r0, 7814 <__pow5mult+0x54>
    77e8:	4606      	mov	r6, r0
    77ea:	07e3      	lsls	r3, r4, #31
    77ec:	d5f8      	bpl.n	77e0 <__pow5mult+0x20>
    77ee:	4632      	mov	r2, r6
    77f0:	4629      	mov	r1, r5
    77f2:	4638      	mov	r0, r7
    77f4:	f7ff ff2e 	bl	7654 <__multiply>
    77f8:	b135      	cbz	r5, 7808 <__pow5mult+0x48>
    77fa:	6c7b      	ldr	r3, [r7, #68]	@ 0x44
    77fc:	6869      	ldr	r1, [r5, #4]
    77fe:	f853 2021 	ldr.w	r2, [r3, r1, lsl #2]
    7802:	602a      	str	r2, [r5, #0]
    7804:	f843 5021 	str.w	r5, [r3, r1, lsl #2]
    7808:	1064      	asrs	r4, r4, #1
    780a:	4605      	mov	r5, r0
    780c:	d1ea      	bne.n	77e4 <__pow5mult+0x24>
    780e:	4628      	mov	r0, r5
    7810:	e8bd 81f0 	ldmia.w	sp!, {r4, r5, r6, r7, r8, pc}
    7814:	4632      	mov	r2, r6
    7816:	4631      	mov	r1, r6
    7818:	4638      	mov	r0, r7
    781a:	f7ff ff1b 	bl	7654 <__multiply>
    781e:	6030      	str	r0, [r6, #0]
    7820:	f8c0 8000 	str.w	r8, [r0]
    7824:	4606      	mov	r6, r0
    7826:	e7e0      	b.n	77ea <__pow5mult+0x2a>
    7828:	3b01      	subs	r3, #1
    782a:	4a0f      	ldr	r2, [pc, #60]	@ (7868 <__pow5mult+0xa8>)
    782c:	f852 2023 	ldr.w	r2, [r2, r3, lsl #2]
    7830:	2300      	movs	r3, #0
    7832:	f7ff fe3f 	bl	74b4 <__multadd>
    7836:	4605      	mov	r5, r0
    7838:	e7ca      	b.n	77d0 <__pow5mult+0x10>
    783a:	2101      	movs	r1, #1
    783c:	4638      	mov	r0, r7
    783e:	f7ff fe09 	bl	7454 <_Balloc>
    7842:	4606      	mov	r6, r0
    7844:	b140      	cbz	r0, 7858 <__pow5mult+0x98>
    7846:	2301      	movs	r3, #1
    7848:	f240 2271 	movw	r2, #625	@ 0x271
    784c:	e9c0 3204 	strd	r3, r2, [r0, #16]
    7850:	2300      	movs	r3, #0
    7852:	6438      	str	r0, [r7, #64]	@ 0x40
    7854:	6003      	str	r3, [r0, #0]
    7856:	e7bf      	b.n	77d8 <__pow5mult+0x18>
    7858:	4b04      	ldr	r3, [pc, #16]	@ (786c <__pow5mult+0xac>)
    785a:	4805      	ldr	r0, [pc, #20]	@ (7870 <__pow5mult+0xb0>)
    785c:	4632      	mov	r2, r6
    785e:	f240 1145 	movw	r1, #325	@ 0x145
    7862:	f000 fb77 	bl	7f54 <__assert_func>
    7866:	bf00      	nop
    7868:	0000a484 	.word	0x0000a484
    786c:	0000a358 	.word	0x0000a358
    7870:	0000a3c8 	.word	0x0000a3c8

00007874 <__lshift>:
    7874:	e92d 47f0 	stmdb	sp!, {r4, r5, r6, r7, r8, r9, sl, lr}
    7878:	460c      	mov	r4, r1
    787a:	4690      	mov	r8, r2
    787c:	6927      	ldr	r7, [r4, #16]
    787e:	68a3      	ldr	r3, [r4, #8]
    7880:	6849      	ldr	r1, [r1, #4]
    7882:	eb07 1762 	add.w	r7, r7, r2, asr #5
    7886:	1c7d      	adds	r5, r7, #1
    7888:	429d      	cmp	r5, r3
    788a:	4606      	mov	r6, r0
    788c:	ea4f 1962 	mov.w	r9, r2, asr #5
    7890:	dd04      	ble.n	789c <__lshift+0x28>
    7892:	005b      	lsls	r3, r3, #1
    7894:	429d      	cmp	r5, r3
    7896:	f101 0101 	add.w	r1, r1, #1
    789a:	dcfa      	bgt.n	7892 <__lshift+0x1e>
    789c:	4630      	mov	r0, r6
    789e:	f7ff fdd9 	bl	7454 <_Balloc>
    78a2:	4684      	mov	ip, r0
    78a4:	2800      	cmp	r0, #0
    78a6:	d051      	beq.n	794c <__lshift+0xd8>
    78a8:	f1b9 0f00 	cmp.w	r9, #0
    78ac:	f100 0014 	add.w	r0, r0, #20
    78b0:	dd0e      	ble.n	78d0 <__lshift+0x5c>
    78b2:	f109 0205 	add.w	r2, r9, #5
    78b6:	ea4f 0e82 	mov.w	lr, r2, lsl #2
    78ba:	4603      	mov	r3, r0
    78bc:	eb0c 0282 	add.w	r2, ip, r2, lsl #2
    78c0:	2100      	movs	r1, #0
    78c2:	f843 1b04 	str.w	r1, [r3], #4
    78c6:	4293      	cmp	r3, r2
    78c8:	d1fb      	bne.n	78c2 <__lshift+0x4e>
    78ca:	f1ae 0314 	sub.w	r3, lr, #20
    78ce:	4418      	add	r0, r3
    78d0:	6921      	ldr	r1, [r4, #16]
    78d2:	f104 0314 	add.w	r3, r4, #20
    78d6:	f018 081f 	ands.w	r8, r8, #31
    78da:	eb03 0181 	add.w	r1, r3, r1, lsl #2
    78de:	d02d      	beq.n	793c <__lshift+0xc8>
    78e0:	f1c8 0920 	rsb	r9, r8, #32
    78e4:	4686      	mov	lr, r0
    78e6:	f04f 0a00 	mov.w	sl, #0
    78ea:	681a      	ldr	r2, [r3, #0]
    78ec:	fa02 f208 	lsl.w	r2, r2, r8
    78f0:	ea42 020a 	orr.w	r2, r2, sl
    78f4:	f84e 2b04 	str.w	r2, [lr], #4
    78f8:	f853 2b04 	ldr.w	r2, [r3], #4
    78fc:	4299      	cmp	r1, r3
    78fe:	fa22 fa09 	lsr.w	sl, r2, r9
    7902:	d8f2      	bhi.n	78ea <__lshift+0x76>
    7904:	1b0b      	subs	r3, r1, r4
    7906:	3b15      	subs	r3, #21
    7908:	f023 0303 	bic.w	r3, r3, #3
    790c:	3304      	adds	r3, #4
    790e:	f104 0215 	add.w	r2, r4, #21
    7912:	4291      	cmp	r1, r2
    7914:	bf38      	it	cc
    7916:	2304      	movcc	r3, #4
    7918:	f840 a003 	str.w	sl, [r0, r3]
    791c:	f1ba 0f00 	cmp.w	sl, #0
    7920:	d100      	bne.n	7924 <__lshift+0xb0>
    7922:	463d      	mov	r5, r7
    7924:	6c73      	ldr	r3, [r6, #68]	@ 0x44
    7926:	6862      	ldr	r2, [r4, #4]
    7928:	f8cc 5010 	str.w	r5, [ip, #16]
    792c:	f853 1022 	ldr.w	r1, [r3, r2, lsl #2]
    7930:	6021      	str	r1, [r4, #0]
    7932:	4660      	mov	r0, ip
    7934:	f843 4022 	str.w	r4, [r3, r2, lsl #2]
    7938:	e8bd 87f0 	ldmia.w	sp!, {r4, r5, r6, r7, r8, r9, sl, pc}
    793c:	3804      	subs	r0, #4
    793e:	f853 2b04 	ldr.w	r2, [r3], #4
    7942:	f840 2f04 	str.w	r2, [r0, #4]!
    7946:	4299      	cmp	r1, r3
    7948:	d8f9      	bhi.n	793e <__lshift+0xca>
    794a:	e7ea      	b.n	7922 <__lshift+0xae>
    794c:	4b03      	ldr	r3, [pc, #12]	@ (795c <__lshift+0xe8>)
    794e:	4804      	ldr	r0, [pc, #16]	@ (7960 <__lshift+0xec>)
    7950:	4662      	mov	r2, ip
    7952:	f44f 71ef 	mov.w	r1, #478	@ 0x1de
    7956:	f000 fafd 	bl	7f54 <__assert_func>
    795a:	bf00      	nop
    795c:	0000a358 	.word	0x0000a358
    7960:	0000a3c8 	.word	0x0000a3c8

00007964 <__mcmp>:
    7964:	690b      	ldr	r3, [r1, #16]
    7966:	4684      	mov	ip, r0
    7968:	6900      	ldr	r0, [r0, #16]
    796a:	1ac0      	subs	r0, r0, r3
    796c:	d116      	bne.n	799c <__mcmp+0x38>
    796e:	f10c 0c14 	add.w	ip, ip, #20
    7972:	3114      	adds	r1, #20
    7974:	eb0c 0283 	add.w	r2, ip, r3, lsl #2
    7978:	b410      	push	{r4}
    797a:	eb01 0383 	add.w	r3, r1, r3, lsl #2
    797e:	e001      	b.n	7984 <__mcmp+0x20>
    7980:	4594      	cmp	ip, r2
    7982:	d208      	bcs.n	7996 <__mcmp+0x32>
    7984:	f852 4d04 	ldr.w	r4, [r2, #-4]!
    7988:	f853 1d04 	ldr.w	r1, [r3, #-4]!
    798c:	428c      	cmp	r4, r1
    798e:	d0f7      	beq.n	7980 <__mcmp+0x1c>
    7990:	d205      	bcs.n	799e <__mcmp+0x3a>
    7992:	f04f 30ff 	mov.w	r0, #4294967295
    7996:	f85d 4b04 	ldr.w	r4, [sp], #4
    799a:	4770      	bx	lr
    799c:	4770      	bx	lr
    799e:	2001      	movs	r0, #1
    79a0:	f85d 4b04 	ldr.w	r4, [sp], #4
    79a4:	4770      	bx	lr
    79a6:	bf00      	nop

000079a8 <__mdiff>:
    79a8:	e92d 4ff0 	stmdb	sp!, {r4, r5, r6, r7, r8, r9, sl, fp, lr}
    79ac:	4615      	mov	r5, r2
    79ae:	690a      	ldr	r2, [r1, #16]
    79b0:	692b      	ldr	r3, [r5, #16]
    79b2:	1ad2      	subs	r2, r2, r3
    79b4:	2a00      	cmp	r2, #0
    79b6:	b083      	sub	sp, #12
    79b8:	4688      	mov	r8, r1
    79ba:	f040 8087 	bne.w	7acc <__mdiff+0x124>
    79be:	f101 0614 	add.w	r6, r1, #20
    79c2:	f105 0114 	add.w	r1, r5, #20
    79c6:	eb01 0183 	add.w	r1, r1, r3, lsl #2
    79ca:	eb06 0383 	add.w	r3, r6, r3, lsl #2
    79ce:	e001      	b.n	79d4 <__mdiff+0x2c>
    79d0:	429e      	cmp	r6, r3
    79d2:	d27e      	bcs.n	7ad2 <__mdiff+0x12a>
    79d4:	f853 4d04 	ldr.w	r4, [r3, #-4]!
    79d8:	f851 2d04 	ldr.w	r2, [r1, #-4]!
    79dc:	4294      	cmp	r4, r2
    79de:	d0f7      	beq.n	79d0 <__mdiff+0x28>
    79e0:	d375      	bcc.n	7ace <__mdiff+0x126>
    79e2:	462b      	mov	r3, r5
    79e4:	2400      	movs	r4, #0
    79e6:	4645      	mov	r5, r8
    79e8:	4698      	mov	r8, r3
    79ea:	6869      	ldr	r1, [r5, #4]
    79ec:	f7ff fd32 	bl	7454 <_Balloc>
    79f0:	4681      	mov	r9, r0
    79f2:	2800      	cmp	r0, #0
    79f4:	f000 8089 	beq.w	7b0a <__mdiff+0x162>
    79f8:	692e      	ldr	r6, [r5, #16]
    79fa:	60c4      	str	r4, [r0, #12]
    79fc:	f8d8 0010 	ldr.w	r0, [r8, #16]
    7a00:	f105 0b14 	add.w	fp, r5, #20
    7a04:	f108 0e14 	add.w	lr, r8, #20
    7a08:	f109 0a14 	add.w	sl, r9, #20
    7a0c:	f105 0210 	add.w	r2, r5, #16
    7a10:	eb0e 0080 	add.w	r0, lr, r0, lsl #2
    7a14:	eb0b 0186 	add.w	r1, fp, r6, lsl #2
    7a18:	4657      	mov	r7, sl
    7a1a:	f04f 0c00 	mov.w	ip, #0
    7a1e:	f8cd b004 	str.w	fp, [sp, #4]
    7a22:	f85e 4b04 	ldr.w	r4, [lr], #4
    7a26:	f852 5f04 	ldr.w	r5, [r2, #4]!
    7a2a:	fa1f fb84 	uxth.w	fp, r4
    7a2e:	b2ab      	uxth	r3, r5
    7a30:	eba3 030b 	sub.w	r3, r3, fp
    7a34:	0c24      	lsrs	r4, r4, #16
    7a36:	4463      	add	r3, ip
    7a38:	ebc4 4415 	rsb	r4, r4, r5, lsr #16
    7a3c:	eb04 4423 	add.w	r4, r4, r3, asr #16
    7a40:	b29b      	uxth	r3, r3
    7a42:	ea43 4304 	orr.w	r3, r3, r4, lsl #16
    7a46:	4570      	cmp	r0, lr
    7a48:	f847 3b04 	str.w	r3, [r7], #4
    7a4c:	ea4f 4c24 	mov.w	ip, r4, asr #16
    7a50:	d8e7      	bhi.n	7a22 <__mdiff+0x7a>
    7a52:	eba0 0208 	sub.w	r2, r0, r8
    7a56:	f108 0815 	add.w	r8, r8, #21
    7a5a:	4540      	cmp	r0, r8
    7a5c:	f1a2 0215 	sub.w	r2, r2, #21
    7a60:	bf34      	ite	cc
    7a62:	2000      	movcc	r0, #0
    7a64:	2001      	movcs	r0, #1
    7a66:	0892      	lsrs	r2, r2, #2
    7a68:	2800      	cmp	r0, #0
    7a6a:	f8dd b004 	ldr.w	fp, [sp, #4]
    7a6e:	f102 0401 	add.w	r4, r2, #1
    7a72:	ea4f 0484 	mov.w	r4, r4, lsl #2
    7a76:	bf08      	it	eq
    7a78:	2404      	moveq	r4, #4
    7a7a:	eb0b 0504 	add.w	r5, fp, r4
    7a7e:	42a9      	cmp	r1, r5
    7a80:	4454      	add	r4, sl
    7a82:	d933      	bls.n	7aec <__mdiff+0x144>
    7a84:	4627      	mov	r7, r4
    7a86:	4628      	mov	r0, r5
    7a88:	f850 3b04 	ldr.w	r3, [r0], #4
    7a8c:	fa1c fe83 	uxtah	lr, ip, r3
    7a90:	0c1a      	lsrs	r2, r3, #16
    7a92:	4463      	add	r3, ip
    7a94:	eb02 422e 	add.w	r2, r2, lr, asr #16
    7a98:	b29b      	uxth	r3, r3
    7a9a:	ea43 4302 	orr.w	r3, r3, r2, lsl #16
    7a9e:	4281      	cmp	r1, r0
    7aa0:	f847 3b04 	str.w	r3, [r7], #4
    7aa4:	ea4f 4c22 	mov.w	ip, r2, asr #16
    7aa8:	d8ee      	bhi.n	7a88 <__mdiff+0xe0>
    7aaa:	3901      	subs	r1, #1
    7aac:	1b49      	subs	r1, r1, r5
    7aae:	f021 0103 	bic.w	r1, r1, #3
    7ab2:	440c      	add	r4, r1
    7ab4:	b923      	cbnz	r3, 7ac0 <__mdiff+0x118>
    7ab6:	f854 3d04 	ldr.w	r3, [r4, #-4]!
    7aba:	3e01      	subs	r6, #1
    7abc:	2b00      	cmp	r3, #0
    7abe:	d0fa      	beq.n	7ab6 <__mdiff+0x10e>
    7ac0:	4648      	mov	r0, r9
    7ac2:	f8c9 6010 	str.w	r6, [r9, #16]
    7ac6:	b003      	add	sp, #12
    7ac8:	e8bd 8ff0 	ldmia.w	sp!, {r4, r5, r6, r7, r8, r9, sl, fp, pc}
    7acc:	da89      	bge.n	79e2 <__mdiff+0x3a>
    7ace:	2401      	movs	r4, #1
    7ad0:	e78b      	b.n	79ea <__mdiff+0x42>
    7ad2:	2100      	movs	r1, #0
    7ad4:	f7ff fcbe 	bl	7454 <_Balloc>
    7ad8:	4681      	mov	r9, r0
    7ada:	b178      	cbz	r0, 7afc <__mdiff+0x154>
    7adc:	2201      	movs	r2, #1
    7ade:	2300      	movs	r3, #0
    7ae0:	e9c0 2304 	strd	r2, r3, [r0, #16]
    7ae4:	4648      	mov	r0, r9
    7ae6:	b003      	add	sp, #12
    7ae8:	e8bd 8ff0 	ldmia.w	sp!, {r4, r5, r6, r7, r8, r9, sl, fp, pc}
    7aec:	2800      	cmp	r0, #0
    7aee:	ea4f 0282 	mov.w	r2, r2, lsl #2
    7af2:	bf08      	it	eq
    7af4:	2200      	moveq	r2, #0
    7af6:	eb0a 0402 	add.w	r4, sl, r2
    7afa:	e7db      	b.n	7ab4 <__mdiff+0x10c>
    7afc:	4b06      	ldr	r3, [pc, #24]	@ (7b18 <__mdiff+0x170>)
    7afe:	4807      	ldr	r0, [pc, #28]	@ (7b1c <__mdiff+0x174>)
    7b00:	464a      	mov	r2, r9
    7b02:	f240 2137 	movw	r1, #567	@ 0x237
    7b06:	f000 fa25 	bl	7f54 <__assert_func>
    7b0a:	4b03      	ldr	r3, [pc, #12]	@ (7b18 <__mdiff+0x170>)
    7b0c:	4803      	ldr	r0, [pc, #12]	@ (7b1c <__mdiff+0x174>)
    7b0e:	464a      	mov	r2, r9
    7b10:	f240 2145 	movw	r1, #581	@ 0x245
    7b14:	f000 fa1e 	bl	7f54 <__assert_func>
    7b18:	0000a358 	.word	0x0000a358
    7b1c:	0000a3c8 	.word	0x0000a3c8

00007b20 <__d2b>:
    7b20:	e92d 43f0 	stmdb	sp!, {r4, r5, r6, r7, r8, r9, lr}
    7b24:	460e      	mov	r6, r1
    7b26:	b083      	sub	sp, #12
    7b28:	2101      	movs	r1, #1
    7b2a:	ec59 8b10 	vmov	r8, r9, d0
    7b2e:	4615      	mov	r5, r2
    7b30:	f7ff fc90 	bl	7454 <_Balloc>
    7b34:	4604      	mov	r4, r0
    7b36:	2800      	cmp	r0, #0
    7b38:	d046      	beq.n	7bc8 <__d2b+0xa8>
    7b3a:	f3c9 570a 	ubfx	r7, r9, #20, #11
    7b3e:	f3c9 0313 	ubfx	r3, r9, #0, #20
    7b42:	b10f      	cbz	r7, 7b48 <__d2b+0x28>
    7b44:	f443 1380 	orr.w	r3, r3, #1048576	@ 0x100000
    7b48:	9301      	str	r3, [sp, #4]
    7b4a:	f1b8 0300 	subs.w	r3, r8, #0
    7b4e:	d113      	bne.n	7b78 <__d2b+0x58>
    7b50:	a801      	add	r0, sp, #4
    7b52:	f7ff fd21 	bl	7598 <__lo0bits>
    7b56:	9b01      	ldr	r3, [sp, #4]
    7b58:	6163      	str	r3, [r4, #20]
    7b5a:	2201      	movs	r2, #1
    7b5c:	3020      	adds	r0, #32
    7b5e:	6122      	str	r2, [r4, #16]
    7b60:	b30f      	cbz	r7, 7ba6 <__d2b+0x86>
    7b62:	f2a7 4733 	subw	r7, r7, #1075	@ 0x433
    7b66:	4407      	add	r7, r0
    7b68:	f1c0 0035 	rsb	r0, r0, #53	@ 0x35
    7b6c:	6037      	str	r7, [r6, #0]
    7b6e:	6028      	str	r0, [r5, #0]
    7b70:	4620      	mov	r0, r4
    7b72:	b003      	add	sp, #12
    7b74:	e8bd 83f0 	ldmia.w	sp!, {r4, r5, r6, r7, r8, r9, pc}
    7b78:	4668      	mov	r0, sp
    7b7a:	9300      	str	r3, [sp, #0]
    7b7c:	f7ff fd0c 	bl	7598 <__lo0bits>
    7b80:	9b01      	ldr	r3, [sp, #4]
    7b82:	b1f8      	cbz	r0, 7bc4 <__d2b+0xa4>
    7b84:	9900      	ldr	r1, [sp, #0]
    7b86:	f1c0 0220 	rsb	r2, r0, #32
    7b8a:	fa03 f202 	lsl.w	r2, r3, r2
    7b8e:	40c3      	lsrs	r3, r0
    7b90:	430a      	orrs	r2, r1
    7b92:	9301      	str	r3, [sp, #4]
    7b94:	2b00      	cmp	r3, #0
    7b96:	6162      	str	r2, [r4, #20]
    7b98:	bf0c      	ite	eq
    7b9a:	2201      	moveq	r2, #1
    7b9c:	2202      	movne	r2, #2
    7b9e:	61a3      	str	r3, [r4, #24]
    7ba0:	6122      	str	r2, [r4, #16]
    7ba2:	2f00      	cmp	r7, #0
    7ba4:	d1dd      	bne.n	7b62 <__d2b+0x42>
    7ba6:	eb04 0382 	add.w	r3, r4, r2, lsl #2
    7baa:	f2a0 4032 	subw	r0, r0, #1074	@ 0x432
    7bae:	6030      	str	r0, [r6, #0]
    7bb0:	6918      	ldr	r0, [r3, #16]
    7bb2:	f7ff fccf 	bl	7554 <__hi0bits>
    7bb6:	ebc0 1042 	rsb	r0, r0, r2, lsl #5
    7bba:	6028      	str	r0, [r5, #0]
    7bbc:	4620      	mov	r0, r4
    7bbe:	b003      	add	sp, #12
    7bc0:	e8bd 83f0 	ldmia.w	sp!, {r4, r5, r6, r7, r8, r9, pc}
    7bc4:	9a00      	ldr	r2, [sp, #0]
    7bc6:	e7e5      	b.n	7b94 <__d2b+0x74>
    7bc8:	4b03      	ldr	r3, [pc, #12]	@ (7bd8 <__d2b+0xb8>)
    7bca:	4804      	ldr	r0, [pc, #16]	@ (7bdc <__d2b+0xbc>)
    7bcc:	4622      	mov	r2, r4
    7bce:	f240 310f 	movw	r1, #783	@ 0x30f
    7bd2:	f000 f9bf 	bl	7f54 <__assert_func>
    7bd6:	bf00      	nop
    7bd8:	0000a358 	.word	0x0000a358
    7bdc:	0000a3c8 	.word	0x0000a3c8

00007be0 <__ascii_wctomb>:
    7be0:	b149      	cbz	r1, 7bf6 <__ascii_wctomb+0x16>
    7be2:	2aff      	cmp	r2, #255	@ 0xff
    7be4:	d802      	bhi.n	7bec <__ascii_wctomb+0xc>
    7be6:	700a      	strb	r2, [r1, #0]
    7be8:	2001      	movs	r0, #1
    7bea:	4770      	bx	lr
    7bec:	238a      	movs	r3, #138	@ 0x8a
    7bee:	6003      	str	r3, [r0, #0]
    7bf0:	f04f 30ff 	mov.w	r0, #4294967295
    7bf4:	4770      	bx	lr
    7bf6:	4608      	mov	r0, r1
    7bf8:	4770      	bx	lr
    7bfa:	bf00      	nop

00007bfc <_wcrtomb_r>:
    7bfc:	b570      	push	{r4, r5, r6, lr}
    7bfe:	4605      	mov	r5, r0
    7c00:	b084      	sub	sp, #16
    7c02:	b15b      	cbz	r3, 7c1c <_wcrtomb_r+0x20>
    7c04:	461c      	mov	r4, r3
    7c06:	4b0f      	ldr	r3, [pc, #60]	@ (7c44 <_wcrtomb_r+0x48>)
    7c08:	f8d3 60e0 	ldr.w	r6, [r3, #224]	@ 0xe0
    7c0c:	4623      	mov	r3, r4
    7c0e:	b169      	cbz	r1, 7c2c <_wcrtomb_r+0x30>
    7c10:	4628      	mov	r0, r5
    7c12:	47b0      	blx	r6
    7c14:	1c43      	adds	r3, r0, #1
    7c16:	d00f      	beq.n	7c38 <_wcrtomb_r+0x3c>
    7c18:	b004      	add	sp, #16
    7c1a:	bd70      	pop	{r4, r5, r6, pc}
    7c1c:	4b09      	ldr	r3, [pc, #36]	@ (7c44 <_wcrtomb_r+0x48>)
    7c1e:	f500 7482 	add.w	r4, r0, #260	@ 0x104
    7c22:	f8d3 60e0 	ldr.w	r6, [r3, #224]	@ 0xe0
    7c26:	4623      	mov	r3, r4
    7c28:	2900      	cmp	r1, #0
    7c2a:	d1f1      	bne.n	7c10 <_wcrtomb_r+0x14>
    7c2c:	460a      	mov	r2, r1
    7c2e:	4628      	mov	r0, r5
    7c30:	a901      	add	r1, sp, #4
    7c32:	47b0      	blx	r6
    7c34:	1c43      	adds	r3, r0, #1
    7c36:	d1ef      	bne.n	7c18 <_wcrtomb_r+0x1c>
    7c38:	2200      	movs	r2, #0
    7c3a:	238a      	movs	r3, #138	@ 0x8a
    7c3c:	6022      	str	r2, [r4, #0]
    7c3e:	602b      	str	r3, [r5, #0]
    7c40:	b004      	add	sp, #16
    7c42:	bd70      	pop	{r4, r5, r6, pc}
    7c44:	1ffd05e8 	.word	0x1ffd05e8

00007c48 <_wcsrtombs_r>:
    7c48:	b510      	push	{r4, lr}
    7c4a:	b082      	sub	sp, #8
    7c4c:	9c04      	ldr	r4, [sp, #16]
    7c4e:	e9cd 3400 	strd	r3, r4, [sp]
    7c52:	f04f 33ff 	mov.w	r3, #4294967295
    7c56:	f000 fbf3 	bl	8440 <_wcsnrtombs_r>
    7c5a:	b002      	add	sp, #8
    7c5c:	bd10      	pop	{r4, pc}
    7c5e:	bf00      	nop

00007c60 <__ssputs_r>:
    7c60:	e92d 47f0 	stmdb	sp!, {r4, r5, r6, r7, r8, r9, sl, lr}
    7c64:	688f      	ldr	r7, [r1, #8]
    7c66:	461d      	mov	r5, r3
    7c68:	42af      	cmp	r7, r5
    7c6a:	680b      	ldr	r3, [r1, #0]
    7c6c:	460c      	mov	r4, r1
    7c6e:	4616      	mov	r6, r2
    7c70:	d836      	bhi.n	7ce0 <__ssputs_r+0x80>
    7c72:	f9b1 c00c 	ldrsh.w	ip, [r1, #12]
    7c76:	f41c 6f90 	tst.w	ip, #1152	@ 0x480
    7c7a:	d10e      	bne.n	7c9a <__ssputs_r+0x3a>
    7c7c:	463d      	mov	r5, r7
    7c7e:	4618      	mov	r0, r3
    7c80:	4631      	mov	r1, r6
    7c82:	462a      	mov	r2, r5
    7c84:	f000 f84c 	bl	7d20 <memmove>
    7c88:	68a3      	ldr	r3, [r4, #8]
    7c8a:	1bdf      	subs	r7, r3, r7
    7c8c:	6823      	ldr	r3, [r4, #0]
    7c8e:	60a7      	str	r7, [r4, #8]
    7c90:	442b      	add	r3, r5
    7c92:	2000      	movs	r0, #0
    7c94:	6023      	str	r3, [r4, #0]
    7c96:	e8bd 87f0 	ldmia.w	sp!, {r4, r5, r6, r7, r8, r9, sl, pc}
    7c9a:	694a      	ldr	r2, [r1, #20]
    7c9c:	6909      	ldr	r1, [r1, #16]
    7c9e:	eb02 0242 	add.w	r2, r2, r2, lsl #1
    7ca2:	1a5f      	subs	r7, r3, r1
    7ca4:	eb02 72d2 	add.w	r2, r2, r2, lsr #31
    7ca8:	1c6b      	adds	r3, r5, #1
    7caa:	1052      	asrs	r2, r2, #1
    7cac:	443b      	add	r3, r7
    7cae:	4293      	cmp	r3, r2
    7cb0:	bf92      	itee	ls
    7cb2:	4691      	movls	r9, r2
    7cb4:	4699      	movhi	r9, r3
    7cb6:	461a      	movhi	r2, r3
    7cb8:	f41c 6f80 	tst.w	ip, #1024	@ 0x400
    7cbc:	4680      	mov	r8, r0
    7cbe:	d011      	beq.n	7ce4 <__ssputs_r+0x84>
    7cc0:	4611      	mov	r1, r2
    7cc2:	f7fc f883 	bl	3dcc <_malloc_r>
    7cc6:	4682      	mov	sl, r0
    7cc8:	b300      	cbz	r0, 7d0c <__ssputs_r+0xac>
    7cca:	6921      	ldr	r1, [r4, #16]
    7ccc:	463a      	mov	r2, r7
    7cce:	f000 f8a7 	bl	7e20 <memcpy>
    7cd2:	89a3      	ldrh	r3, [r4, #12]
    7cd4:	f423 6390 	bic.w	r3, r3, #1152	@ 0x480
    7cd8:	f043 0380 	orr.w	r3, r3, #128	@ 0x80
    7cdc:	81a3      	strh	r3, [r4, #12]
    7cde:	e005      	b.n	7cec <__ssputs_r+0x8c>
    7ce0:	462f      	mov	r7, r5
    7ce2:	e7cc      	b.n	7c7e <__ssputs_r+0x1e>
    7ce4:	f000 f98c 	bl	8000 <_realloc_r>
    7ce8:	4682      	mov	sl, r0
    7cea:	b158      	cbz	r0, 7d04 <__ssputs_r+0xa4>
    7cec:	eb0a 0307 	add.w	r3, sl, r7
    7cf0:	eba9 0707 	sub.w	r7, r9, r7
    7cf4:	60a7      	str	r7, [r4, #8]
    7cf6:	f8c4 a010 	str.w	sl, [r4, #16]
    7cfa:	f8c4 9014 	str.w	r9, [r4, #20]
    7cfe:	6023      	str	r3, [r4, #0]
    7d00:	462f      	mov	r7, r5
    7d02:	e7bc      	b.n	7c7e <__ssputs_r+0x1e>
    7d04:	6921      	ldr	r1, [r4, #16]
    7d06:	4640      	mov	r0, r8
    7d08:	f7fb ff64 	bl	3bd4 <_free_r>
    7d0c:	89a3      	ldrh	r3, [r4, #12]
    7d0e:	220c      	movs	r2, #12
    7d10:	f043 0340 	orr.w	r3, r3, #64	@ 0x40
    7d14:	f8c8 2000 	str.w	r2, [r8]
    7d18:	f04f 30ff 	mov.w	r0, #4294967295
    7d1c:	81a3      	strh	r3, [r4, #12]
    7d1e:	e7ba      	b.n	7c96 <__ssputs_r+0x36>

00007d20 <memmove>:
    7d20:	4288      	cmp	r0, r1
    7d22:	d90e      	bls.n	7d42 <memmove+0x22>
    7d24:	188b      	adds	r3, r1, r2
    7d26:	4283      	cmp	r3, r0
    7d28:	d90b      	bls.n	7d42 <memmove+0x22>
    7d2a:	eb00 0c02 	add.w	ip, r0, r2
    7d2e:	2a00      	cmp	r2, #0
    7d30:	d06e      	beq.n	7e10 <memmove+0xf0>
    7d32:	4662      	mov	r2, ip
    7d34:	f813 cd01 	ldrb.w	ip, [r3, #-1]!
    7d38:	f802 cd01 	strb.w	ip, [r2, #-1]!
    7d3c:	4299      	cmp	r1, r3
    7d3e:	d1f9      	bne.n	7d34 <memmove+0x14>
    7d40:	4770      	bx	lr
    7d42:	2a0f      	cmp	r2, #15
    7d44:	d80f      	bhi.n	7d66 <memmove+0x46>
    7d46:	4603      	mov	r3, r0
    7d48:	f102 3cff 	add.w	ip, r2, #4294967295
    7d4c:	2a00      	cmp	r2, #0
    7d4e:	d05f      	beq.n	7e10 <memmove+0xf0>
    7d50:	f10c 0c01 	add.w	ip, ip, #1
    7d54:	3b01      	subs	r3, #1
    7d56:	448c      	add	ip, r1
    7d58:	f811 2b01 	ldrb.w	r2, [r1], #1
    7d5c:	f803 2f01 	strb.w	r2, [r3, #1]!
    7d60:	4561      	cmp	r1, ip
    7d62:	d1f9      	bne.n	7d58 <memmove+0x38>
    7d64:	4770      	bx	lr
    7d66:	ea40 0301 	orr.w	r3, r0, r1
    7d6a:	079b      	lsls	r3, r3, #30
    7d6c:	d151      	bne.n	7e12 <memmove+0xf2>
    7d6e:	f1a2 0310 	sub.w	r3, r2, #16
    7d72:	b570      	push	{r4, r5, r6, lr}
    7d74:	f101 0c20 	add.w	ip, r1, #32
    7d78:	f023 050f 	bic.w	r5, r3, #15
    7d7c:	f101 0e10 	add.w	lr, r1, #16
    7d80:	f100 0410 	add.w	r4, r0, #16
    7d84:	44ac      	add	ip, r5
    7d86:	091b      	lsrs	r3, r3, #4
    7d88:	f85e 5c10 	ldr.w	r5, [lr, #-16]
    7d8c:	f844 5c10 	str.w	r5, [r4, #-16]
    7d90:	f85e 5c0c 	ldr.w	r5, [lr, #-12]
    7d94:	f844 5c0c 	str.w	r5, [r4, #-12]
    7d98:	f85e 5c08 	ldr.w	r5, [lr, #-8]
    7d9c:	f844 5c08 	str.w	r5, [r4, #-8]
    7da0:	f85e 5c04 	ldr.w	r5, [lr, #-4]
    7da4:	f844 5c04 	str.w	r5, [r4, #-4]
    7da8:	f10e 0e10 	add.w	lr, lr, #16
    7dac:	45e6      	cmp	lr, ip
    7dae:	f104 0410 	add.w	r4, r4, #16
    7db2:	d1e9      	bne.n	7d88 <memmove+0x68>
    7db4:	3301      	adds	r3, #1
    7db6:	f012 0f0c 	tst.w	r2, #12
    7dba:	eb01 1103 	add.w	r1, r1, r3, lsl #4
    7dbe:	f002 040f 	and.w	r4, r2, #15
    7dc2:	eb00 1303 	add.w	r3, r0, r3, lsl #4
    7dc6:	d028      	beq.n	7e1a <memmove+0xfa>
    7dc8:	3c04      	subs	r4, #4
    7dca:	f024 0603 	bic.w	r6, r4, #3
    7dce:	ea4f 0c94 	mov.w	ip, r4, lsr #2
    7dd2:	441e      	add	r6, r3
    7dd4:	1f1c      	subs	r4, r3, #4
    7dd6:	468e      	mov	lr, r1
    7dd8:	f85e 5b04 	ldr.w	r5, [lr], #4
    7ddc:	f844 5f04 	str.w	r5, [r4, #4]!
    7de0:	42b4      	cmp	r4, r6
    7de2:	d1f9      	bne.n	7dd8 <memmove+0xb8>
    7de4:	f10c 0401 	add.w	r4, ip, #1
    7de8:	f002 0203 	and.w	r2, r2, #3
    7dec:	eb03 0384 	add.w	r3, r3, r4, lsl #2
    7df0:	eb01 0184 	add.w	r1, r1, r4, lsl #2
    7df4:	f102 3cff 	add.w	ip, r2, #4294967295
    7df8:	b14a      	cbz	r2, 7e0e <memmove+0xee>
    7dfa:	f10c 0c01 	add.w	ip, ip, #1
    7dfe:	3b01      	subs	r3, #1
    7e00:	448c      	add	ip, r1
    7e02:	f811 2b01 	ldrb.w	r2, [r1], #1
    7e06:	f803 2f01 	strb.w	r2, [r3, #1]!
    7e0a:	4561      	cmp	r1, ip
    7e0c:	d1f9      	bne.n	7e02 <memmove+0xe2>
    7e0e:	bd70      	pop	{r4, r5, r6, pc}
    7e10:	4770      	bx	lr
    7e12:	f102 3cff 	add.w	ip, r2, #4294967295
    7e16:	4603      	mov	r3, r0
    7e18:	e79a      	b.n	7d50 <memmove+0x30>
    7e1a:	4622      	mov	r2, r4
    7e1c:	e7ea      	b.n	7df4 <memmove+0xd4>
    7e1e:	bf00      	nop

00007e20 <memcpy>:
    7e20:	4684      	mov	ip, r0
    7e22:	ea41 0300 	orr.w	r3, r1, r0
    7e26:	f013 0303 	ands.w	r3, r3, #3
    7e2a:	d16d      	bne.n	7f08 <memcpy+0xe8>
    7e2c:	3a40      	subs	r2, #64	@ 0x40
    7e2e:	d341      	bcc.n	7eb4 <memcpy+0x94>
    7e30:	f851 3b04 	ldr.w	r3, [r1], #4
    7e34:	f840 3b04 	str.w	r3, [r0], #4
    7e38:	f851 3b04 	ldr.w	r3, [r1], #4
    7e3c:	f840 3b04 	str.w	r3, [r0], #4
    7e40:	f851 3b04 	ldr.w	r3, [r1], #4
    7e44:	f840 3b04 	str.w	r3, [r0], #4
    7e48:	f851 3b04 	ldr.w	r3, [r1], #4
    7e4c:	f840 3b04 	str.w	r3, [r0], #4
    7e50:	f851 3b04 	ldr.w	r3, [r1], #4
    7e54:	f840 3b04 	str.w	r3, [r0], #4
    7e58:	f851 3b04 	ldr.w	r3, [r1], #4
    7e5c:	f840 3b04 	str.w	r3, [r0], #4
    7e60:	f851 3b04 	ldr.w	r3, [r1], #4
    7e64:	f840 3b04 	str.w	r3, [r0], #4
    7e68:	f851 3b04 	ldr.w	r3, [r1], #4
    7e6c:	f840 3b04 	str.w	r3, [r0], #4
    7e70:	f851 3b04 	ldr.w	r3, [r1], #4
    7e74:	f840 3b04 	str.w	r3, [r0], #4
    7e78:	f851 3b04 	ldr.w	r3, [r1], #4
    7e7c:	f840 3b04 	str.w	r3, [r0], #4
    7e80:	f851 3b04 	ldr.w	r3, [r1], #4
    7e84:	f840 3b04 	str.w	r3, [r0], #4
    7e88:	f851 3b04 	ldr.w	r3, [r1], #4
    7e8c:	f840 3b04 	str.w	r3, [r0], #4
    7e90:	f851 3b04 	ldr.w	r3, [r1], #4
    7e94:	f840 3b04 	str.w	r3, [r0], #4
    7e98:	f851 3b04 	ldr.w	r3, [r1], #4
    7e9c:	f840 3b04 	str.w	r3, [r0], #4
    7ea0:	f851 3b04 	ldr.w	r3, [r1], #4
    7ea4:	f840 3b04 	str.w	r3, [r0], #4
    7ea8:	f851 3b04 	ldr.w	r3, [r1], #4
    7eac:	f840 3b04 	str.w	r3, [r0], #4
    7eb0:	3a40      	subs	r2, #64	@ 0x40
    7eb2:	d2bd      	bcs.n	7e30 <memcpy+0x10>
    7eb4:	3230      	adds	r2, #48	@ 0x30
    7eb6:	d311      	bcc.n	7edc <memcpy+0xbc>
    7eb8:	f851 3b04 	ldr.w	r3, [r1], #4
    7ebc:	f840 3b04 	str.w	r3, [r0], #4
    7ec0:	f851 3b04 	ldr.w	r3, [r1], #4
    7ec4:	f840 3b04 	str.w	r3, [r0], #4
    7ec8:	f851 3b04 	ldr.w	r3, [r1], #4
    7ecc:	f840 3b04 	str.w	r3, [r0], #4
    7ed0:	f851 3b04 	ldr.w	r3, [r1], #4
    7ed4:	f840 3b04 	str.w	r3, [r0], #4
    7ed8:	3a10      	subs	r2, #16
    7eda:	d2ed      	bcs.n	7eb8 <memcpy+0x98>
    7edc:	320c      	adds	r2, #12
    7ede:	d305      	bcc.n	7eec <memcpy+0xcc>
    7ee0:	f851 3b04 	ldr.w	r3, [r1], #4
    7ee4:	f840 3b04 	str.w	r3, [r0], #4
    7ee8:	3a04      	subs	r2, #4
    7eea:	d2f9      	bcs.n	7ee0 <memcpy+0xc0>
    7eec:	3204      	adds	r2, #4
    7eee:	d008      	beq.n	7f02 <memcpy+0xe2>
    7ef0:	07d2      	lsls	r2, r2, #31
    7ef2:	bf1c      	itt	ne
    7ef4:	f811 3b01 	ldrbne.w	r3, [r1], #1
    7ef8:	f800 3b01 	strbne.w	r3, [r0], #1
    7efc:	d301      	bcc.n	7f02 <memcpy+0xe2>
    7efe:	880b      	ldrh	r3, [r1, #0]
    7f00:	8003      	strh	r3, [r0, #0]
    7f02:	4660      	mov	r0, ip
    7f04:	4770      	bx	lr
    7f06:	bf00      	nop
    7f08:	2a08      	cmp	r2, #8
    7f0a:	d313      	bcc.n	7f34 <memcpy+0x114>
    7f0c:	078b      	lsls	r3, r1, #30
    7f0e:	d08d      	beq.n	7e2c <memcpy+0xc>
    7f10:	f010 0303 	ands.w	r3, r0, #3
    7f14:	d08a      	beq.n	7e2c <memcpy+0xc>
    7f16:	f1c3 0304 	rsb	r3, r3, #4
    7f1a:	1ad2      	subs	r2, r2, r3
    7f1c:	07db      	lsls	r3, r3, #31
    7f1e:	bf1c      	itt	ne
    7f20:	f811 3b01 	ldrbne.w	r3, [r1], #1
    7f24:	f800 3b01 	strbne.w	r3, [r0], #1
    7f28:	d380      	bcc.n	7e2c <memcpy+0xc>
    7f2a:	f831 3b02 	ldrh.w	r3, [r1], #2
    7f2e:	f820 3b02 	strh.w	r3, [r0], #2
    7f32:	e77b      	b.n	7e2c <memcpy+0xc>
    7f34:	3a04      	subs	r2, #4
    7f36:	d3d9      	bcc.n	7eec <memcpy+0xcc>
    7f38:	3a01      	subs	r2, #1
    7f3a:	f811 3b01 	ldrb.w	r3, [r1], #1
    7f3e:	f800 3b01 	strb.w	r3, [r0], #1
    7f42:	d2f9      	bcs.n	7f38 <memcpy+0x118>
    7f44:	780b      	ldrb	r3, [r1, #0]
    7f46:	7003      	strb	r3, [r0, #0]
    7f48:	784b      	ldrb	r3, [r1, #1]
    7f4a:	7043      	strb	r3, [r0, #1]
    7f4c:	788b      	ldrb	r3, [r1, #2]
    7f4e:	7083      	strb	r3, [r0, #2]
    7f50:	4660      	mov	r0, ip
    7f52:	4770      	bx	lr

00007f54 <__assert_func>:
    7f54:	b500      	push	{lr}
    7f56:	4c0b      	ldr	r4, [pc, #44]	@ (7f84 <__assert_func+0x30>)
    7f58:	6825      	ldr	r5, [r4, #0]
    7f5a:	4614      	mov	r4, r2
    7f5c:	68ee      	ldr	r6, [r5, #12]
    7f5e:	461a      	mov	r2, r3
    7f60:	b085      	sub	sp, #20
    7f62:	4603      	mov	r3, r0
    7f64:	460d      	mov	r5, r1
    7f66:	b14c      	cbz	r4, 7f7c <__assert_func+0x28>
    7f68:	4907      	ldr	r1, [pc, #28]	@ (7f88 <__assert_func+0x34>)
    7f6a:	9500      	str	r5, [sp, #0]
    7f6c:	e9cd 1401 	strd	r1, r4, [sp, #4]
    7f70:	4630      	mov	r0, r6
    7f72:	4906      	ldr	r1, [pc, #24]	@ (7f8c <__assert_func+0x38>)
    7f74:	f000 fa76 	bl	8464 <fiprintf>
    7f78:	f001 fbee 	bl	9758 <abort>
    7f7c:	4904      	ldr	r1, [pc, #16]	@ (7f90 <__assert_func+0x3c>)
    7f7e:	460c      	mov	r4, r1
    7f80:	e7f3      	b.n	7f6a <__assert_func+0x16>
    7f82:	bf00      	nop
    7f84:	1ffd0088 	.word	0x1ffd0088
    7f88:	0000a424 	.word	0x0000a424
    7f8c:	0000a434 	.word	0x0000a434
    7f90:	0000a430 	.word	0x0000a430

00007f94 <_calloc_r>:
    7f94:	b538      	push	{r3, r4, r5, lr}
    7f96:	fba1 1402 	umull	r1, r4, r1, r2
    7f9a:	bb54      	cbnz	r4, 7ff2 <_calloc_r+0x5e>
    7f9c:	f7fb ff16 	bl	3dcc <_malloc_r>
    7fa0:	4605      	mov	r5, r0
    7fa2:	b350      	cbz	r0, 7ffa <_calloc_r+0x66>
    7fa4:	f850 2c04 	ldr.w	r2, [r0, #-4]
    7fa8:	f022 0203 	bic.w	r2, r2, #3
    7fac:	3a04      	subs	r2, #4
    7fae:	2a24      	cmp	r2, #36	@ 0x24
    7fb0:	d810      	bhi.n	7fd4 <_calloc_r+0x40>
    7fb2:	2a13      	cmp	r2, #19
    7fb4:	d913      	bls.n	7fde <_calloc_r+0x4a>
    7fb6:	2a1b      	cmp	r2, #27
    7fb8:	e9c0 4400 	strd	r4, r4, [r0]
    7fbc:	d916      	bls.n	7fec <_calloc_r+0x58>
    7fbe:	2a24      	cmp	r2, #36	@ 0x24
    7fc0:	e9c0 4402 	strd	r4, r4, [r0, #8]
    7fc4:	bf0a      	itet	eq
    7fc6:	e9c0 4404 	strdeq	r4, r4, [r0, #16]
    7fca:	f100 0210 	addne.w	r2, r0, #16
    7fce:	f100 0218 	addeq.w	r2, r0, #24
    7fd2:	e005      	b.n	7fe0 <_calloc_r+0x4c>
    7fd4:	4621      	mov	r1, r4
    7fd6:	f7fb fc55 	bl	3884 <memset>
    7fda:	4628      	mov	r0, r5
    7fdc:	bd38      	pop	{r3, r4, r5, pc}
    7fde:	4602      	mov	r2, r0
    7fe0:	2300      	movs	r3, #0
    7fe2:	e9c2 3300 	strd	r3, r3, [r2]
    7fe6:	6093      	str	r3, [r2, #8]
    7fe8:	4628      	mov	r0, r5
    7fea:	bd38      	pop	{r3, r4, r5, pc}
    7fec:	f100 0208 	add.w	r2, r0, #8
    7ff0:	e7f6      	b.n	7fe0 <_calloc_r+0x4c>
    7ff2:	f7fb fced 	bl	39d0 <__errno>
    7ff6:	230c      	movs	r3, #12
    7ff8:	6003      	str	r3, [r0, #0]
    7ffa:	2500      	movs	r5, #0
    7ffc:	4628      	mov	r0, r5
    7ffe:	bd38      	pop	{r3, r4, r5, pc}

00008000 <_realloc_r>:
    8000:	e92d 4ff8 	stmdb	sp!, {r3, r4, r5, r6, r7, r8, r9, sl, fp, lr}
    8004:	4616      	mov	r6, r2
    8006:	2900      	cmp	r1, #0
    8008:	f000 8096 	beq.w	8138 <_realloc_r+0x138>
    800c:	460c      	mov	r4, r1
    800e:	4680      	mov	r8, r0
    8010:	f106 050b 	add.w	r5, r6, #11
    8014:	f7fc f98c 	bl	4330 <__malloc_lock>
    8018:	f854 1c04 	ldr.w	r1, [r4, #-4]
    801c:	2d16      	cmp	r5, #22
    801e:	f1a4 0908 	sub.w	r9, r4, #8
    8022:	f021 0703 	bic.w	r7, r1, #3
    8026:	d858      	bhi.n	80da <_realloc_r+0xda>
    8028:	2510      	movs	r5, #16
    802a:	42ae      	cmp	r6, r5
    802c:	d858      	bhi.n	80e0 <_realloc_r+0xe0>
    802e:	42af      	cmp	r7, r5
    8030:	da60      	bge.n	80f4 <_realloc_r+0xf4>
    8032:	4bbe      	ldr	r3, [pc, #760]	@ (832c <_realloc_r+0x32c>)
    8034:	689a      	ldr	r2, [r3, #8]
    8036:	eb09 0c07 	add.w	ip, r9, r7
    803a:	4562      	cmp	r2, ip
    803c:	f8dc 0004 	ldr.w	r0, [ip, #4]
    8040:	f000 8090 	beq.w	8164 <_realloc_r+0x164>
    8044:	f020 0301 	bic.w	r3, r0, #1
    8048:	4463      	add	r3, ip
    804a:	685b      	ldr	r3, [r3, #4]
    804c:	07db      	lsls	r3, r3, #31
    804e:	d468      	bmi.n	8122 <_realloc_r+0x122>
    8050:	f020 0003 	bic.w	r0, r0, #3
    8054:	183b      	adds	r3, r7, r0
    8056:	429d      	cmp	r5, r3
    8058:	dd47      	ble.n	80ea <_realloc_r+0xea>
    805a:	07cb      	lsls	r3, r1, #31
    805c:	d412      	bmi.n	8084 <_realloc_r+0x84>
    805e:	f854 3c08 	ldr.w	r3, [r4, #-8]
    8062:	eba9 0b03 	sub.w	fp, r9, r3
    8066:	f8db 3004 	ldr.w	r3, [fp, #4]
    806a:	f023 0203 	bic.w	r2, r3, #3
    806e:	4410      	add	r0, r2
    8070:	eb00 0a07 	add.w	sl, r0, r7
    8074:	4555      	cmp	r5, sl
    8076:	f340 80f6 	ble.w	8266 <_realloc_r+0x266>
    807a:	eb07 0a02 	add.w	sl, r7, r2
    807e:	4555      	cmp	r5, sl
    8080:	f340 80cc 	ble.w	821c <_realloc_r+0x21c>
    8084:	4631      	mov	r1, r6
    8086:	4640      	mov	r0, r8
    8088:	f7fb fea0 	bl	3dcc <_malloc_r>
    808c:	4606      	mov	r6, r0
    808e:	2800      	cmp	r0, #0
    8090:	f000 8120 	beq.w	82d4 <_realloc_r+0x2d4>
    8094:	f854 3c04 	ldr.w	r3, [r4, #-4]
    8098:	f023 0301 	bic.w	r3, r3, #1
    809c:	444b      	add	r3, r9
    809e:	f1a0 0208 	sub.w	r2, r0, #8
    80a2:	4293      	cmp	r3, r2
    80a4:	f000 80b4 	beq.w	8210 <_realloc_r+0x210>
    80a8:	1f3a      	subs	r2, r7, #4
    80aa:	2a24      	cmp	r2, #36	@ 0x24
    80ac:	f200 80d7 	bhi.w	825e <_realloc_r+0x25e>
    80b0:	2a13      	cmp	r2, #19
    80b2:	f200 80a2 	bhi.w	81fa <_realloc_r+0x1fa>
    80b6:	4603      	mov	r3, r0
    80b8:	4622      	mov	r2, r4
    80ba:	6811      	ldr	r1, [r2, #0]
    80bc:	6019      	str	r1, [r3, #0]
    80be:	6851      	ldr	r1, [r2, #4]
    80c0:	6059      	str	r1, [r3, #4]
    80c2:	6892      	ldr	r2, [r2, #8]
    80c4:	609a      	str	r2, [r3, #8]
    80c6:	4621      	mov	r1, r4
    80c8:	4640      	mov	r0, r8
    80ca:	f7fb fd83 	bl	3bd4 <_free_r>
    80ce:	4640      	mov	r0, r8
    80d0:	f7fc f934 	bl	433c <__malloc_unlock>
    80d4:	4630      	mov	r0, r6
    80d6:	e8bd 8ff8 	ldmia.w	sp!, {r3, r4, r5, r6, r7, r8, r9, sl, fp, pc}
    80da:	f035 0507 	bics.w	r5, r5, #7
    80de:	d5a4      	bpl.n	802a <_realloc_r+0x2a>
    80e0:	230c      	movs	r3, #12
    80e2:	f8c8 3000 	str.w	r3, [r8]
    80e6:	2600      	movs	r6, #0
    80e8:	e018      	b.n	811c <_realloc_r+0x11c>
    80ea:	461f      	mov	r7, r3
    80ec:	e9dc 2302 	ldrd	r2, r3, [ip, #8]
    80f0:	60d3      	str	r3, [r2, #12]
    80f2:	609a      	str	r2, [r3, #8]
    80f4:	f8d9 3004 	ldr.w	r3, [r9, #4]
    80f8:	1b7a      	subs	r2, r7, r5
    80fa:	2a0f      	cmp	r2, #15
    80fc:	f003 0301 	and.w	r3, r3, #1
    8100:	eb09 0007 	add.w	r0, r9, r7
    8104:	d81d      	bhi.n	8142 <_realloc_r+0x142>
    8106:	433b      	orrs	r3, r7
    8108:	f8c9 3004 	str.w	r3, [r9, #4]
    810c:	6843      	ldr	r3, [r0, #4]
    810e:	f043 0301 	orr.w	r3, r3, #1
    8112:	6043      	str	r3, [r0, #4]
    8114:	4640      	mov	r0, r8
    8116:	f7fc f911 	bl	433c <__malloc_unlock>
    811a:	4626      	mov	r6, r4
    811c:	4630      	mov	r0, r6
    811e:	e8bd 8ff8 	ldmia.w	sp!, {r3, r4, r5, r6, r7, r8, r9, sl, fp, pc}
    8122:	07c9      	lsls	r1, r1, #31
    8124:	d4ae      	bmi.n	8084 <_realloc_r+0x84>
    8126:	f854 3c08 	ldr.w	r3, [r4, #-8]
    812a:	eba9 0b03 	sub.w	fp, r9, r3
    812e:	f8db 3004 	ldr.w	r3, [fp, #4]
    8132:	f023 0203 	bic.w	r2, r3, #3
    8136:	e7a0      	b.n	807a <_realloc_r+0x7a>
    8138:	e8bd 4ff8 	ldmia.w	sp!, {r3, r4, r5, r6, r7, r8, r9, sl, fp, lr}
    813c:	4611      	mov	r1, r2
    813e:	f7fb be45 	b.w	3dcc <_malloc_r>
    8142:	eb09 0105 	add.w	r1, r9, r5
    8146:	432b      	orrs	r3, r5
    8148:	f042 0201 	orr.w	r2, r2, #1
    814c:	f8c9 3004 	str.w	r3, [r9, #4]
    8150:	604a      	str	r2, [r1, #4]
    8152:	6843      	ldr	r3, [r0, #4]
    8154:	f043 0301 	orr.w	r3, r3, #1
    8158:	6043      	str	r3, [r0, #4]
    815a:	3108      	adds	r1, #8
    815c:	4640      	mov	r0, r8
    815e:	f7fb fd39 	bl	3bd4 <_free_r>
    8162:	e7d7      	b.n	8114 <_realloc_r+0x114>
    8164:	f020 0003 	bic.w	r0, r0, #3
    8168:	19c2      	adds	r2, r0, r7
    816a:	f105 0c10 	add.w	ip, r5, #16
    816e:	4562      	cmp	r2, ip
    8170:	f280 8091 	bge.w	8296 <_realloc_r+0x296>
    8174:	07ca      	lsls	r2, r1, #31
    8176:	d485      	bmi.n	8084 <_realloc_r+0x84>
    8178:	f854 2c08 	ldr.w	r2, [r4, #-8]
    817c:	eba9 0b02 	sub.w	fp, r9, r2
    8180:	f8db 2004 	ldr.w	r2, [fp, #4]
    8184:	f022 0203 	bic.w	r2, r2, #3
    8188:	4410      	add	r0, r2
    818a:	eb00 0a07 	add.w	sl, r0, r7
    818e:	45d4      	cmp	ip, sl
    8190:	f73f af73 	bgt.w	807a <_realloc_r+0x7a>
    8194:	465e      	mov	r6, fp
    8196:	f8db 100c 	ldr.w	r1, [fp, #12]
    819a:	f856 0f08 	ldr.w	r0, [r6, #8]!
    819e:	1f3a      	subs	r2, r7, #4
    81a0:	2a24      	cmp	r2, #36	@ 0x24
    81a2:	60c1      	str	r1, [r0, #12]
    81a4:	6088      	str	r0, [r1, #8]
    81a6:	f200 80ae 	bhi.w	8306 <_realloc_r+0x306>
    81aa:	2a13      	cmp	r2, #19
    81ac:	f240 80a9 	bls.w	8302 <_realloc_r+0x302>
    81b0:	6821      	ldr	r1, [r4, #0]
    81b2:	f8cb 1008 	str.w	r1, [fp, #8]
    81b6:	6861      	ldr	r1, [r4, #4]
    81b8:	f8cb 100c 	str.w	r1, [fp, #12]
    81bc:	2a1b      	cmp	r2, #27
    81be:	f200 80a8 	bhi.w	8312 <_realloc_r+0x312>
    81c2:	3408      	adds	r4, #8
    81c4:	f10b 0210 	add.w	r2, fp, #16
    81c8:	6821      	ldr	r1, [r4, #0]
    81ca:	6011      	str	r1, [r2, #0]
    81cc:	6861      	ldr	r1, [r4, #4]
    81ce:	6051      	str	r1, [r2, #4]
    81d0:	68a1      	ldr	r1, [r4, #8]
    81d2:	6091      	str	r1, [r2, #8]
    81d4:	eb0b 0105 	add.w	r1, fp, r5
    81d8:	ebaa 0205 	sub.w	r2, sl, r5
    81dc:	f042 0201 	orr.w	r2, r2, #1
    81e0:	6099      	str	r1, [r3, #8]
    81e2:	604a      	str	r2, [r1, #4]
    81e4:	f8db 3004 	ldr.w	r3, [fp, #4]
    81e8:	f003 0301 	and.w	r3, r3, #1
    81ec:	432b      	orrs	r3, r5
    81ee:	4640      	mov	r0, r8
    81f0:	f8cb 3004 	str.w	r3, [fp, #4]
    81f4:	f7fc f8a2 	bl	433c <__malloc_unlock>
    81f8:	e790      	b.n	811c <_realloc_r+0x11c>
    81fa:	6823      	ldr	r3, [r4, #0]
    81fc:	6003      	str	r3, [r0, #0]
    81fe:	6863      	ldr	r3, [r4, #4]
    8200:	6043      	str	r3, [r0, #4]
    8202:	2a1b      	cmp	r2, #27
    8204:	d83c      	bhi.n	8280 <_realloc_r+0x280>
    8206:	f104 0208 	add.w	r2, r4, #8
    820a:	f100 0308 	add.w	r3, r0, #8
    820e:	e754      	b.n	80ba <_realloc_r+0xba>
    8210:	f850 3c04 	ldr.w	r3, [r0, #-4]
    8214:	f023 0303 	bic.w	r3, r3, #3
    8218:	441f      	add	r7, r3
    821a:	e76b      	b.n	80f4 <_realloc_r+0xf4>
    821c:	1f3a      	subs	r2, r7, #4
    821e:	465e      	mov	r6, fp
    8220:	f8db 300c 	ldr.w	r3, [fp, #12]
    8224:	f856 1f08 	ldr.w	r1, [r6, #8]!
    8228:	2a24      	cmp	r2, #36	@ 0x24
    822a:	60cb      	str	r3, [r1, #12]
    822c:	6099      	str	r1, [r3, #8]
    822e:	d822      	bhi.n	8276 <_realloc_r+0x276>
    8230:	2a13      	cmp	r2, #19
    8232:	d91e      	bls.n	8272 <_realloc_r+0x272>
    8234:	6823      	ldr	r3, [r4, #0]
    8236:	f8cb 3008 	str.w	r3, [fp, #8]
    823a:	6863      	ldr	r3, [r4, #4]
    823c:	f8cb 300c 	str.w	r3, [fp, #12]
    8240:	2a1b      	cmp	r2, #27
    8242:	d83b      	bhi.n	82bc <_realloc_r+0x2bc>
    8244:	3408      	adds	r4, #8
    8246:	f10b 0310 	add.w	r3, fp, #16
    824a:	6822      	ldr	r2, [r4, #0]
    824c:	601a      	str	r2, [r3, #0]
    824e:	6862      	ldr	r2, [r4, #4]
    8250:	605a      	str	r2, [r3, #4]
    8252:	68a2      	ldr	r2, [r4, #8]
    8254:	609a      	str	r2, [r3, #8]
    8256:	4634      	mov	r4, r6
    8258:	4657      	mov	r7, sl
    825a:	46d9      	mov	r9, fp
    825c:	e74a      	b.n	80f4 <_realloc_r+0xf4>
    825e:	4621      	mov	r1, r4
    8260:	f7ff fd5e 	bl	7d20 <memmove>
    8264:	e72f      	b.n	80c6 <_realloc_r+0xc6>
    8266:	e9dc 1302 	ldrd	r1, r3, [ip, #8]
    826a:	1f3a      	subs	r2, r7, #4
    826c:	60cb      	str	r3, [r1, #12]
    826e:	6099      	str	r1, [r3, #8]
    8270:	e7d5      	b.n	821e <_realloc_r+0x21e>
    8272:	4633      	mov	r3, r6
    8274:	e7e9      	b.n	824a <_realloc_r+0x24a>
    8276:	4621      	mov	r1, r4
    8278:	4630      	mov	r0, r6
    827a:	f7ff fd51 	bl	7d20 <memmove>
    827e:	e7ea      	b.n	8256 <_realloc_r+0x256>
    8280:	68a3      	ldr	r3, [r4, #8]
    8282:	6083      	str	r3, [r0, #8]
    8284:	68e3      	ldr	r3, [r4, #12]
    8286:	60c3      	str	r3, [r0, #12]
    8288:	2a24      	cmp	r2, #36	@ 0x24
    828a:	d027      	beq.n	82dc <_realloc_r+0x2dc>
    828c:	f104 0210 	add.w	r2, r4, #16
    8290:	f100 0310 	add.w	r3, r0, #16
    8294:	e711      	b.n	80ba <_realloc_r+0xba>
    8296:	eb09 0105 	add.w	r1, r9, r5
    829a:	6099      	str	r1, [r3, #8]
    829c:	1b53      	subs	r3, r2, r5
    829e:	f043 0301 	orr.w	r3, r3, #1
    82a2:	604b      	str	r3, [r1, #4]
    82a4:	f854 3c04 	ldr.w	r3, [r4, #-4]
    82a8:	f003 0301 	and.w	r3, r3, #1
    82ac:	432b      	orrs	r3, r5
    82ae:	4640      	mov	r0, r8
    82b0:	f844 3c04 	str.w	r3, [r4, #-4]
    82b4:	f7fc f842 	bl	433c <__malloc_unlock>
    82b8:	4626      	mov	r6, r4
    82ba:	e72f      	b.n	811c <_realloc_r+0x11c>
    82bc:	68a3      	ldr	r3, [r4, #8]
    82be:	f8cb 3010 	str.w	r3, [fp, #16]
    82c2:	68e3      	ldr	r3, [r4, #12]
    82c4:	f8cb 3014 	str.w	r3, [fp, #20]
    82c8:	2a24      	cmp	r2, #36	@ 0x24
    82ca:	d010      	beq.n	82ee <_realloc_r+0x2ee>
    82cc:	3410      	adds	r4, #16
    82ce:	f10b 0318 	add.w	r3, fp, #24
    82d2:	e7ba      	b.n	824a <_realloc_r+0x24a>
    82d4:	4640      	mov	r0, r8
    82d6:	f7fc f831 	bl	433c <__malloc_unlock>
    82da:	e704      	b.n	80e6 <_realloc_r+0xe6>
    82dc:	6923      	ldr	r3, [r4, #16]
    82de:	6103      	str	r3, [r0, #16]
    82e0:	6961      	ldr	r1, [r4, #20]
    82e2:	6141      	str	r1, [r0, #20]
    82e4:	f104 0218 	add.w	r2, r4, #24
    82e8:	f100 0318 	add.w	r3, r0, #24
    82ec:	e6e5      	b.n	80ba <_realloc_r+0xba>
    82ee:	6923      	ldr	r3, [r4, #16]
    82f0:	f8cb 3018 	str.w	r3, [fp, #24]
    82f4:	6963      	ldr	r3, [r4, #20]
    82f6:	f8cb 301c 	str.w	r3, [fp, #28]
    82fa:	3418      	adds	r4, #24
    82fc:	f10b 0320 	add.w	r3, fp, #32
    8300:	e7a3      	b.n	824a <_realloc_r+0x24a>
    8302:	4632      	mov	r2, r6
    8304:	e760      	b.n	81c8 <_realloc_r+0x1c8>
    8306:	4621      	mov	r1, r4
    8308:	4630      	mov	r0, r6
    830a:	f7ff fd09 	bl	7d20 <memmove>
    830e:	4b07      	ldr	r3, [pc, #28]	@ (832c <_realloc_r+0x32c>)
    8310:	e760      	b.n	81d4 <_realloc_r+0x1d4>
    8312:	68a1      	ldr	r1, [r4, #8]
    8314:	f8cb 1010 	str.w	r1, [fp, #16]
    8318:	68e1      	ldr	r1, [r4, #12]
    831a:	f8cb 1014 	str.w	r1, [fp, #20]
    831e:	2a24      	cmp	r2, #36	@ 0x24
    8320:	d006      	beq.n	8330 <_realloc_r+0x330>
    8322:	3410      	adds	r4, #16
    8324:	f10b 0218 	add.w	r2, fp, #24
    8328:	e74e      	b.n	81c8 <_realloc_r+0x1c8>
    832a:	bf00      	nop
    832c:	1ffd01e0 	.word	0x1ffd01e0
    8330:	6922      	ldr	r2, [r4, #16]
    8332:	f8cb 2018 	str.w	r2, [fp, #24]
    8336:	6962      	ldr	r2, [r4, #20]
    8338:	f8cb 201c 	str.w	r2, [fp, #28]
    833c:	3418      	adds	r4, #24
    833e:	f10b 0220 	add.w	r2, fp, #32
    8342:	e741      	b.n	81c8 <_realloc_r+0x1c8>

00008344 <_wcsnrtombs_l>:
    8344:	e92d 4ff0 	stmdb	sp!, {r4, r5, r6, r7, r8, r9, sl, fp, lr}
    8348:	b08b      	sub	sp, #44	@ 0x2c
    834a:	e9dd 7a15 	ldrd	r7, sl, [sp, #84]	@ 0x54
    834e:	4686      	mov	lr, r0
    8350:	461e      	mov	r6, r3
    8352:	2f00      	cmp	r7, #0
    8354:	d05a      	beq.n	840c <_wcsnrtombs_l+0xc8>
    8356:	6815      	ldr	r5, [r2, #0]
    8358:	2900      	cmp	r1, #0
    835a:	d05c      	beq.n	8416 <_wcsnrtombs_l+0xd2>
    835c:	9b14      	ldr	r3, [sp, #80]	@ 0x50
    835e:	2b00      	cmp	r3, #0
    8360:	d069      	beq.n	8436 <_wcsnrtombs_l+0xf2>
    8362:	1e74      	subs	r4, r6, #1
    8364:	b34e      	cbz	r6, 83ba <_wcsnrtombs_l+0x76>
    8366:	3d04      	subs	r5, #4
    8368:	e9cd 5e01 	strd	r5, lr, [sp, #4]
    836c:	f8dd b050 	ldr.w	fp, [sp, #80]	@ 0x50
    8370:	9104      	str	r1, [sp, #16]
    8372:	2600      	movs	r6, #0
    8374:	9103      	str	r1, [sp, #12]
    8376:	9205      	str	r2, [sp, #20]
    8378:	e00b      	b.n	8392 <_wcsnrtombs_l+0x4e>
    837a:	9b03      	ldr	r3, [sp, #12]
    837c:	bb0b      	cbnz	r3, 83c2 <_wcsnrtombs_l+0x7e>
    837e:	9b01      	ldr	r3, [sp, #4]
    8380:	6818      	ldr	r0, [r3, #0]
    8382:	2800      	cmp	r0, #0
    8384:	d036      	beq.n	83f4 <_wcsnrtombs_l+0xb0>
    8386:	45dc      	cmp	ip, fp
    8388:	d257      	bcs.n	843a <_wcsnrtombs_l+0xf6>
    838a:	3c01      	subs	r4, #1
    838c:	1c63      	adds	r3, r4, #1
    838e:	4666      	mov	r6, ip
    8390:	d013      	beq.n	83ba <_wcsnrtombs_l+0x76>
    8392:	9b01      	ldr	r3, [sp, #4]
    8394:	9802      	ldr	r0, [sp, #8]
    8396:	f853 2f04 	ldr.w	r2, [r3, #4]!
    839a:	9301      	str	r3, [sp, #4]
    839c:	f8da 50e0 	ldr.w	r5, [sl, #224]	@ 0xe0
    83a0:	463b      	mov	r3, r7
    83a2:	a907      	add	r1, sp, #28
    83a4:	e9d7 9800 	ldrd	r9, r8, [r7]
    83a8:	47a8      	blx	r5
    83aa:	1c42      	adds	r2, r0, #1
    83ac:	d037      	beq.n	841e <_wcsnrtombs_l+0xda>
    83ae:	eb00 0c06 	add.w	ip, r0, r6
    83b2:	45dc      	cmp	ip, fp
    83b4:	d9e1      	bls.n	837a <_wcsnrtombs_l+0x36>
    83b6:	e9c7 9800 	strd	r9, r8, [r7]
    83ba:	4630      	mov	r0, r6
    83bc:	b00b      	add	sp, #44	@ 0x2c
    83be:	e8bd 8ff0 	ldmia.w	sp!, {r4, r5, r6, r7, r8, r9, sl, fp, pc}
    83c2:	2800      	cmp	r0, #0
    83c4:	dd0e      	ble.n	83e4 <_wcsnrtombs_l+0xa0>
    83c6:	9b04      	ldr	r3, [sp, #16]
    83c8:	9d01      	ldr	r5, [sp, #4]
    83ca:	4418      	add	r0, r3
    83cc:	1e5a      	subs	r2, r3, #1
    83ce:	a907      	add	r1, sp, #28
    83d0:	f100 3eff 	add.w	lr, r0, #4294967295
    83d4:	f811 3b01 	ldrb.w	r3, [r1], #1
    83d8:	f802 3f01 	strb.w	r3, [r2, #1]!
    83dc:	4572      	cmp	r2, lr
    83de:	d1f9      	bne.n	83d4 <_wcsnrtombs_l+0x90>
    83e0:	9501      	str	r5, [sp, #4]
    83e2:	9004      	str	r0, [sp, #16]
    83e4:	9b05      	ldr	r3, [sp, #20]
    83e6:	681a      	ldr	r2, [r3, #0]
    83e8:	3204      	adds	r2, #4
    83ea:	601a      	str	r2, [r3, #0]
    83ec:	9b01      	ldr	r3, [sp, #4]
    83ee:	6818      	ldr	r0, [r3, #0]
    83f0:	2800      	cmp	r0, #0
    83f2:	d1c8      	bne.n	8386 <_wcsnrtombs_l+0x42>
    83f4:	9903      	ldr	r1, [sp, #12]
    83f6:	9a05      	ldr	r2, [sp, #20]
    83f8:	b101      	cbz	r1, 83fc <_wcsnrtombs_l+0xb8>
    83fa:	6010      	str	r0, [r2, #0]
    83fc:	f10c 36ff 	add.w	r6, ip, #4294967295
    8400:	2200      	movs	r2, #0
    8402:	4630      	mov	r0, r6
    8404:	603a      	str	r2, [r7, #0]
    8406:	b00b      	add	sp, #44	@ 0x2c
    8408:	e8bd 8ff0 	ldmia.w	sp!, {r4, r5, r6, r7, r8, r9, sl, fp, pc}
    840c:	6815      	ldr	r5, [r2, #0]
    840e:	f500 7786 	add.w	r7, r0, #268	@ 0x10c
    8412:	2900      	cmp	r1, #0
    8414:	d1a2      	bne.n	835c <_wcsnrtombs_l+0x18>
    8416:	f04f 33ff 	mov.w	r3, #4294967295
    841a:	9314      	str	r3, [sp, #80]	@ 0x50
    841c:	e7a1      	b.n	8362 <_wcsnrtombs_l+0x1e>
    841e:	f8dd e008 	ldr.w	lr, [sp, #8]
    8422:	4606      	mov	r6, r0
    8424:	218a      	movs	r1, #138	@ 0x8a
    8426:	2200      	movs	r2, #0
    8428:	4630      	mov	r0, r6
    842a:	f8ce 1000 	str.w	r1, [lr]
    842e:	603a      	str	r2, [r7, #0]
    8430:	b00b      	add	sp, #44	@ 0x2c
    8432:	e8bd 8ff0 	ldmia.w	sp!, {r4, r5, r6, r7, r8, r9, sl, fp, pc}
    8436:	9e14      	ldr	r6, [sp, #80]	@ 0x50
    8438:	e7bf      	b.n	83ba <_wcsnrtombs_l+0x76>
    843a:	4666      	mov	r6, ip
    843c:	e7bd      	b.n	83ba <_wcsnrtombs_l+0x76>
    843e:	bf00      	nop

00008440 <_wcsnrtombs_r>:
    8440:	b510      	push	{r4, lr}
    8442:	b084      	sub	sp, #16
    8444:	4c05      	ldr	r4, [pc, #20]	@ (845c <_wcsnrtombs_r+0x1c>)
    8446:	9806      	ldr	r0, [sp, #24]
    8448:	9000      	str	r0, [sp, #0]
    844a:	9807      	ldr	r0, [sp, #28]
    844c:	9001      	str	r0, [sp, #4]
    844e:	4804      	ldr	r0, [pc, #16]	@ (8460 <_wcsnrtombs_r+0x20>)
    8450:	6800      	ldr	r0, [r0, #0]
    8452:	9402      	str	r4, [sp, #8]
    8454:	f7ff ff76 	bl	8344 <_wcsnrtombs_l>
    8458:	b004      	add	sp, #16
    845a:	bd10      	pop	{r4, pc}
    845c:	1ffd05e8 	.word	0x1ffd05e8
    8460:	1ffd0088 	.word	0x1ffd0088

00008464 <fiprintf>:
    8464:	b40e      	push	{r1, r2, r3}
    8466:	b510      	push	{r4, lr}
    8468:	b083      	sub	sp, #12
    846a:	ab05      	add	r3, sp, #20
    846c:	4c06      	ldr	r4, [pc, #24]	@ (8488 <fiprintf+0x24>)
    846e:	f853 2b04 	ldr.w	r2, [r3], #4
    8472:	9301      	str	r3, [sp, #4]
    8474:	4601      	mov	r1, r0
    8476:	6820      	ldr	r0, [r4, #0]
    8478:	f000 f808 	bl	848c <_vfiprintf_r>
    847c:	b003      	add	sp, #12
    847e:	e8bd 4010 	ldmia.w	sp!, {r4, lr}
    8482:	b003      	add	sp, #12
    8484:	4770      	bx	lr
    8486:	bf00      	nop
    8488:	1ffd0088 	.word	0x1ffd0088

0000848c <_vfiprintf_r>:
    848c:	e92d 4ff0 	stmdb	sp!, {r4, r5, r6, r7, r8, r9, sl, fp, lr}
    8490:	b0c7      	sub	sp, #284	@ 0x11c
    8492:	af16      	add	r7, sp, #88	@ 0x58
    8494:	e9cd 2106 	strd	r2, r1, [sp, #24]
    8498:	4683      	mov	fp, r0
    849a:	2208      	movs	r2, #8
    849c:	2100      	movs	r1, #0
    849e:	4638      	mov	r0, r7
    84a0:	461c      	mov	r4, r3
    84a2:	930c      	str	r3, [sp, #48]	@ 0x30
    84a4:	f7fb f9ee 	bl	3884 <memset>
    84a8:	f1bb 0f00 	cmp.w	fp, #0
    84ac:	d004      	beq.n	84b8 <_vfiprintf_r+0x2c>
    84ae:	f8db 3034 	ldr.w	r3, [fp, #52]	@ 0x34
    84b2:	2b00      	cmp	r3, #0
    84b4:	f000 8627 	beq.w	9106 <_vfiprintf_r+0xc7a>
    84b8:	9b07      	ldr	r3, [sp, #28]
    84ba:	6e5a      	ldr	r2, [r3, #100]	@ 0x64
    84bc:	f9b3 300c 	ldrsh.w	r3, [r3, #12]
    84c0:	07d0      	lsls	r0, r2, #31
    84c2:	d402      	bmi.n	84ca <_vfiprintf_r+0x3e>
    84c4:	0599      	lsls	r1, r3, #22
    84c6:	f140 850a 	bpl.w	8ede <_vfiprintf_r+0xa52>
    84ca:	049e      	lsls	r6, r3, #18
    84cc:	d406      	bmi.n	84dc <_vfiprintf_r+0x50>
    84ce:	9907      	ldr	r1, [sp, #28]
    84d0:	f443 5300 	orr.w	r3, r3, #8192	@ 0x2000
    84d4:	f422 5200 	bic.w	r2, r2, #8192	@ 0x2000
    84d8:	818b      	strh	r3, [r1, #12]
    84da:	664a      	str	r2, [r1, #100]	@ 0x64
    84dc:	0495      	lsls	r5, r2, #18
    84de:	f100 86c3 	bmi.w	9268 <_vfiprintf_r+0xddc>
    84e2:	9a07      	ldr	r2, [sp, #28]
    84e4:	f9b2 300c 	ldrsh.w	r3, [r2, #12]
    84e8:	0719      	lsls	r1, r3, #28
    84ea:	f140 80cb 	bpl.w	8684 <_vfiprintf_r+0x1f8>
    84ee:	6912      	ldr	r2, [r2, #16]
    84f0:	2a00      	cmp	r2, #0
    84f2:	f000 80c7 	beq.w	8684 <_vfiprintf_r+0x1f8>
    84f6:	f003 021a 	and.w	r2, r3, #26
    84fa:	2a0a      	cmp	r2, #10
    84fc:	f000 80d1 	beq.w	86a2 <_vfiprintf_r+0x216>
    8500:	2300      	movs	r3, #0
    8502:	469e      	mov	lr, r3
    8504:	e9cd ee0f 	strd	lr, lr, [sp, #60]	@ 0x3c
    8508:	e9cd 331b 	strd	r3, r3, [sp, #108]	@ 0x6c
    850c:	f8df a8f8 	ldr.w	sl, [pc, #2296]	@ 8e08 <_vfiprintf_r+0x97c>
    8510:	f8cd e038 	str.w	lr, [sp, #56]	@ 0x38
    8514:	ab1d      	add	r3, sp, #116	@ 0x74
    8516:	931a      	str	r3, [sp, #104]	@ 0x68
    8518:	4699      	mov	r9, r3
    851a:	f8cd e020 	str.w	lr, [sp, #32]
    851e:	f8cd e034 	str.w	lr, [sp, #52]	@ 0x34
    8522:	9d06      	ldr	r5, [sp, #24]
    8524:	f8da 40e4 	ldr.w	r4, [sl, #228]	@ 0xe4
    8528:	f7fd fe32 	bl	6190 <__locale_mb_cur_max>
    852c:	9700      	str	r7, [sp, #0]
    852e:	4603      	mov	r3, r0
    8530:	462a      	mov	r2, r5
    8532:	a914      	add	r1, sp, #80	@ 0x50
    8534:	4658      	mov	r0, fp
    8536:	47a0      	blx	r4
    8538:	2800      	cmp	r0, #0
    853a:	f000 80d1 	beq.w	86e0 <_vfiprintf_r+0x254>
    853e:	f2c0 80c7 	blt.w	86d0 <_vfiprintf_r+0x244>
    8542:	9a14      	ldr	r2, [sp, #80]	@ 0x50
    8544:	2a25      	cmp	r2, #37	@ 0x25
    8546:	4603      	mov	r3, r0
    8548:	d001      	beq.n	854e <_vfiprintf_r+0xc2>
    854a:	441d      	add	r5, r3
    854c:	e7ea      	b.n	8524 <_vfiprintf_r+0x98>
    854e:	9b06      	ldr	r3, [sp, #24]
    8550:	1aee      	subs	r6, r5, r3
    8552:	4604      	mov	r4, r0
    8554:	f040 80c8 	bne.w	86e8 <_vfiprintf_r+0x25c>
    8558:	2300      	movs	r3, #0
    855a:	f04f 31ff 	mov.w	r1, #4294967295
    855e:	786a      	ldrb	r2, [r5, #1]
    8560:	f88d 304b 	strb.w	r3, [sp, #75]	@ 0x4b
    8564:	9309      	str	r3, [sp, #36]	@ 0x24
    8566:	1c6c      	adds	r4, r5, #1
    8568:	9105      	str	r1, [sp, #20]
    856a:	9303      	str	r3, [sp, #12]
    856c:	3401      	adds	r4, #1
    856e:	f1a2 0320 	sub.w	r3, r2, #32
    8572:	2b5a      	cmp	r3, #90	@ 0x5a
    8574:	f200 80f9 	bhi.w	876a <_vfiprintf_r+0x2de>
    8578:	e8df f013 	tbh	[pc, r3, lsl #1]
    857c:	00f70260 	.word	0x00f70260
    8580:	025a00f7 	.word	0x025a00f7
    8584:	00f700f7 	.word	0x00f700f7
    8588:	006a00f7 	.word	0x006a00f7
    858c:	00f700f7 	.word	0x00f700f7
    8590:	01f901e8 	.word	0x01f901e8
    8594:	01f300f7 	.word	0x01f300f7
    8598:	00f70204 	.word	0x00f70204
    859c:	005b01fe 	.word	0x005b01fe
    85a0:	005b005b 	.word	0x005b005b
    85a4:	005b005b 	.word	0x005b005b
    85a8:	005b005b 	.word	0x005b005b
    85ac:	005b005b 	.word	0x005b005b
    85b0:	00f700f7 	.word	0x00f700f7
    85b4:	00f700f7 	.word	0x00f700f7
    85b8:	00f700f7 	.word	0x00f700f7
    85bc:	00f700f7 	.word	0x00f700f7
    85c0:	019d00f7 	.word	0x019d00f7
    85c4:	00f7026a 	.word	0x00f7026a
    85c8:	00f700f7 	.word	0x00f700f7
    85cc:	00f700f7 	.word	0x00f700f7
    85d0:	00f700f7 	.word	0x00f700f7
    85d4:	00f700f7 	.word	0x00f700f7
    85d8:	022000f7 	.word	0x022000f7
    85dc:	00f700f7 	.word	0x00f700f7
    85e0:	017600f7 	.word	0x017600f7
    85e4:	028d00f7 	.word	0x028d00f7
    85e8:	00f700f7 	.word	0x00f700f7
    85ec:	00f704e7 	.word	0x00f704e7
    85f0:	00f700f7 	.word	0x00f700f7
    85f4:	00f700f7 	.word	0x00f700f7
    85f8:	00f700f7 	.word	0x00f700f7
    85fc:	00f700f7 	.word	0x00f700f7
    8600:	019d00f7 	.word	0x019d00f7
    8604:	00f701c2 	.word	0x00f701c2
    8608:	00f700f7 	.word	0x00f700f7
    860c:	01c20284 	.word	0x01c20284
    8610:	00f7007e 	.word	0x00f7007e
    8614:	00f7030a 	.word	0x00f7030a
    8618:	04e402fb 	.word	0x04e402fb
    861c:	007e02da 	.word	0x007e02da
    8620:	017600f7 	.word	0x017600f7
    8624:	04e1007c 	.word	0x04e1007c
    8628:	00f700f7 	.word	0x00f700f7
    862c:	00f7050a 	.word	0x00f7050a
    8630:	007c      	.short	0x007c
    8632:	f1a2 0330 	sub.w	r3, r2, #48	@ 0x30
    8636:	2100      	movs	r1, #0
    8638:	f814 2b01 	ldrb.w	r2, [r4], #1
    863c:	eb01 0181 	add.w	r1, r1, r1, lsl #2
    8640:	eb03 0141 	add.w	r1, r3, r1, lsl #1
    8644:	f1a2 0330 	sub.w	r3, r2, #48	@ 0x30
    8648:	2b09      	cmp	r3, #9
    864a:	d9f5      	bls.n	8638 <_vfiprintf_r+0x1ac>
    864c:	9109      	str	r1, [sp, #36]	@ 0x24
    864e:	e78e      	b.n	856e <_vfiprintf_r+0xe2>
    8650:	4658      	mov	r0, fp
    8652:	f7fd fda3 	bl	619c <_localeconv_r>
    8656:	6843      	ldr	r3, [r0, #4]
    8658:	930f      	str	r3, [sp, #60]	@ 0x3c
    865a:	4618      	mov	r0, r3
    865c:	f7fd fe30 	bl	62c0 <strlen>
    8660:	9010      	str	r0, [sp, #64]	@ 0x40
    8662:	4605      	mov	r5, r0
    8664:	4658      	mov	r0, fp
    8666:	f7fd fd99 	bl	619c <_localeconv_r>
    866a:	6883      	ldr	r3, [r0, #8]
    866c:	930e      	str	r3, [sp, #56]	@ 0x38
    866e:	2d00      	cmp	r5, #0
    8670:	f040 8456 	bne.w	8f20 <_vfiprintf_r+0xa94>
    8674:	7822      	ldrb	r2, [r4, #0]
    8676:	e779      	b.n	856c <_vfiprintf_r+0xe0>
    8678:	9b03      	ldr	r3, [sp, #12]
    867a:	7822      	ldrb	r2, [r4, #0]
    867c:	f043 0320 	orr.w	r3, r3, #32
    8680:	9303      	str	r3, [sp, #12]
    8682:	e773      	b.n	856c <_vfiprintf_r+0xe0>
    8684:	9d07      	ldr	r5, [sp, #28]
    8686:	4658      	mov	r0, fp
    8688:	4629      	mov	r1, r5
    868a:	f001 f803 	bl	9694 <__swsetup_r>
    868e:	2800      	cmp	r0, #0
    8690:	f040 861e 	bne.w	92d0 <_vfiprintf_r+0xe44>
    8694:	f9b5 300c 	ldrsh.w	r3, [r5, #12]
    8698:	f003 021a 	and.w	r2, r3, #26
    869c:	2a0a      	cmp	r2, #10
    869e:	f47f af2f 	bne.w	8500 <_vfiprintf_r+0x74>
    86a2:	9907      	ldr	r1, [sp, #28]
    86a4:	f9b1 200e 	ldrsh.w	r2, [r1, #14]
    86a8:	2a00      	cmp	r2, #0
    86aa:	f6ff af29 	blt.w	8500 <_vfiprintf_r+0x74>
    86ae:	6e4a      	ldr	r2, [r1, #100]	@ 0x64
    86b0:	07d6      	lsls	r6, r2, #31
    86b2:	d402      	bmi.n	86ba <_vfiprintf_r+0x22e>
    86b4:	059d      	lsls	r5, r3, #22
    86b6:	f140 85cb 	bpl.w	9250 <_vfiprintf_r+0xdc4>
    86ba:	e9dd 2106 	ldrd	r2, r1, [sp, #24]
    86be:	4623      	mov	r3, r4
    86c0:	4658      	mov	r0, fp
    86c2:	f000 fe17 	bl	92f4 <__sbprintf>
    86c6:	9008      	str	r0, [sp, #32]
    86c8:	9808      	ldr	r0, [sp, #32]
    86ca:	b047      	add	sp, #284	@ 0x11c
    86cc:	e8bd 8ff0 	ldmia.w	sp!, {r4, r5, r6, r7, r8, r9, sl, fp, pc}
    86d0:	2208      	movs	r2, #8
    86d2:	2100      	movs	r1, #0
    86d4:	4638      	mov	r0, r7
    86d6:	f7fb f8d5 	bl	3884 <memset>
    86da:	2301      	movs	r3, #1
    86dc:	441d      	add	r5, r3
    86de:	e721      	b.n	8524 <_vfiprintf_r+0x98>
    86e0:	9b06      	ldr	r3, [sp, #24]
    86e2:	1aee      	subs	r6, r5, r3
    86e4:	4604      	mov	r4, r0
    86e6:	d012      	beq.n	870e <_vfiprintf_r+0x282>
    86e8:	9b06      	ldr	r3, [sp, #24]
    86ea:	e9c9 3600 	strd	r3, r6, [r9]
    86ee:	9b1c      	ldr	r3, [sp, #112]	@ 0x70
    86f0:	4433      	add	r3, r6
    86f2:	931c      	str	r3, [sp, #112]	@ 0x70
    86f4:	9b1b      	ldr	r3, [sp, #108]	@ 0x6c
    86f6:	3301      	adds	r3, #1
    86f8:	2b07      	cmp	r3, #7
    86fa:	931b      	str	r3, [sp, #108]	@ 0x6c
    86fc:	dc11      	bgt.n	8722 <_vfiprintf_r+0x296>
    86fe:	f109 0908 	add.w	r9, r9, #8
    8702:	9b08      	ldr	r3, [sp, #32]
    8704:	4433      	add	r3, r6
    8706:	9308      	str	r3, [sp, #32]
    8708:	2c00      	cmp	r4, #0
    870a:	f47f af25 	bne.w	8558 <_vfiprintf_r+0xcc>
    870e:	9b1c      	ldr	r3, [sp, #112]	@ 0x70
    8710:	2b00      	cmp	r3, #0
    8712:	f040 85b8 	bne.w	9286 <_vfiprintf_r+0xdfa>
    8716:	9b07      	ldr	r3, [sp, #28]
    8718:	2200      	movs	r2, #0
    871a:	f9b3 300c 	ldrsh.w	r3, [r3, #12]
    871e:	921b      	str	r2, [sp, #108]	@ 0x6c
    8720:	e018      	b.n	8754 <_vfiprintf_r+0x2c8>
    8722:	9907      	ldr	r1, [sp, #28]
    8724:	aa1a      	add	r2, sp, #104	@ 0x68
    8726:	4658      	mov	r0, fp
    8728:	f000 fe24 	bl	9374 <__sprint_r>
    872c:	b978      	cbnz	r0, 874e <_vfiprintf_r+0x2c2>
    872e:	f10d 0974 	add.w	r9, sp, #116	@ 0x74
    8732:	e7e6      	b.n	8702 <_vfiprintf_r+0x276>
    8734:	9907      	ldr	r1, [sp, #28]
    8736:	aa1a      	add	r2, sp, #104	@ 0x68
    8738:	4658      	mov	r0, fp
    873a:	f000 fe1b 	bl	9374 <__sprint_r>
    873e:	2800      	cmp	r0, #0
    8740:	d07e      	beq.n	8840 <_vfiprintf_r+0x3b4>
    8742:	9b0b      	ldr	r3, [sp, #44]	@ 0x2c
    8744:	b11b      	cbz	r3, 874e <_vfiprintf_r+0x2c2>
    8746:	990b      	ldr	r1, [sp, #44]	@ 0x2c
    8748:	4658      	mov	r0, fp
    874a:	f7fb fa43 	bl	3bd4 <_free_r>
    874e:	9b07      	ldr	r3, [sp, #28]
    8750:	f9b3 300c 	ldrsh.w	r3, [r3, #12]
    8754:	9a07      	ldr	r2, [sp, #28]
    8756:	6e52      	ldr	r2, [r2, #100]	@ 0x64
    8758:	07d1      	lsls	r1, r2, #31
    875a:	d57c      	bpl.n	8856 <_vfiprintf_r+0x3ca>
    875c:	065b      	lsls	r3, r3, #25
    875e:	f100 858d 	bmi.w	927c <_vfiprintf_r+0xdf0>
    8762:	9808      	ldr	r0, [sp, #32]
    8764:	b047      	add	sp, #284	@ 0x11c
    8766:	e8bd 8ff0 	ldmia.w	sp!, {r4, r5, r6, r7, r8, r9, sl, fp, pc}
    876a:	9406      	str	r4, [sp, #24]
    876c:	2a00      	cmp	r2, #0
    876e:	d0ce      	beq.n	870e <_vfiprintf_r+0x282>
    8770:	2300      	movs	r3, #0
    8772:	f88d 304b 	strb.w	r3, [sp, #75]	@ 0x4b
    8776:	2301      	movs	r3, #1
    8778:	f88d 20b4 	strb.w	r2, [sp, #180]	@ 0xb4
    877c:	9304      	str	r3, [sp, #16]
    877e:	930a      	str	r3, [sp, #40]	@ 0x28
    8780:	ac2d      	add	r4, sp, #180	@ 0xb4
    8782:	2300      	movs	r3, #0
    8784:	930b      	str	r3, [sp, #44]	@ 0x2c
    8786:	9305      	str	r3, [sp, #20]
    8788:	9803      	ldr	r0, [sp, #12]
    878a:	f010 0884 	ands.w	r8, r0, #132	@ 0x84
    878e:	e9dd 211b 	ldrd	r2, r1, [sp, #108]	@ 0x6c
    8792:	d105      	bne.n	87a0 <_vfiprintf_r+0x314>
    8794:	9809      	ldr	r0, [sp, #36]	@ 0x24
    8796:	9d04      	ldr	r5, [sp, #16]
    8798:	1b45      	subs	r5, r0, r5
    879a:	2d00      	cmp	r5, #0
    879c:	f300 82d6 	bgt.w	8d4c <_vfiprintf_r+0x8c0>
    87a0:	f89d 004b 	ldrb.w	r0, [sp, #75]	@ 0x4b
    87a4:	b178      	cbz	r0, 87c6 <_vfiprintf_r+0x33a>
    87a6:	3201      	adds	r2, #1
    87a8:	2001      	movs	r0, #1
    87aa:	3101      	adds	r1, #1
    87ac:	f8c9 0004 	str.w	r0, [r9, #4]
    87b0:	2a07      	cmp	r2, #7
    87b2:	f10d 004b 	add.w	r0, sp, #75	@ 0x4b
    87b6:	e9cd 211b 	strd	r2, r1, [sp, #108]	@ 0x6c
    87ba:	f8c9 0000 	str.w	r0, [r9]
    87be:	f300 82fa 	bgt.w	8db6 <_vfiprintf_r+0x92a>
    87c2:	f109 0908 	add.w	r9, r9, #8
    87c6:	b17b      	cbz	r3, 87e8 <_vfiprintf_r+0x35c>
    87c8:	3201      	adds	r2, #1
    87ca:	a813      	add	r0, sp, #76	@ 0x4c
    87cc:	3102      	adds	r1, #2
    87ce:	f8c9 0000 	str.w	r0, [r9]
    87d2:	2a07      	cmp	r2, #7
    87d4:	f04f 0002 	mov.w	r0, #2
    87d8:	e9cd 211b 	strd	r2, r1, [sp, #108]	@ 0x6c
    87dc:	f8c9 0004 	str.w	r0, [r9, #4]
    87e0:	f300 82f8 	bgt.w	8dd4 <_vfiprintf_r+0x948>
    87e4:	f109 0908 	add.w	r9, r9, #8
    87e8:	f1b8 0f80 	cmp.w	r8, #128	@ 0x80
    87ec:	f000 820c 	beq.w	8c08 <_vfiprintf_r+0x77c>
    87f0:	9b05      	ldr	r3, [sp, #20]
    87f2:	980a      	ldr	r0, [sp, #40]	@ 0x28
    87f4:	1a1d      	subs	r5, r3, r0
    87f6:	2d00      	cmp	r5, #0
    87f8:	f300 824a 	bgt.w	8c90 <_vfiprintf_r+0x804>
    87fc:	9b0a      	ldr	r3, [sp, #40]	@ 0x28
    87fe:	f8c9 4000 	str.w	r4, [r9]
    8802:	3201      	adds	r2, #1
    8804:	4419      	add	r1, r3
    8806:	2a07      	cmp	r2, #7
    8808:	e9cd 211b 	strd	r2, r1, [sp, #108]	@ 0x6c
    880c:	f8c9 3004 	str.w	r3, [r9, #4]
    8810:	f300 8279 	bgt.w	8d06 <_vfiprintf_r+0x87a>
    8814:	f109 0908 	add.w	r9, r9, #8
    8818:	9b03      	ldr	r3, [sp, #12]
    881a:	0758      	lsls	r0, r3, #29
    881c:	d505      	bpl.n	882a <_vfiprintf_r+0x39e>
    881e:	9b09      	ldr	r3, [sp, #36]	@ 0x24
    8820:	9a04      	ldr	r2, [sp, #16]
    8822:	1a9c      	subs	r4, r3, r2
    8824:	2c00      	cmp	r4, #0
    8826:	f300 82e2 	bgt.w	8dee <_vfiprintf_r+0x962>
    882a:	e9dd 3208 	ldrd	r3, r2, [sp, #32]
    882e:	9804      	ldr	r0, [sp, #16]
    8830:	4282      	cmp	r2, r0
    8832:	bfac      	ite	ge
    8834:	189b      	addge	r3, r3, r2
    8836:	181b      	addlt	r3, r3, r0
    8838:	9308      	str	r3, [sp, #32]
    883a:	2900      	cmp	r1, #0
    883c:	f47f af7a 	bne.w	8734 <_vfiprintf_r+0x2a8>
    8840:	2300      	movs	r3, #0
    8842:	931b      	str	r3, [sp, #108]	@ 0x6c
    8844:	9b0b      	ldr	r3, [sp, #44]	@ 0x2c
    8846:	b11b      	cbz	r3, 8850 <_vfiprintf_r+0x3c4>
    8848:	990b      	ldr	r1, [sp, #44]	@ 0x2c
    884a:	4658      	mov	r0, fp
    884c:	f7fb f9c2 	bl	3bd4 <_free_r>
    8850:	f10d 0974 	add.w	r9, sp, #116	@ 0x74
    8854:	e665      	b.n	8522 <_vfiprintf_r+0x96>
    8856:	059a      	lsls	r2, r3, #22
    8858:	d480      	bmi.n	875c <_vfiprintf_r+0x2d0>
    885a:	9c07      	ldr	r4, [sp, #28]
    885c:	6da0      	ldr	r0, [r4, #88]	@ 0x58
    885e:	f7fb f8eb 	bl	3a38 <__retarget_lock_release_recursive>
    8862:	f9b4 300c 	ldrsh.w	r3, [r4, #12]
    8866:	e779      	b.n	875c <_vfiprintf_r+0x2d0>
    8868:	9e0c      	ldr	r6, [sp, #48]	@ 0x30
    886a:	9406      	str	r4, [sp, #24]
    886c:	f856 4b04 	ldr.w	r4, [r6], #4
    8870:	2300      	movs	r3, #0
    8872:	f88d 304b 	strb.w	r3, [sp, #75]	@ 0x4b
    8876:	2c00      	cmp	r4, #0
    8878:	f000 845d 	beq.w	9136 <_vfiprintf_r+0xcaa>
    887c:	2a53      	cmp	r2, #83	@ 0x53
    887e:	f000 83a2 	beq.w	8fc6 <_vfiprintf_r+0xb3a>
    8882:	9b03      	ldr	r3, [sp, #12]
    8884:	f013 0510 	ands.w	r5, r3, #16
    8888:	f040 839d 	bne.w	8fc6 <_vfiprintf_r+0xb3a>
    888c:	9b05      	ldr	r3, [sp, #20]
    888e:	2b00      	cmp	r3, #0
    8890:	f2c0 84cd 	blt.w	922e <_vfiprintf_r+0xda2>
    8894:	461a      	mov	r2, r3
    8896:	4629      	mov	r1, r5
    8898:	4620      	mov	r0, r4
    889a:	f7fd fcb9 	bl	6210 <memchr>
    889e:	900b      	str	r0, [sp, #44]	@ 0x2c
    88a0:	2800      	cmp	r0, #0
    88a2:	f000 8506 	beq.w	92b2 <_vfiprintf_r+0xe26>
    88a6:	1b03      	subs	r3, r0, r4
    88a8:	e9cd 350a 	strd	r3, r5, [sp, #40]	@ 0x28
    88ac:	ea23 73e3 	bic.w	r3, r3, r3, asr #31
    88b0:	9304      	str	r3, [sp, #16]
    88b2:	f000 bc9d 	b.w	91f0 <_vfiprintf_r+0xd64>
    88b6:	9b0c      	ldr	r3, [sp, #48]	@ 0x30
    88b8:	9406      	str	r4, [sp, #24]
    88ba:	2a43      	cmp	r2, #67	@ 0x43
    88bc:	f103 0504 	add.w	r5, r3, #4
    88c0:	d003      	beq.n	88ca <_vfiprintf_r+0x43e>
    88c2:	9b03      	ldr	r3, [sp, #12]
    88c4:	06d8      	lsls	r0, r3, #27
    88c6:	f140 8367 	bpl.w	8f98 <_vfiprintf_r+0xb0c>
    88ca:	2208      	movs	r2, #8
    88cc:	2100      	movs	r1, #0
    88ce:	a818      	add	r0, sp, #96	@ 0x60
    88d0:	f7fa ffd8 	bl	3884 <memset>
    88d4:	9b0c      	ldr	r3, [sp, #48]	@ 0x30
    88d6:	ac2d      	add	r4, sp, #180	@ 0xb4
    88d8:	681a      	ldr	r2, [r3, #0]
    88da:	4621      	mov	r1, r4
    88dc:	ab18      	add	r3, sp, #96	@ 0x60
    88de:	4658      	mov	r0, fp
    88e0:	f7ff f98c 	bl	7bfc <_wcrtomb_r>
    88e4:	4603      	mov	r3, r0
    88e6:	3301      	adds	r3, #1
    88e8:	900a      	str	r0, [sp, #40]	@ 0x28
    88ea:	f000 84d6 	beq.w	929a <_vfiprintf_r+0xe0e>
    88ee:	9b0a      	ldr	r3, [sp, #40]	@ 0x28
    88f0:	ea23 73e3 	bic.w	r3, r3, r3, asr #31
    88f4:	9304      	str	r3, [sp, #16]
    88f6:	2300      	movs	r3, #0
    88f8:	950c      	str	r5, [sp, #48]	@ 0x30
    88fa:	f88d 304b 	strb.w	r3, [sp, #75]	@ 0x4b
    88fe:	e740      	b.n	8782 <_vfiprintf_r+0x2f6>
    8900:	9b03      	ldr	r3, [sp, #12]
    8902:	9406      	str	r4, [sp, #24]
    8904:	0699      	lsls	r1, r3, #26
    8906:	f140 80ac 	bpl.w	8a62 <_vfiprintf_r+0x5d6>
    890a:	9b0c      	ldr	r3, [sp, #48]	@ 0x30
    890c:	3307      	adds	r3, #7
    890e:	f023 0307 	bic.w	r3, r3, #7
    8912:	4619      	mov	r1, r3
    8914:	685a      	ldr	r2, [r3, #4]
    8916:	f851 3b08 	ldr.w	r3, [r1], #8
    891a:	910c      	str	r1, [sp, #48]	@ 0x30
    891c:	4611      	mov	r1, r2
    891e:	2a00      	cmp	r2, #0
    8920:	f2c0 813f 	blt.w	8ba2 <_vfiprintf_r+0x716>
    8924:	9a05      	ldr	r2, [sp, #20]
    8926:	2a00      	cmp	r2, #0
    8928:	f2c0 8148 	blt.w	8bbc <_vfiprintf_r+0x730>
    892c:	9a03      	ldr	r2, [sp, #12]
    892e:	f022 0280 	bic.w	r2, r2, #128	@ 0x80
    8932:	9203      	str	r2, [sp, #12]
    8934:	ea53 0201 	orrs.w	r2, r3, r1
    8938:	f040 8140 	bne.w	8bbc <_vfiprintf_r+0x730>
    893c:	9b05      	ldr	r3, [sp, #20]
    893e:	2b00      	cmp	r3, #0
    8940:	f040 848b 	bne.w	925a <_vfiprintf_r+0xdce>
    8944:	9304      	str	r3, [sp, #16]
    8946:	930a      	str	r3, [sp, #40]	@ 0x28
    8948:	ac46      	add	r4, sp, #280	@ 0x118
    894a:	e149      	b.n	8be0 <_vfiprintf_r+0x754>
    894c:	9b0c      	ldr	r3, [sp, #48]	@ 0x30
    894e:	f853 2b04 	ldr.w	r2, [r3], #4
    8952:	9209      	str	r2, [sp, #36]	@ 0x24
    8954:	2a00      	cmp	r2, #0
    8956:	f280 82ba 	bge.w	8ece <_vfiprintf_r+0xa42>
    895a:	9a09      	ldr	r2, [sp, #36]	@ 0x24
    895c:	930c      	str	r3, [sp, #48]	@ 0x30
    895e:	4252      	negs	r2, r2
    8960:	9209      	str	r2, [sp, #36]	@ 0x24
    8962:	9b03      	ldr	r3, [sp, #12]
    8964:	7822      	ldrb	r2, [r4, #0]
    8966:	f043 0304 	orr.w	r3, r3, #4
    896a:	9303      	str	r3, [sp, #12]
    896c:	e5fe      	b.n	856c <_vfiprintf_r+0xe0>
    896e:	232b      	movs	r3, #43	@ 0x2b
    8970:	7822      	ldrb	r2, [r4, #0]
    8972:	f88d 304b 	strb.w	r3, [sp, #75]	@ 0x4b
    8976:	e5f9      	b.n	856c <_vfiprintf_r+0xe0>
    8978:	9b03      	ldr	r3, [sp, #12]
    897a:	7822      	ldrb	r2, [r4, #0]
    897c:	f043 0380 	orr.w	r3, r3, #128	@ 0x80
    8980:	9303      	str	r3, [sp, #12]
    8982:	e5f3      	b.n	856c <_vfiprintf_r+0xe0>
    8984:	4620      	mov	r0, r4
    8986:	f810 2b01 	ldrb.w	r2, [r0], #1
    898a:	2a2a      	cmp	r2, #42	@ 0x2a
    898c:	f000 8495 	beq.w	92ba <_vfiprintf_r+0xe2e>
    8990:	f1a2 0330 	sub.w	r3, r2, #48	@ 0x30
    8994:	2b09      	cmp	r3, #9
    8996:	bf98      	it	ls
    8998:	2100      	movls	r1, #0
    899a:	f200 8460 	bhi.w	925e <_vfiprintf_r+0xdd2>
    899e:	f810 2b01 	ldrb.w	r2, [r0], #1
    89a2:	eb01 0181 	add.w	r1, r1, r1, lsl #2
    89a6:	eb03 0141 	add.w	r1, r3, r1, lsl #1
    89aa:	f1a2 0330 	sub.w	r3, r2, #48	@ 0x30
    89ae:	2b09      	cmp	r3, #9
    89b0:	d9f5      	bls.n	899e <_vfiprintf_r+0x512>
    89b2:	ea41 73e1 	orr.w	r3, r1, r1, asr #31
    89b6:	9305      	str	r3, [sp, #20]
    89b8:	4604      	mov	r4, r0
    89ba:	e5d8      	b.n	856e <_vfiprintf_r+0xe2>
    89bc:	9b03      	ldr	r3, [sp, #12]
    89be:	9406      	str	r4, [sp, #24]
    89c0:	f043 0210 	orr.w	r2, r3, #16
    89c4:	f012 0120 	ands.w	r1, r2, #32
    89c8:	f000 8251 	beq.w	8e6e <_vfiprintf_r+0x9e2>
    89cc:	9b0c      	ldr	r3, [sp, #48]	@ 0x30
    89ce:	3307      	adds	r3, #7
    89d0:	f023 0307 	bic.w	r3, r3, #7
    89d4:	4618      	mov	r0, r3
    89d6:	6859      	ldr	r1, [r3, #4]
    89d8:	f850 3b08 	ldr.w	r3, [r0], #8
    89dc:	900c      	str	r0, [sp, #48]	@ 0x30
    89de:	f422 6480 	bic.w	r4, r2, #1024	@ 0x400
    89e2:	9403      	str	r4, [sp, #12]
    89e4:	9c05      	ldr	r4, [sp, #20]
    89e6:	2000      	movs	r0, #0
    89e8:	4284      	cmp	r4, r0
    89ea:	f88d 004b 	strb.w	r0, [sp, #75]	@ 0x4b
    89ee:	db7c      	blt.n	8aea <_vfiprintf_r+0x65e>
    89f0:	ea53 0401 	orrs.w	r4, r3, r1
    89f4:	f422 6290 	bic.w	r2, r2, #1152	@ 0x480
    89f8:	f040 8381 	bne.w	90fe <_vfiprintf_r+0xc72>
    89fc:	9c03      	ldr	r4, [sp, #12]
    89fe:	9203      	str	r2, [sp, #12]
    8a00:	9b05      	ldr	r3, [sp, #20]
    8a02:	2b00      	cmp	r3, #0
    8a04:	d169      	bne.n	8ada <_vfiprintf_r+0x64e>
    8a06:	2800      	cmp	r0, #0
    8a08:	f040 825c 	bne.w	8ec4 <_vfiprintf_r+0xa38>
    8a0c:	f014 0201 	ands.w	r2, r4, #1
    8a10:	920a      	str	r2, [sp, #40]	@ 0x28
    8a12:	f000 8260 	beq.w	8ed6 <_vfiprintf_r+0xa4a>
    8a16:	2330      	movs	r3, #48	@ 0x30
    8a18:	f88d 3117 	strb.w	r3, [sp, #279]	@ 0x117
    8a1c:	f89d 304b 	ldrb.w	r3, [sp, #75]	@ 0x4b
    8a20:	9204      	str	r2, [sp, #16]
    8a22:	f20d 1417 	addw	r4, sp, #279	@ 0x117
    8a26:	2b00      	cmp	r3, #0
    8a28:	f040 80df 	bne.w	8bea <_vfiprintf_r+0x75e>
    8a2c:	930b      	str	r3, [sp, #44]	@ 0x2c
    8a2e:	e0e1      	b.n	8bf4 <_vfiprintf_r+0x768>
    8a30:	9b03      	ldr	r3, [sp, #12]
    8a32:	7822      	ldrb	r2, [r4, #0]
    8a34:	f043 0301 	orr.w	r3, r3, #1
    8a38:	9303      	str	r3, [sp, #12]
    8a3a:	e597      	b.n	856c <_vfiprintf_r+0xe0>
    8a3c:	f89d 304b 	ldrb.w	r3, [sp, #75]	@ 0x4b
    8a40:	7822      	ldrb	r2, [r4, #0]
    8a42:	2b00      	cmp	r3, #0
    8a44:	f47f ad92 	bne.w	856c <_vfiprintf_r+0xe0>
    8a48:	2320      	movs	r3, #32
    8a4a:	f88d 304b 	strb.w	r3, [sp, #75]	@ 0x4b
    8a4e:	e58d      	b.n	856c <_vfiprintf_r+0xe0>
    8a50:	9b03      	ldr	r3, [sp, #12]
    8a52:	9406      	str	r4, [sp, #24]
    8a54:	f043 0310 	orr.w	r3, r3, #16
    8a58:	9303      	str	r3, [sp, #12]
    8a5a:	9b03      	ldr	r3, [sp, #12]
    8a5c:	0699      	lsls	r1, r3, #26
    8a5e:	f53f af54 	bmi.w	890a <_vfiprintf_r+0x47e>
    8a62:	9a0c      	ldr	r2, [sp, #48]	@ 0x30
    8a64:	f852 3b04 	ldr.w	r3, [r2], #4
    8a68:	920c      	str	r2, [sp, #48]	@ 0x30
    8a6a:	9a03      	ldr	r2, [sp, #12]
    8a6c:	06d2      	lsls	r2, r2, #27
    8a6e:	f100 8243 	bmi.w	8ef8 <_vfiprintf_r+0xa6c>
    8a72:	9a03      	ldr	r2, [sp, #12]
    8a74:	0656      	lsls	r6, r2, #25
    8a76:	f140 823b 	bpl.w	8ef0 <_vfiprintf_r+0xa64>
    8a7a:	f343 31c0 	sbfx	r1, r3, #15, #1
    8a7e:	460a      	mov	r2, r1
    8a80:	b21b      	sxth	r3, r3
    8a82:	e74c      	b.n	891e <_vfiprintf_r+0x492>
    8a84:	7822      	ldrb	r2, [r4, #0]
    8a86:	9b03      	ldr	r3, [sp, #12]
    8a88:	2a68      	cmp	r2, #104	@ 0x68
    8a8a:	f000 8295 	beq.w	8fb8 <_vfiprintf_r+0xb2c>
    8a8e:	f043 0340 	orr.w	r3, r3, #64	@ 0x40
    8a92:	9303      	str	r3, [sp, #12]
    8a94:	e56a      	b.n	856c <_vfiprintf_r+0xe0>
    8a96:	9b03      	ldr	r3, [sp, #12]
    8a98:	9406      	str	r4, [sp, #24]
    8a9a:	f043 0410 	orr.w	r4, r3, #16
    8a9e:	f014 0120 	ands.w	r1, r4, #32
    8aa2:	f000 81f3 	beq.w	8e8c <_vfiprintf_r+0xa00>
    8aa6:	9b0c      	ldr	r3, [sp, #48]	@ 0x30
    8aa8:	3307      	adds	r3, #7
    8aaa:	f023 0307 	bic.w	r3, r3, #7
    8aae:	461a      	mov	r2, r3
    8ab0:	6859      	ldr	r1, [r3, #4]
    8ab2:	f852 3b08 	ldr.w	r3, [r2], #8
    8ab6:	920c      	str	r2, [sp, #48]	@ 0x30
    8ab8:	2200      	movs	r2, #0
    8aba:	f88d 204b 	strb.w	r2, [sp, #75]	@ 0x4b
    8abe:	9a05      	ldr	r2, [sp, #20]
    8ac0:	2a00      	cmp	r2, #0
    8ac2:	f2c0 831e 	blt.w	9102 <_vfiprintf_r+0xc76>
    8ac6:	f024 0280 	bic.w	r2, r4, #128	@ 0x80
    8aca:	9203      	str	r2, [sp, #12]
    8acc:	ea53 0201 	orrs.w	r2, r3, r1
    8ad0:	d174      	bne.n	8bbc <_vfiprintf_r+0x730>
    8ad2:	9b05      	ldr	r3, [sp, #20]
    8ad4:	2001      	movs	r0, #1
    8ad6:	2b00      	cmp	r3, #0
    8ad8:	d095      	beq.n	8a06 <_vfiprintf_r+0x57a>
    8ada:	2801      	cmp	r0, #1
    8adc:	f000 83bd 	beq.w	925a <_vfiprintf_r+0xdce>
    8ae0:	2300      	movs	r3, #0
    8ae2:	2802      	cmp	r0, #2
    8ae4:	4619      	mov	r1, r3
    8ae6:	f000 811a 	beq.w	8d1e <_vfiprintf_r+0x892>
    8aea:	ac46      	add	r4, sp, #280	@ 0x118
    8aec:	f003 0207 	and.w	r2, r3, #7
    8af0:	08db      	lsrs	r3, r3, #3
    8af2:	ea43 7341 	orr.w	r3, r3, r1, lsl #29
    8af6:	08c9      	lsrs	r1, r1, #3
    8af8:	3230      	adds	r2, #48	@ 0x30
    8afa:	ea53 0501 	orrs.w	r5, r3, r1
    8afe:	4620      	mov	r0, r4
    8b00:	f804 2d01 	strb.w	r2, [r4, #-1]!
    8b04:	d1f2      	bne.n	8aec <_vfiprintf_r+0x660>
    8b06:	9b03      	ldr	r3, [sp, #12]
    8b08:	07dd      	lsls	r5, r3, #31
    8b0a:	f140 8116 	bpl.w	8d3a <_vfiprintf_r+0x8ae>
    8b0e:	2a30      	cmp	r2, #48	@ 0x30
    8b10:	f000 8113 	beq.w	8d3a <_vfiprintf_r+0x8ae>
    8b14:	2330      	movs	r3, #48	@ 0x30
    8b16:	9a05      	ldr	r2, [sp, #20]
    8b18:	f804 3c01 	strb.w	r3, [r4, #-1]
    8b1c:	3802      	subs	r0, #2
    8b1e:	ab46      	add	r3, sp, #280	@ 0x118
    8b20:	1a1b      	subs	r3, r3, r0
    8b22:	429a      	cmp	r2, r3
    8b24:	bfb8      	it	lt
    8b26:	461a      	movlt	r2, r3
    8b28:	930a      	str	r3, [sp, #40]	@ 0x28
    8b2a:	4604      	mov	r4, r0
    8b2c:	9204      	str	r2, [sp, #16]
    8b2e:	e057      	b.n	8be0 <_vfiprintf_r+0x754>
    8b30:	9b03      	ldr	r3, [sp, #12]
    8b32:	9a0c      	ldr	r2, [sp, #48]	@ 0x30
    8b34:	9406      	str	r4, [sp, #24]
    8b36:	f043 0302 	orr.w	r3, r3, #2
    8b3a:	9303      	str	r3, [sp, #12]
    8b3c:	f852 3b04 	ldr.w	r3, [r2], #4
    8b40:	920c      	str	r2, [sp, #48]	@ 0x30
    8b42:	f647 0230 	movw	r2, #30768	@ 0x7830
    8b46:	f8ad 204c 	strh.w	r2, [sp, #76]	@ 0x4c
    8b4a:	4aad      	ldr	r2, [pc, #692]	@ (8e00 <_vfiprintf_r+0x974>)
    8b4c:	920d      	str	r2, [sp, #52]	@ 0x34
    8b4e:	2100      	movs	r1, #0
    8b50:	2200      	movs	r2, #0
    8b52:	f88d 204b 	strb.w	r2, [sp, #75]	@ 0x4b
    8b56:	9a05      	ldr	r2, [sp, #20]
    8b58:	2a00      	cmp	r2, #0
    8b5a:	f2c0 80e0 	blt.w	8d1e <_vfiprintf_r+0x892>
    8b5e:	9c03      	ldr	r4, [sp, #12]
    8b60:	ea53 0001 	orrs.w	r0, r3, r1
    8b64:	f024 0280 	bic.w	r2, r4, #128	@ 0x80
    8b68:	9203      	str	r2, [sp, #12]
    8b6a:	f040 80d8 	bne.w	8d1e <_vfiprintf_r+0x892>
    8b6e:	2002      	movs	r0, #2
    8b70:	e746      	b.n	8a00 <_vfiprintf_r+0x574>
    8b72:	9b03      	ldr	r3, [sp, #12]
    8b74:	9406      	str	r4, [sp, #24]
    8b76:	069c      	lsls	r4, r3, #26
    8b78:	f140 81c1 	bpl.w	8efe <_vfiprintf_r+0xa72>
    8b7c:	9b0c      	ldr	r3, [sp, #48]	@ 0x30
    8b7e:	9a08      	ldr	r2, [sp, #32]
    8b80:	681b      	ldr	r3, [r3, #0]
    8b82:	601a      	str	r2, [r3, #0]
    8b84:	17d2      	asrs	r2, r2, #31
    8b86:	605a      	str	r2, [r3, #4]
    8b88:	9b0c      	ldr	r3, [sp, #48]	@ 0x30
    8b8a:	3304      	adds	r3, #4
    8b8c:	930c      	str	r3, [sp, #48]	@ 0x30
    8b8e:	e4c8      	b.n	8522 <_vfiprintf_r+0x96>
    8b90:	7822      	ldrb	r2, [r4, #0]
    8b92:	9b03      	ldr	r3, [sp, #12]
    8b94:	2a6c      	cmp	r2, #108	@ 0x6c
    8b96:	f000 8208 	beq.w	8faa <_vfiprintf_r+0xb1e>
    8b9a:	f043 0310 	orr.w	r3, r3, #16
    8b9e:	9303      	str	r3, [sp, #12]
    8ba0:	e4e4      	b.n	856c <_vfiprintf_r+0xe0>
    8ba2:	222d      	movs	r2, #45	@ 0x2d
    8ba4:	f88d 204b 	strb.w	r2, [sp, #75]	@ 0x4b
    8ba8:	9a05      	ldr	r2, [sp, #20]
    8baa:	425b      	negs	r3, r3
    8bac:	eb61 0141 	sbc.w	r1, r1, r1, lsl #1
    8bb0:	2a00      	cmp	r2, #0
    8bb2:	db03      	blt.n	8bbc <_vfiprintf_r+0x730>
    8bb4:	9a03      	ldr	r2, [sp, #12]
    8bb6:	f022 0280 	bic.w	r2, r2, #128	@ 0x80
    8bba:	9203      	str	r2, [sp, #12]
    8bbc:	2b0a      	cmp	r3, #10
    8bbe:	f171 0200 	sbcs.w	r2, r1, #0
    8bc2:	f080 8239 	bcs.w	9038 <_vfiprintf_r+0xbac>
    8bc6:	3330      	adds	r3, #48	@ 0x30
    8bc8:	b2db      	uxtb	r3, r3
    8bca:	f88d 3117 	strb.w	r3, [sp, #279]	@ 0x117
    8bce:	9b05      	ldr	r3, [sp, #20]
    8bd0:	2b01      	cmp	r3, #1
    8bd2:	bfb8      	it	lt
    8bd4:	2301      	movlt	r3, #1
    8bd6:	9304      	str	r3, [sp, #16]
    8bd8:	2301      	movs	r3, #1
    8bda:	930a      	str	r3, [sp, #40]	@ 0x28
    8bdc:	f20d 1417 	addw	r4, sp, #279	@ 0x117
    8be0:	f89d 304b 	ldrb.w	r3, [sp, #75]	@ 0x4b
    8be4:	2b00      	cmp	r3, #0
    8be6:	f43f af21 	beq.w	8a2c <_vfiprintf_r+0x5a0>
    8bea:	2300      	movs	r3, #0
    8bec:	930b      	str	r3, [sp, #44]	@ 0x2c
    8bee:	9b04      	ldr	r3, [sp, #16]
    8bf0:	3301      	adds	r3, #1
    8bf2:	9304      	str	r3, [sp, #16]
    8bf4:	9b03      	ldr	r3, [sp, #12]
    8bf6:	f013 0302 	ands.w	r3, r3, #2
    8bfa:	f43f adc5 	beq.w	8788 <_vfiprintf_r+0x2fc>
    8bfe:	9b04      	ldr	r3, [sp, #16]
    8c00:	3302      	adds	r3, #2
    8c02:	9304      	str	r3, [sp, #16]
    8c04:	2302      	movs	r3, #2
    8c06:	e5bf      	b.n	8788 <_vfiprintf_r+0x2fc>
    8c08:	9b09      	ldr	r3, [sp, #36]	@ 0x24
    8c0a:	9804      	ldr	r0, [sp, #16]
    8c0c:	1a1d      	subs	r5, r3, r0
    8c0e:	2d00      	cmp	r5, #0
    8c10:	f77f adee 	ble.w	87f0 <_vfiprintf_r+0x364>
    8c14:	2d10      	cmp	r5, #16
    8c16:	f8df 81ec 	ldr.w	r8, [pc, #492]	@ 8e04 <_vfiprintf_r+0x978>
    8c1a:	dd26      	ble.n	8c6a <_vfiprintf_r+0x7de>
    8c1c:	4640      	mov	r0, r8
    8c1e:	464b      	mov	r3, r9
    8c20:	46a0      	mov	r8, r4
    8c22:	f8dd 901c 	ldr.w	r9, [sp, #28]
    8c26:	2610      	movs	r6, #16
    8c28:	4604      	mov	r4, r0
    8c2a:	e004      	b.n	8c36 <_vfiprintf_r+0x7aa>
    8c2c:	3d10      	subs	r5, #16
    8c2e:	2d10      	cmp	r5, #16
    8c30:	f103 0308 	add.w	r3, r3, #8
    8c34:	dd15      	ble.n	8c62 <_vfiprintf_r+0x7d6>
    8c36:	3201      	adds	r2, #1
    8c38:	3110      	adds	r1, #16
    8c3a:	2a07      	cmp	r2, #7
    8c3c:	e9c3 4600 	strd	r4, r6, [r3]
    8c40:	e9cd 211b 	strd	r2, r1, [sp, #108]	@ 0x6c
    8c44:	ddf2      	ble.n	8c2c <_vfiprintf_r+0x7a0>
    8c46:	aa1a      	add	r2, sp, #104	@ 0x68
    8c48:	4649      	mov	r1, r9
    8c4a:	4658      	mov	r0, fp
    8c4c:	f000 fb92 	bl	9374 <__sprint_r>
    8c50:	2800      	cmp	r0, #0
    8c52:	f47f ad76 	bne.w	8742 <_vfiprintf_r+0x2b6>
    8c56:	3d10      	subs	r5, #16
    8c58:	2d10      	cmp	r5, #16
    8c5a:	e9dd 211b 	ldrd	r2, r1, [sp, #108]	@ 0x6c
    8c5e:	ab1d      	add	r3, sp, #116	@ 0x74
    8c60:	dce9      	bgt.n	8c36 <_vfiprintf_r+0x7aa>
    8c62:	4699      	mov	r9, r3
    8c64:	4623      	mov	r3, r4
    8c66:	4644      	mov	r4, r8
    8c68:	4698      	mov	r8, r3
    8c6a:	3201      	adds	r2, #1
    8c6c:	4429      	add	r1, r5
    8c6e:	2a07      	cmp	r2, #7
    8c70:	e9cd 211b 	strd	r2, r1, [sp, #108]	@ 0x6c
    8c74:	f8c9 8000 	str.w	r8, [r9]
    8c78:	f8c9 5004 	str.w	r5, [r9, #4]
    8c7c:	f300 8248 	bgt.w	9110 <_vfiprintf_r+0xc84>
    8c80:	9b05      	ldr	r3, [sp, #20]
    8c82:	980a      	ldr	r0, [sp, #40]	@ 0x28
    8c84:	1a1d      	subs	r5, r3, r0
    8c86:	2d00      	cmp	r5, #0
    8c88:	f109 0908 	add.w	r9, r9, #8
    8c8c:	f77f adb6 	ble.w	87fc <_vfiprintf_r+0x370>
    8c90:	2d10      	cmp	r5, #16
    8c92:	f8df 8170 	ldr.w	r8, [pc, #368]	@ 8e04 <_vfiprintf_r+0x978>
    8c96:	dd28      	ble.n	8cea <_vfiprintf_r+0x85e>
    8c98:	464b      	mov	r3, r9
    8c9a:	2610      	movs	r6, #16
    8c9c:	46a9      	mov	r9, r5
    8c9e:	4625      	mov	r5, r4
    8ca0:	9c07      	ldr	r4, [sp, #28]
    8ca2:	e006      	b.n	8cb2 <_vfiprintf_r+0x826>
    8ca4:	f1a9 0910 	sub.w	r9, r9, #16
    8ca8:	f1b9 0f10 	cmp.w	r9, #16
    8cac:	f103 0308 	add.w	r3, r3, #8
    8cb0:	dd18      	ble.n	8ce4 <_vfiprintf_r+0x858>
    8cb2:	3201      	adds	r2, #1
    8cb4:	4853      	ldr	r0, [pc, #332]	@ (8e04 <_vfiprintf_r+0x978>)
    8cb6:	3110      	adds	r1, #16
    8cb8:	2a07      	cmp	r2, #7
    8cba:	e9c3 0600 	strd	r0, r6, [r3]
    8cbe:	e9cd 211b 	strd	r2, r1, [sp, #108]	@ 0x6c
    8cc2:	ddef      	ble.n	8ca4 <_vfiprintf_r+0x818>
    8cc4:	aa1a      	add	r2, sp, #104	@ 0x68
    8cc6:	4621      	mov	r1, r4
    8cc8:	4658      	mov	r0, fp
    8cca:	f000 fb53 	bl	9374 <__sprint_r>
    8cce:	2800      	cmp	r0, #0
    8cd0:	f47f ad37 	bne.w	8742 <_vfiprintf_r+0x2b6>
    8cd4:	f1a9 0910 	sub.w	r9, r9, #16
    8cd8:	f1b9 0f10 	cmp.w	r9, #16
    8cdc:	e9dd 211b 	ldrd	r2, r1, [sp, #108]	@ 0x6c
    8ce0:	ab1d      	add	r3, sp, #116	@ 0x74
    8ce2:	dce6      	bgt.n	8cb2 <_vfiprintf_r+0x826>
    8ce4:	462c      	mov	r4, r5
    8ce6:	464d      	mov	r5, r9
    8ce8:	4699      	mov	r9, r3
    8cea:	3201      	adds	r2, #1
    8cec:	4429      	add	r1, r5
    8cee:	2a07      	cmp	r2, #7
    8cf0:	e9cd 211b 	strd	r2, r1, [sp, #108]	@ 0x6c
    8cf4:	f8c9 8000 	str.w	r8, [r9]
    8cf8:	f8c9 5004 	str.w	r5, [r9, #4]
    8cfc:	f300 80d5 	bgt.w	8eaa <_vfiprintf_r+0xa1e>
    8d00:	f109 0908 	add.w	r9, r9, #8
    8d04:	e57a      	b.n	87fc <_vfiprintf_r+0x370>
    8d06:	9907      	ldr	r1, [sp, #28]
    8d08:	aa1a      	add	r2, sp, #104	@ 0x68
    8d0a:	4658      	mov	r0, fp
    8d0c:	f000 fb32 	bl	9374 <__sprint_r>
    8d10:	2800      	cmp	r0, #0
    8d12:	f47f ad16 	bne.w	8742 <_vfiprintf_r+0x2b6>
    8d16:	991c      	ldr	r1, [sp, #112]	@ 0x70
    8d18:	f10d 0974 	add.w	r9, sp, #116	@ 0x74
    8d1c:	e57c      	b.n	8818 <_vfiprintf_r+0x38c>
    8d1e:	980d      	ldr	r0, [sp, #52]	@ 0x34
    8d20:	ac46      	add	r4, sp, #280	@ 0x118
    8d22:	f003 020f 	and.w	r2, r3, #15
    8d26:	091b      	lsrs	r3, r3, #4
    8d28:	5c82      	ldrb	r2, [r0, r2]
    8d2a:	f804 2d01 	strb.w	r2, [r4, #-1]!
    8d2e:	ea43 7301 	orr.w	r3, r3, r1, lsl #28
    8d32:	0909      	lsrs	r1, r1, #4
    8d34:	ea53 0201 	orrs.w	r2, r3, r1
    8d38:	d1f3      	bne.n	8d22 <_vfiprintf_r+0x896>
    8d3a:	9a05      	ldr	r2, [sp, #20]
    8d3c:	ab46      	add	r3, sp, #280	@ 0x118
    8d3e:	1b1b      	subs	r3, r3, r4
    8d40:	429a      	cmp	r2, r3
    8d42:	bfb8      	it	lt
    8d44:	461a      	movlt	r2, r3
    8d46:	930a      	str	r3, [sp, #40]	@ 0x28
    8d48:	9204      	str	r2, [sp, #16]
    8d4a:	e749      	b.n	8be0 <_vfiprintf_r+0x754>
    8d4c:	2d10      	cmp	r5, #16
    8d4e:	4e2f      	ldr	r6, [pc, #188]	@ (8e0c <_vfiprintf_r+0x980>)
    8d50:	dd23      	ble.n	8d9a <_vfiprintf_r+0x90e>
    8d52:	4648      	mov	r0, r9
    8d54:	9311      	str	r3, [sp, #68]	@ 0x44
    8d56:	46a1      	mov	r9, r4
    8d58:	9c07      	ldr	r4, [sp, #28]
    8d5a:	e004      	b.n	8d66 <_vfiprintf_r+0x8da>
    8d5c:	3d10      	subs	r5, #16
    8d5e:	2d10      	cmp	r5, #16
    8d60:	f100 0008 	add.w	r0, r0, #8
    8d64:	dd16      	ble.n	8d94 <_vfiprintf_r+0x908>
    8d66:	3201      	adds	r2, #1
    8d68:	3110      	adds	r1, #16
    8d6a:	2310      	movs	r3, #16
    8d6c:	2a07      	cmp	r2, #7
    8d6e:	e9cd 211b 	strd	r2, r1, [sp, #108]	@ 0x6c
    8d72:	6006      	str	r6, [r0, #0]
    8d74:	6043      	str	r3, [r0, #4]
    8d76:	ddf1      	ble.n	8d5c <_vfiprintf_r+0x8d0>
    8d78:	aa1a      	add	r2, sp, #104	@ 0x68
    8d7a:	4621      	mov	r1, r4
    8d7c:	4658      	mov	r0, fp
    8d7e:	f000 faf9 	bl	9374 <__sprint_r>
    8d82:	2800      	cmp	r0, #0
    8d84:	f47f acdd 	bne.w	8742 <_vfiprintf_r+0x2b6>
    8d88:	3d10      	subs	r5, #16
    8d8a:	2d10      	cmp	r5, #16
    8d8c:	e9dd 211b 	ldrd	r2, r1, [sp, #108]	@ 0x6c
    8d90:	a81d      	add	r0, sp, #116	@ 0x74
    8d92:	dce8      	bgt.n	8d66 <_vfiprintf_r+0x8da>
    8d94:	9b11      	ldr	r3, [sp, #68]	@ 0x44
    8d96:	464c      	mov	r4, r9
    8d98:	4681      	mov	r9, r0
    8d9a:	3201      	adds	r2, #1
    8d9c:	4429      	add	r1, r5
    8d9e:	2a07      	cmp	r2, #7
    8da0:	e9cd 211b 	strd	r2, r1, [sp, #108]	@ 0x6c
    8da4:	f8c9 6000 	str.w	r6, [r9]
    8da8:	f8c9 5004 	str.w	r5, [r9, #4]
    8dac:	f300 8197 	bgt.w	90de <_vfiprintf_r+0xc52>
    8db0:	f109 0908 	add.w	r9, r9, #8
    8db4:	e4f4      	b.n	87a0 <_vfiprintf_r+0x314>
    8db6:	9907      	ldr	r1, [sp, #28]
    8db8:	9311      	str	r3, [sp, #68]	@ 0x44
    8dba:	aa1a      	add	r2, sp, #104	@ 0x68
    8dbc:	4658      	mov	r0, fp
    8dbe:	f000 fad9 	bl	9374 <__sprint_r>
    8dc2:	2800      	cmp	r0, #0
    8dc4:	f47f acbd 	bne.w	8742 <_vfiprintf_r+0x2b6>
    8dc8:	e9dd 211b 	ldrd	r2, r1, [sp, #108]	@ 0x6c
    8dcc:	9b11      	ldr	r3, [sp, #68]	@ 0x44
    8dce:	f10d 0974 	add.w	r9, sp, #116	@ 0x74
    8dd2:	e4f8      	b.n	87c6 <_vfiprintf_r+0x33a>
    8dd4:	9907      	ldr	r1, [sp, #28]
    8dd6:	aa1a      	add	r2, sp, #104	@ 0x68
    8dd8:	4658      	mov	r0, fp
    8dda:	f000 facb 	bl	9374 <__sprint_r>
    8dde:	2800      	cmp	r0, #0
    8de0:	f47f acaf 	bne.w	8742 <_vfiprintf_r+0x2b6>
    8de4:	e9dd 211b 	ldrd	r2, r1, [sp, #108]	@ 0x6c
    8de8:	f10d 0974 	add.w	r9, sp, #116	@ 0x74
    8dec:	e4fc      	b.n	87e8 <_vfiprintf_r+0x35c>
    8dee:	2c10      	cmp	r4, #16
    8df0:	9b1b      	ldr	r3, [sp, #108]	@ 0x6c
    8df2:	4e06      	ldr	r6, [pc, #24]	@ (8e0c <_vfiprintf_r+0x980>)
    8df4:	dd28      	ble.n	8e48 <_vfiprintf_r+0x9bc>
    8df6:	f8dd 801c 	ldr.w	r8, [sp, #28]
    8dfa:	2510      	movs	r5, #16
    8dfc:	e00d      	b.n	8e1a <_vfiprintf_r+0x98e>
    8dfe:	bf00      	nop
    8e00:	0000a2cc 	.word	0x0000a2cc
    8e04:	0000a684 	.word	0x0000a684
    8e08:	1ffd05e8 	.word	0x1ffd05e8
    8e0c:	0000a694 	.word	0x0000a694
    8e10:	3c10      	subs	r4, #16
    8e12:	2c10      	cmp	r4, #16
    8e14:	f109 0908 	add.w	r9, r9, #8
    8e18:	dd16      	ble.n	8e48 <_vfiprintf_r+0x9bc>
    8e1a:	3301      	adds	r3, #1
    8e1c:	3110      	adds	r1, #16
    8e1e:	2b07      	cmp	r3, #7
    8e20:	e9c9 6500 	strd	r6, r5, [r9]
    8e24:	e9cd 311b 	strd	r3, r1, [sp, #108]	@ 0x6c
    8e28:	ddf2      	ble.n	8e10 <_vfiprintf_r+0x984>
    8e2a:	aa1a      	add	r2, sp, #104	@ 0x68
    8e2c:	4641      	mov	r1, r8
    8e2e:	4658      	mov	r0, fp
    8e30:	f000 faa0 	bl	9374 <__sprint_r>
    8e34:	2800      	cmp	r0, #0
    8e36:	f47f ac84 	bne.w	8742 <_vfiprintf_r+0x2b6>
    8e3a:	3c10      	subs	r4, #16
    8e3c:	2c10      	cmp	r4, #16
    8e3e:	e9dd 311b 	ldrd	r3, r1, [sp, #108]	@ 0x6c
    8e42:	f10d 0974 	add.w	r9, sp, #116	@ 0x74
    8e46:	dce8      	bgt.n	8e1a <_vfiprintf_r+0x98e>
    8e48:	3301      	adds	r3, #1
    8e4a:	4421      	add	r1, r4
    8e4c:	2b07      	cmp	r3, #7
    8e4e:	e9c9 6400 	strd	r6, r4, [r9]
    8e52:	e9cd 311b 	strd	r3, r1, [sp, #108]	@ 0x6c
    8e56:	f77f ace8 	ble.w	882a <_vfiprintf_r+0x39e>
    8e5a:	9907      	ldr	r1, [sp, #28]
    8e5c:	aa1a      	add	r2, sp, #104	@ 0x68
    8e5e:	4658      	mov	r0, fp
    8e60:	f000 fa88 	bl	9374 <__sprint_r>
    8e64:	2800      	cmp	r0, #0
    8e66:	f47f ac6c 	bne.w	8742 <_vfiprintf_r+0x2b6>
    8e6a:	991c      	ldr	r1, [sp, #112]	@ 0x70
    8e6c:	e4dd      	b.n	882a <_vfiprintf_r+0x39e>
    8e6e:	980c      	ldr	r0, [sp, #48]	@ 0x30
    8e70:	f850 3b04 	ldr.w	r3, [r0], #4
    8e74:	900c      	str	r0, [sp, #48]	@ 0x30
    8e76:	f012 0010 	ands.w	r0, r2, #16
    8e7a:	f47f adb0 	bne.w	89de <_vfiprintf_r+0x552>
    8e7e:	f012 0440 	ands.w	r4, r2, #64	@ 0x40
    8e82:	f000 8162 	beq.w	914a <_vfiprintf_r+0xcbe>
    8e86:	b29b      	uxth	r3, r3
    8e88:	4601      	mov	r1, r0
    8e8a:	e5a8      	b.n	89de <_vfiprintf_r+0x552>
    8e8c:	9a0c      	ldr	r2, [sp, #48]	@ 0x30
    8e8e:	f852 3b04 	ldr.w	r3, [r2], #4
    8e92:	920c      	str	r2, [sp, #48]	@ 0x30
    8e94:	f014 0210 	ands.w	r2, r4, #16
    8e98:	f47f ae0e 	bne.w	8ab8 <_vfiprintf_r+0x62c>
    8e9c:	f014 0040 	ands.w	r0, r4, #64	@ 0x40
    8ea0:	f000 8159 	beq.w	9156 <_vfiprintf_r+0xcca>
    8ea4:	b29b      	uxth	r3, r3
    8ea6:	4611      	mov	r1, r2
    8ea8:	e606      	b.n	8ab8 <_vfiprintf_r+0x62c>
    8eaa:	9907      	ldr	r1, [sp, #28]
    8eac:	aa1a      	add	r2, sp, #104	@ 0x68
    8eae:	4658      	mov	r0, fp
    8eb0:	f000 fa60 	bl	9374 <__sprint_r>
    8eb4:	2800      	cmp	r0, #0
    8eb6:	f47f ac44 	bne.w	8742 <_vfiprintf_r+0x2b6>
    8eba:	e9dd 211b 	ldrd	r2, r1, [sp, #108]	@ 0x6c
    8ebe:	f10d 0974 	add.w	r9, sp, #116	@ 0x74
    8ec2:	e49b      	b.n	87fc <_vfiprintf_r+0x370>
    8ec4:	9b05      	ldr	r3, [sp, #20]
    8ec6:	9304      	str	r3, [sp, #16]
    8ec8:	930a      	str	r3, [sp, #40]	@ 0x28
    8eca:	ac46      	add	r4, sp, #280	@ 0x118
    8ecc:	e688      	b.n	8be0 <_vfiprintf_r+0x754>
    8ece:	7822      	ldrb	r2, [r4, #0]
    8ed0:	930c      	str	r3, [sp, #48]	@ 0x30
    8ed2:	f7ff bb4b 	b.w	856c <_vfiprintf_r+0xe0>
    8ed6:	9b05      	ldr	r3, [sp, #20]
    8ed8:	9304      	str	r3, [sp, #16]
    8eda:	ac46      	add	r4, sp, #280	@ 0x118
    8edc:	e680      	b.n	8be0 <_vfiprintf_r+0x754>
    8ede:	9d07      	ldr	r5, [sp, #28]
    8ee0:	6da8      	ldr	r0, [r5, #88]	@ 0x58
    8ee2:	f7fa fda7 	bl	3a34 <__retarget_lock_acquire_recursive>
    8ee6:	f9b5 300c 	ldrsh.w	r3, [r5, #12]
    8eea:	6e6a      	ldr	r2, [r5, #100]	@ 0x64
    8eec:	f7ff baed 	b.w	84ca <_vfiprintf_r+0x3e>
    8ef0:	9a03      	ldr	r2, [sp, #12]
    8ef2:	0595      	lsls	r5, r2, #22
    8ef4:	f100 8187 	bmi.w	9206 <_vfiprintf_r+0xd7a>
    8ef8:	17d9      	asrs	r1, r3, #31
    8efa:	460a      	mov	r2, r1
    8efc:	e50f      	b.n	891e <_vfiprintf_r+0x492>
    8efe:	9b03      	ldr	r3, [sp, #12]
    8f00:	06d8      	lsls	r0, r3, #27
    8f02:	f100 8113 	bmi.w	912c <_vfiprintf_r+0xca0>
    8f06:	9b03      	ldr	r3, [sp, #12]
    8f08:	0659      	lsls	r1, r3, #25
    8f0a:	f100 818b 	bmi.w	9224 <_vfiprintf_r+0xd98>
    8f0e:	9b03      	ldr	r3, [sp, #12]
    8f10:	059a      	lsls	r2, r3, #22
    8f12:	f140 810b 	bpl.w	912c <_vfiprintf_r+0xca0>
    8f16:	9b0c      	ldr	r3, [sp, #48]	@ 0x30
    8f18:	9a08      	ldr	r2, [sp, #32]
    8f1a:	681b      	ldr	r3, [r3, #0]
    8f1c:	701a      	strb	r2, [r3, #0]
    8f1e:	e633      	b.n	8b88 <_vfiprintf_r+0x6fc>
    8f20:	9b0e      	ldr	r3, [sp, #56]	@ 0x38
    8f22:	7822      	ldrb	r2, [r4, #0]
    8f24:	2b00      	cmp	r3, #0
    8f26:	f43f ab21 	beq.w	856c <_vfiprintf_r+0xe0>
    8f2a:	781b      	ldrb	r3, [r3, #0]
    8f2c:	2b00      	cmp	r3, #0
    8f2e:	f43f ab1d 	beq.w	856c <_vfiprintf_r+0xe0>
    8f32:	9b03      	ldr	r3, [sp, #12]
    8f34:	f443 6380 	orr.w	r3, r3, #1024	@ 0x400
    8f38:	9303      	str	r3, [sp, #12]
    8f3a:	f7ff bb17 	b.w	856c <_vfiprintf_r+0xe0>
    8f3e:	9406      	str	r4, [sp, #24]
    8f40:	9c03      	ldr	r4, [sp, #12]
    8f42:	e5ac      	b.n	8a9e <_vfiprintf_r+0x612>
    8f44:	9a03      	ldr	r2, [sp, #12]
    8f46:	9406      	str	r4, [sp, #24]
    8f48:	e53c      	b.n	89c4 <_vfiprintf_r+0x538>
    8f4a:	4bb2      	ldr	r3, [pc, #712]	@ (9214 <_vfiprintf_r+0xd88>)
    8f4c:	9406      	str	r4, [sp, #24]
    8f4e:	930d      	str	r3, [sp, #52]	@ 0x34
    8f50:	9b03      	ldr	r3, [sp, #12]
    8f52:	f013 0120 	ands.w	r1, r3, #32
    8f56:	d05f      	beq.n	9018 <_vfiprintf_r+0xb8c>
    8f58:	9b0c      	ldr	r3, [sp, #48]	@ 0x30
    8f5a:	3307      	adds	r3, #7
    8f5c:	f023 0307 	bic.w	r3, r3, #7
    8f60:	4618      	mov	r0, r3
    8f62:	6859      	ldr	r1, [r3, #4]
    8f64:	f850 3b08 	ldr.w	r3, [r0], #8
    8f68:	900c      	str	r0, [sp, #48]	@ 0x30
    8f6a:	9c03      	ldr	r4, [sp, #12]
    8f6c:	07e6      	lsls	r6, r4, #31
    8f6e:	d50a      	bpl.n	8f86 <_vfiprintf_r+0xafa>
    8f70:	ea53 0001 	orrs.w	r0, r3, r1
    8f74:	d007      	beq.n	8f86 <_vfiprintf_r+0xafa>
    8f76:	f88d 204d 	strb.w	r2, [sp, #77]	@ 0x4d
    8f7a:	f044 0202 	orr.w	r2, r4, #2
    8f7e:	9203      	str	r2, [sp, #12]
    8f80:	2230      	movs	r2, #48	@ 0x30
    8f82:	f88d 204c 	strb.w	r2, [sp, #76]	@ 0x4c
    8f86:	9a03      	ldr	r2, [sp, #12]
    8f88:	f422 6280 	bic.w	r2, r2, #1024	@ 0x400
    8f8c:	9203      	str	r2, [sp, #12]
    8f8e:	e5df      	b.n	8b50 <_vfiprintf_r+0x6c4>
    8f90:	4ba1      	ldr	r3, [pc, #644]	@ (9218 <_vfiprintf_r+0xd8c>)
    8f92:	9406      	str	r4, [sp, #24]
    8f94:	930d      	str	r3, [sp, #52]	@ 0x34
    8f96:	e7db      	b.n	8f50 <_vfiprintf_r+0xac4>
    8f98:	9b0c      	ldr	r3, [sp, #48]	@ 0x30
    8f9a:	681b      	ldr	r3, [r3, #0]
    8f9c:	f88d 30b4 	strb.w	r3, [sp, #180]	@ 0xb4
    8fa0:	2301      	movs	r3, #1
    8fa2:	9304      	str	r3, [sp, #16]
    8fa4:	930a      	str	r3, [sp, #40]	@ 0x28
    8fa6:	ac2d      	add	r4, sp, #180	@ 0xb4
    8fa8:	e4a5      	b.n	88f6 <_vfiprintf_r+0x46a>
    8faa:	f043 0320 	orr.w	r3, r3, #32
    8fae:	7862      	ldrb	r2, [r4, #1]
    8fb0:	9303      	str	r3, [sp, #12]
    8fb2:	3401      	adds	r4, #1
    8fb4:	f7ff bada 	b.w	856c <_vfiprintf_r+0xe0>
    8fb8:	f443 7300 	orr.w	r3, r3, #512	@ 0x200
    8fbc:	7862      	ldrb	r2, [r4, #1]
    8fbe:	9303      	str	r3, [sp, #12]
    8fc0:	3401      	adds	r4, #1
    8fc2:	f7ff bad3 	b.w	856c <_vfiprintf_r+0xe0>
    8fc6:	2208      	movs	r2, #8
    8fc8:	2100      	movs	r1, #0
    8fca:	a818      	add	r0, sp, #96	@ 0x60
    8fcc:	9415      	str	r4, [sp, #84]	@ 0x54
    8fce:	f7fa fc59 	bl	3884 <memset>
    8fd2:	9b05      	ldr	r3, [sp, #20]
    8fd4:	2b00      	cmp	r3, #0
    8fd6:	f2c0 80dc 	blt.w	9192 <_vfiprintf_r+0xd06>
    8fda:	2500      	movs	r5, #0
    8fdc:	f8cd 9010 	str.w	r9, [sp, #16]
    8fe0:	46a8      	mov	r8, r5
    8fe2:	4699      	mov	r9, r3
    8fe4:	e00e      	b.n	9004 <_vfiprintf_r+0xb78>
    8fe6:	a92d      	add	r1, sp, #180	@ 0xb4
    8fe8:	4658      	mov	r0, fp
    8fea:	f7fe fe07 	bl	7bfc <_wcrtomb_r>
    8fee:	1c43      	adds	r3, r0, #1
    8ff0:	4440      	add	r0, r8
    8ff2:	f000 8152 	beq.w	929a <_vfiprintf_r+0xe0e>
    8ff6:	4548      	cmp	r0, r9
    8ff8:	dc09      	bgt.n	900e <_vfiprintf_r+0xb82>
    8ffa:	f105 0504 	add.w	r5, r5, #4
    8ffe:	f000 8154 	beq.w	92aa <_vfiprintf_r+0xe1e>
    9002:	4680      	mov	r8, r0
    9004:	9a15      	ldr	r2, [sp, #84]	@ 0x54
    9006:	5952      	ldr	r2, [r2, r5]
    9008:	ab18      	add	r3, sp, #96	@ 0x60
    900a:	2a00      	cmp	r2, #0
    900c:	d1eb      	bne.n	8fe6 <_vfiprintf_r+0xb5a>
    900e:	f8dd 9010 	ldr.w	r9, [sp, #16]
    9012:	f8cd 8028 	str.w	r8, [sp, #40]	@ 0x28
    9016:	e0c9      	b.n	91ac <_vfiprintf_r+0xd20>
    9018:	980c      	ldr	r0, [sp, #48]	@ 0x30
    901a:	f850 3b04 	ldr.w	r3, [r0], #4
    901e:	900c      	str	r0, [sp, #48]	@ 0x30
    9020:	9803      	ldr	r0, [sp, #12]
    9022:	f010 0010 	ands.w	r0, r0, #16
    9026:	d1a0      	bne.n	8f6a <_vfiprintf_r+0xade>
    9028:	9903      	ldr	r1, [sp, #12]
    902a:	f011 0440 	ands.w	r4, r1, #64	@ 0x40
    902e:	f000 8099 	beq.w	9164 <_vfiprintf_r+0xcd8>
    9032:	b29b      	uxth	r3, r3
    9034:	4601      	mov	r1, r0
    9036:	e798      	b.n	8f6a <_vfiprintf_r+0xade>
    9038:	9a03      	ldr	r2, [sp, #12]
    903a:	f8cd 9010 	str.w	r9, [sp, #16]
    903e:	ac46      	add	r4, sp, #280	@ 0x118
    9040:	f402 6280 	and.w	r2, r2, #1024	@ 0x400
    9044:	46a1      	mov	r9, r4
    9046:	f8cd b028 	str.w	fp, [sp, #40]	@ 0x28
    904a:	4e74      	ldr	r6, [pc, #464]	@ (921c <_vfiprintf_r+0xd90>)
    904c:	f8dd b038 	ldr.w	fp, [sp, #56]	@ 0x38
    9050:	f04f 0c00 	mov.w	ip, #0
    9054:	4614      	mov	r4, r2
    9056:	e005      	b.n	9064 <_vfiprintf_r+0xbd8>
    9058:	2b0a      	cmp	r3, #10
    905a:	f171 0100 	sbcs.w	r1, r1, #0
    905e:	d336      	bcc.n	90ce <_vfiprintf_r+0xc42>
    9060:	4643      	mov	r3, r8
    9062:	4629      	mov	r1, r5
    9064:	185a      	adds	r2, r3, r1
    9066:	f142 0200 	adc.w	r2, r2, #0
    906a:	fba6 0502 	umull	r0, r5, r6, r2
    906e:	f025 0003 	bic.w	r0, r5, #3
    9072:	eb00 0095 	add.w	r0, r0, r5, lsr #2
    9076:	1a12      	subs	r2, r2, r0
    9078:	1a98      	subs	r0, r3, r2
    907a:	f04f 35cc 	mov.w	r5, #3435973836	@ 0xcccccccc
    907e:	f161 0e00 	sbc.w	lr, r1, #0
    9082:	fb05 f500 	mul.w	r5, r5, r0
    9086:	fb06 550e 	mla	r5, r6, lr, r5
    908a:	fba0 8006 	umull	r8, r0, r0, r6
    908e:	4405      	add	r5, r0
    9090:	f008 0e01 	and.w	lr, r8, #1
    9094:	2005      	movs	r0, #5
    9096:	fbae 0e00 	umull	r0, lr, lr, r0
    909a:	1880      	adds	r0, r0, r2
    909c:	ea4f 0858 	mov.w	r8, r8, lsr #1
    90a0:	3030      	adds	r0, #48	@ 0x30
    90a2:	f809 0c01 	strb.w	r0, [r9, #-1]
    90a6:	ea48 78c5 	orr.w	r8, r8, r5, lsl #31
    90aa:	f10c 0c01 	add.w	ip, ip, #1
    90ae:	f109 39ff 	add.w	r9, r9, #4294967295
    90b2:	086d      	lsrs	r5, r5, #1
    90b4:	2c00      	cmp	r4, #0
    90b6:	d0cf      	beq.n	9058 <_vfiprintf_r+0xbcc>
    90b8:	f89b 2000 	ldrb.w	r2, [fp]
    90bc:	4562      	cmp	r2, ip
    90be:	d1cb      	bne.n	9058 <_vfiprintf_r+0xbcc>
    90c0:	f1bc 0fff 	cmp.w	ip, #255	@ 0xff
    90c4:	d0c8      	beq.n	9058 <_vfiprintf_r+0xbcc>
    90c6:	2b0a      	cmp	r3, #10
    90c8:	f171 0100 	sbcs.w	r1, r1, #0
    90cc:	d251      	bcs.n	9172 <_vfiprintf_r+0xce6>
    90ce:	f8cd b038 	str.w	fp, [sp, #56]	@ 0x38
    90d2:	464c      	mov	r4, r9
    90d4:	f8dd b028 	ldr.w	fp, [sp, #40]	@ 0x28
    90d8:	f8dd 9010 	ldr.w	r9, [sp, #16]
    90dc:	e62d      	b.n	8d3a <_vfiprintf_r+0x8ae>
    90de:	9907      	ldr	r1, [sp, #28]
    90e0:	9311      	str	r3, [sp, #68]	@ 0x44
    90e2:	aa1a      	add	r2, sp, #104	@ 0x68
    90e4:	4658      	mov	r0, fp
    90e6:	f000 f945 	bl	9374 <__sprint_r>
    90ea:	2800      	cmp	r0, #0
    90ec:	f47f ab29 	bne.w	8742 <_vfiprintf_r+0x2b6>
    90f0:	e9dd 211b 	ldrd	r2, r1, [sp, #108]	@ 0x6c
    90f4:	9b11      	ldr	r3, [sp, #68]	@ 0x44
    90f6:	f10d 0974 	add.w	r9, sp, #116	@ 0x74
    90fa:	f7ff bb51 	b.w	87a0 <_vfiprintf_r+0x314>
    90fe:	9203      	str	r2, [sp, #12]
    9100:	e4f3      	b.n	8aea <_vfiprintf_r+0x65e>
    9102:	9403      	str	r4, [sp, #12]
    9104:	e55a      	b.n	8bbc <_vfiprintf_r+0x730>
    9106:	4658      	mov	r0, fp
    9108:	f7fa faec 	bl	36e4 <__sinit>
    910c:	f7ff b9d4 	b.w	84b8 <_vfiprintf_r+0x2c>
    9110:	9907      	ldr	r1, [sp, #28]
    9112:	aa1a      	add	r2, sp, #104	@ 0x68
    9114:	4658      	mov	r0, fp
    9116:	f000 f92d 	bl	9374 <__sprint_r>
    911a:	2800      	cmp	r0, #0
    911c:	f47f ab11 	bne.w	8742 <_vfiprintf_r+0x2b6>
    9120:	e9dd 211b 	ldrd	r2, r1, [sp, #108]	@ 0x6c
    9124:	f10d 0974 	add.w	r9, sp, #116	@ 0x74
    9128:	f7ff bb62 	b.w	87f0 <_vfiprintf_r+0x364>
    912c:	9b0c      	ldr	r3, [sp, #48]	@ 0x30
    912e:	9a08      	ldr	r2, [sp, #32]
    9130:	681b      	ldr	r3, [r3, #0]
    9132:	601a      	str	r2, [r3, #0]
    9134:	e528      	b.n	8b88 <_vfiprintf_r+0x6fc>
    9136:	9b05      	ldr	r3, [sp, #20]
    9138:	4c39      	ldr	r4, [pc, #228]	@ (9220 <_vfiprintf_r+0xd94>)
    913a:	960c      	str	r6, [sp, #48]	@ 0x30
    913c:	2b06      	cmp	r3, #6
    913e:	bf28      	it	cs
    9140:	2306      	movcs	r3, #6
    9142:	930a      	str	r3, [sp, #40]	@ 0x28
    9144:	9304      	str	r3, [sp, #16]
    9146:	f7ff bb1c 	b.w	8782 <_vfiprintf_r+0x2f6>
    914a:	f412 7100 	ands.w	r1, r2, #512	@ 0x200
    914e:	bf1c      	itt	ne
    9150:	b2db      	uxtbne	r3, r3
    9152:	4621      	movne	r1, r4
    9154:	e443      	b.n	89de <_vfiprintf_r+0x552>
    9156:	f414 7100 	ands.w	r1, r4, #512	@ 0x200
    915a:	f43f acad 	beq.w	8ab8 <_vfiprintf_r+0x62c>
    915e:	b2db      	uxtb	r3, r3
    9160:	4601      	mov	r1, r0
    9162:	e4a9      	b.n	8ab8 <_vfiprintf_r+0x62c>
    9164:	9903      	ldr	r1, [sp, #12]
    9166:	f411 7100 	ands.w	r1, r1, #512	@ 0x200
    916a:	bf1c      	itt	ne
    916c:	b2db      	uxtbne	r3, r3
    916e:	4621      	movne	r1, r4
    9170:	e6fb      	b.n	8f6a <_vfiprintf_r+0xade>
    9172:	9b10      	ldr	r3, [sp, #64]	@ 0x40
    9174:	990f      	ldr	r1, [sp, #60]	@ 0x3c
    9176:	eba9 0903 	sub.w	r9, r9, r3
    917a:	461a      	mov	r2, r3
    917c:	4648      	mov	r0, r9
    917e:	f7fc ffd3 	bl	6128 <strncpy>
    9182:	f89b 3001 	ldrb.w	r3, [fp, #1]
    9186:	b10b      	cbz	r3, 918c <_vfiprintf_r+0xd00>
    9188:	f10b 0b01 	add.w	fp, fp, #1
    918c:	f04f 0c00 	mov.w	ip, #0
    9190:	e766      	b.n	9060 <_vfiprintf_r+0xbd4>
    9192:	ab18      	add	r3, sp, #96	@ 0x60
    9194:	9300      	str	r3, [sp, #0]
    9196:	2300      	movs	r3, #0
    9198:	4619      	mov	r1, r3
    919a:	aa15      	add	r2, sp, #84	@ 0x54
    919c:	4658      	mov	r0, fp
    919e:	f7fe fd53 	bl	7c48 <_wcsrtombs_r>
    91a2:	4603      	mov	r3, r0
    91a4:	3301      	adds	r3, #1
    91a6:	900a      	str	r0, [sp, #40]	@ 0x28
    91a8:	d077      	beq.n	929a <_vfiprintf_r+0xe0e>
    91aa:	9415      	str	r4, [sp, #84]	@ 0x54
    91ac:	9b0a      	ldr	r3, [sp, #40]	@ 0x28
    91ae:	b1e3      	cbz	r3, 91ea <_vfiprintf_r+0xd5e>
    91b0:	2b63      	cmp	r3, #99	@ 0x63
    91b2:	dc45      	bgt.n	9240 <_vfiprintf_r+0xdb4>
    91b4:	2300      	movs	r3, #0
    91b6:	930b      	str	r3, [sp, #44]	@ 0x2c
    91b8:	ac2d      	add	r4, sp, #180	@ 0xb4
    91ba:	2208      	movs	r2, #8
    91bc:	2100      	movs	r1, #0
    91be:	a818      	add	r0, sp, #96	@ 0x60
    91c0:	f7fa fb60 	bl	3884 <memset>
    91c4:	9d0a      	ldr	r5, [sp, #40]	@ 0x28
    91c6:	ab18      	add	r3, sp, #96	@ 0x60
    91c8:	9300      	str	r3, [sp, #0]
    91ca:	aa15      	add	r2, sp, #84	@ 0x54
    91cc:	462b      	mov	r3, r5
    91ce:	4621      	mov	r1, r4
    91d0:	4658      	mov	r0, fp
    91d2:	f7fe fd39 	bl	7c48 <_wcsrtombs_r>
    91d6:	4285      	cmp	r5, r0
    91d8:	f040 8085 	bne.w	92e6 <_vfiprintf_r+0xe5a>
    91dc:	9a0a      	ldr	r2, [sp, #40]	@ 0x28
    91de:	2300      	movs	r3, #0
    91e0:	54a3      	strb	r3, [r4, r2]
    91e2:	ea22 73e2 	bic.w	r3, r2, r2, asr #31
    91e6:	9304      	str	r3, [sp, #16]
    91e8:	e002      	b.n	91f0 <_vfiprintf_r+0xd64>
    91ea:	9b0a      	ldr	r3, [sp, #40]	@ 0x28
    91ec:	9304      	str	r3, [sp, #16]
    91ee:	930b      	str	r3, [sp, #44]	@ 0x2c
    91f0:	f89d 304b 	ldrb.w	r3, [sp, #75]	@ 0x4b
    91f4:	b11b      	cbz	r3, 91fe <_vfiprintf_r+0xd72>
    91f6:	2300      	movs	r3, #0
    91f8:	960c      	str	r6, [sp, #48]	@ 0x30
    91fa:	9305      	str	r3, [sp, #20]
    91fc:	e4f7      	b.n	8bee <_vfiprintf_r+0x762>
    91fe:	9305      	str	r3, [sp, #20]
    9200:	960c      	str	r6, [sp, #48]	@ 0x30
    9202:	f7ff bac1 	b.w	8788 <_vfiprintf_r+0x2fc>
    9206:	f343 11c0 	sbfx	r1, r3, #7, #1
    920a:	460a      	mov	r2, r1
    920c:	b25b      	sxtb	r3, r3
    920e:	f7ff bb86 	b.w	891e <_vfiprintf_r+0x492>
    9212:	bf00      	nop
    9214:	0000a2e0 	.word	0x0000a2e0
    9218:	0000a2cc 	.word	0x0000a2cc
    921c:	cccccccd 	.word	0xcccccccd
    9220:	0000a2f4 	.word	0x0000a2f4
    9224:	9b0c      	ldr	r3, [sp, #48]	@ 0x30
    9226:	9a08      	ldr	r2, [sp, #32]
    9228:	681b      	ldr	r3, [r3, #0]
    922a:	801a      	strh	r2, [r3, #0]
    922c:	e4ac      	b.n	8b88 <_vfiprintf_r+0x6fc>
    922e:	4620      	mov	r0, r4
    9230:	f7fd f846 	bl	62c0 <strlen>
    9234:	ea20 73e0 	bic.w	r3, r0, r0, asr #31
    9238:	e9cd 050a 	strd	r0, r5, [sp, #40]	@ 0x28
    923c:	9304      	str	r3, [sp, #16]
    923e:	e7d7      	b.n	91f0 <_vfiprintf_r+0xd64>
    9240:	1c59      	adds	r1, r3, #1
    9242:	4658      	mov	r0, fp
    9244:	f7fa fdc2 	bl	3dcc <_malloc_r>
    9248:	4604      	mov	r4, r0
    924a:	b330      	cbz	r0, 929a <_vfiprintf_r+0xe0e>
    924c:	900b      	str	r0, [sp, #44]	@ 0x2c
    924e:	e7b4      	b.n	91ba <_vfiprintf_r+0xd2e>
    9250:	6d88      	ldr	r0, [r1, #88]	@ 0x58
    9252:	f7fa fbf1 	bl	3a38 <__retarget_lock_release_recursive>
    9256:	f7ff ba30 	b.w	86ba <_vfiprintf_r+0x22e>
    925a:	2330      	movs	r3, #48	@ 0x30
    925c:	e4b5      	b.n	8bca <_vfiprintf_r+0x73e>
    925e:	2300      	movs	r3, #0
    9260:	4604      	mov	r4, r0
    9262:	9305      	str	r3, [sp, #20]
    9264:	f7ff b983 	b.w	856e <_vfiprintf_r+0xe2>
    9268:	07d4      	lsls	r4, r2, #31
    926a:	d407      	bmi.n	927c <_vfiprintf_r+0xdf0>
    926c:	9b07      	ldr	r3, [sp, #28]
    926e:	899b      	ldrh	r3, [r3, #12]
    9270:	0598      	lsls	r0, r3, #22
    9272:	d403      	bmi.n	927c <_vfiprintf_r+0xdf0>
    9274:	9b07      	ldr	r3, [sp, #28]
    9276:	6d98      	ldr	r0, [r3, #88]	@ 0x58
    9278:	f7fa fbde 	bl	3a38 <__retarget_lock_release_recursive>
    927c:	f04f 33ff 	mov.w	r3, #4294967295
    9280:	9308      	str	r3, [sp, #32]
    9282:	f7ff ba6e 	b.w	8762 <_vfiprintf_r+0x2d6>
    9286:	9907      	ldr	r1, [sp, #28]
    9288:	aa1a      	add	r2, sp, #104	@ 0x68
    928a:	4658      	mov	r0, fp
    928c:	f000 f872 	bl	9374 <__sprint_r>
    9290:	2800      	cmp	r0, #0
    9292:	f43f aa40 	beq.w	8716 <_vfiprintf_r+0x28a>
    9296:	f7ff ba5a 	b.w	874e <_vfiprintf_r+0x2c2>
    929a:	9a07      	ldr	r2, [sp, #28]
    929c:	f9b2 300c 	ldrsh.w	r3, [r2, #12]
    92a0:	f043 0340 	orr.w	r3, r3, #64	@ 0x40
    92a4:	8193      	strh	r3, [r2, #12]
    92a6:	f7ff ba55 	b.w	8754 <_vfiprintf_r+0x2c8>
    92aa:	e9dd 9304 	ldrd	r9, r3, [sp, #16]
    92ae:	930a      	str	r3, [sp, #40]	@ 0x28
    92b0:	e77c      	b.n	91ac <_vfiprintf_r+0xd20>
    92b2:	9b05      	ldr	r3, [sp, #20]
    92b4:	9304      	str	r3, [sp, #16]
    92b6:	930a      	str	r3, [sp, #40]	@ 0x28
    92b8:	e79a      	b.n	91f0 <_vfiprintf_r+0xd64>
    92ba:	9b0c      	ldr	r3, [sp, #48]	@ 0x30
    92bc:	7862      	ldrb	r2, [r4, #1]
    92be:	f853 1b04 	ldr.w	r1, [r3], #4
    92c2:	930c      	str	r3, [sp, #48]	@ 0x30
    92c4:	ea41 71e1 	orr.w	r1, r1, r1, asr #31
    92c8:	4604      	mov	r4, r0
    92ca:	9105      	str	r1, [sp, #20]
    92cc:	f7ff b94e 	b.w	856c <_vfiprintf_r+0xe0>
    92d0:	9a07      	ldr	r2, [sp, #28]
    92d2:	6e53      	ldr	r3, [r2, #100]	@ 0x64
    92d4:	07db      	lsls	r3, r3, #31
    92d6:	d4d1      	bmi.n	927c <_vfiprintf_r+0xdf0>
    92d8:	8993      	ldrh	r3, [r2, #12]
    92da:	059f      	lsls	r7, r3, #22
    92dc:	d4ce      	bmi.n	927c <_vfiprintf_r+0xdf0>
    92de:	6d90      	ldr	r0, [r2, #88]	@ 0x58
    92e0:	f7fa fbaa 	bl	3a38 <__retarget_lock_release_recursive>
    92e4:	e7ca      	b.n	927c <_vfiprintf_r+0xdf0>
    92e6:	9a07      	ldr	r2, [sp, #28]
    92e8:	8993      	ldrh	r3, [r2, #12]
    92ea:	f043 0340 	orr.w	r3, r3, #64	@ 0x40
    92ee:	8193      	strh	r3, [r2, #12]
    92f0:	f7ff ba27 	b.w	8742 <_vfiprintf_r+0x2b6>

000092f4 <__sbprintf>:
    92f4:	b5f0      	push	{r4, r5, r6, r7, lr}
    92f6:	461f      	mov	r7, r3
    92f8:	898b      	ldrh	r3, [r1, #12]
    92fa:	f2ad 4d6c 	subw	sp, sp, #1132	@ 0x46c
    92fe:	f023 0302 	bic.w	r3, r3, #2
    9302:	f8ad 300c 	strh.w	r3, [sp, #12]
    9306:	ab1a      	add	r3, sp, #104	@ 0x68
    9308:	9300      	str	r3, [sp, #0]
    930a:	9304      	str	r3, [sp, #16]
    930c:	f44f 6380 	mov.w	r3, #1024	@ 0x400
    9310:	9302      	str	r3, [sp, #8]
    9312:	9305      	str	r3, [sp, #20]
    9314:	6e4b      	ldr	r3, [r1, #100]	@ 0x64
    9316:	9319      	str	r3, [sp, #100]	@ 0x64
    9318:	89cb      	ldrh	r3, [r1, #14]
    931a:	f8ad 300e 	strh.w	r3, [sp, #14]
    931e:	69cb      	ldr	r3, [r1, #28]
    9320:	9307      	str	r3, [sp, #28]
    9322:	6a4b      	ldr	r3, [r1, #36]	@ 0x24
    9324:	9309      	str	r3, [sp, #36]	@ 0x24
    9326:	4615      	mov	r5, r2
    9328:	2300      	movs	r3, #0
    932a:	4606      	mov	r6, r0
    932c:	a816      	add	r0, sp, #88	@ 0x58
    932e:	460c      	mov	r4, r1
    9330:	9306      	str	r3, [sp, #24]
    9332:	f7fa fb7b 	bl	3a2c <__retarget_lock_init_recursive>
    9336:	462a      	mov	r2, r5
    9338:	463b      	mov	r3, r7
    933a:	4669      	mov	r1, sp
    933c:	4630      	mov	r0, r6
    933e:	f7ff f8a5 	bl	848c <_vfiprintf_r>
    9342:	1e05      	subs	r5, r0, #0
    9344:	db07      	blt.n	9356 <__sbprintf+0x62>
    9346:	4669      	mov	r1, sp
    9348:	4630      	mov	r0, r6
    934a:	f7fc fec3 	bl	60d4 <_fflush_r>
    934e:	2800      	cmp	r0, #0
    9350:	bf18      	it	ne
    9352:	f04f 35ff 	movne.w	r5, #4294967295
    9356:	f8bd 300c 	ldrh.w	r3, [sp, #12]
    935a:	065b      	lsls	r3, r3, #25
    935c:	d503      	bpl.n	9366 <__sbprintf+0x72>
    935e:	89a3      	ldrh	r3, [r4, #12]
    9360:	f043 0340 	orr.w	r3, r3, #64	@ 0x40
    9364:	81a3      	strh	r3, [r4, #12]
    9366:	9816      	ldr	r0, [sp, #88]	@ 0x58
    9368:	f7fa fb62 	bl	3a30 <__retarget_lock_close_recursive>
    936c:	4628      	mov	r0, r5
    936e:	f20d 4d6c 	addw	sp, sp, #1132	@ 0x46c
    9372:	bdf0      	pop	{r4, r5, r6, r7, pc}

00009374 <__sprint_r>:
    9374:	6893      	ldr	r3, [r2, #8]
    9376:	b510      	push	{r4, lr}
    9378:	4614      	mov	r4, r2
    937a:	b91b      	cbnz	r3, 9384 <__sprint_r+0x10>
    937c:	4618      	mov	r0, r3
    937e:	2300      	movs	r3, #0
    9380:	6063      	str	r3, [r4, #4]
    9382:	bd10      	pop	{r4, pc}
    9384:	f000 f806 	bl	9394 <__sfvwrite_r>
    9388:	2300      	movs	r3, #0
    938a:	60a3      	str	r3, [r4, #8]
    938c:	2300      	movs	r3, #0
    938e:	6063      	str	r3, [r4, #4]
    9390:	bd10      	pop	{r4, pc}
    9392:	bf00      	nop

00009394 <__sfvwrite_r>:
    9394:	6893      	ldr	r3, [r2, #8]
    9396:	2b00      	cmp	r3, #0
    9398:	f000 80f8 	beq.w	958c <__sfvwrite_r+0x1f8>
    939c:	e92d 4ff0 	stmdb	sp!, {r4, r5, r6, r7, r8, r9, sl, fp, lr}
    93a0:	f9b1 c00c 	ldrsh.w	ip, [r1, #12]
    93a4:	f01c 0f08 	tst.w	ip, #8
    93a8:	b083      	sub	sp, #12
    93aa:	4690      	mov	r8, r2
    93ac:	4681      	mov	r9, r0
    93ae:	460c      	mov	r4, r1
    93b0:	d031      	beq.n	9416 <__sfvwrite_r+0x82>
    93b2:	690b      	ldr	r3, [r1, #16]
    93b4:	b37b      	cbz	r3, 9416 <__sfvwrite_r+0x82>
    93b6:	f01c 0702 	ands.w	r7, ip, #2
    93ba:	f8d8 6000 	ldr.w	r6, [r8]
    93be:	d038      	beq.n	9432 <__sfvwrite_r+0x9e>
    93c0:	2700      	movs	r7, #0
    93c2:	f8d4 b024 	ldr.w	fp, [r4, #36]	@ 0x24
    93c6:	69e1      	ldr	r1, [r4, #28]
    93c8:	f8df a2c4 	ldr.w	sl, [pc, #708]	@ 9690 <__sfvwrite_r+0x2fc>
    93cc:	463d      	mov	r5, r7
    93ce:	4555      	cmp	r5, sl
    93d0:	462b      	mov	r3, r5
    93d2:	463a      	mov	r2, r7
    93d4:	bf28      	it	cs
    93d6:	4653      	movcs	r3, sl
    93d8:	4648      	mov	r0, r9
    93da:	b1c5      	cbz	r5, 940e <__sfvwrite_r+0x7a>
    93dc:	47d8      	blx	fp
    93de:	2800      	cmp	r0, #0
    93e0:	f340 80ca 	ble.w	9578 <__sfvwrite_r+0x1e4>
    93e4:	f8d8 3008 	ldr.w	r3, [r8, #8]
    93e8:	1a1b      	subs	r3, r3, r0
    93ea:	4407      	add	r7, r0
    93ec:	1a2d      	subs	r5, r5, r0
    93ee:	f8c8 3008 	str.w	r3, [r8, #8]
    93f2:	2b00      	cmp	r3, #0
    93f4:	f000 80b6 	beq.w	9564 <__sfvwrite_r+0x1d0>
    93f8:	4555      	cmp	r5, sl
    93fa:	462b      	mov	r3, r5
    93fc:	f8d4 b024 	ldr.w	fp, [r4, #36]	@ 0x24
    9400:	69e1      	ldr	r1, [r4, #28]
    9402:	bf28      	it	cs
    9404:	4653      	movcs	r3, sl
    9406:	463a      	mov	r2, r7
    9408:	4648      	mov	r0, r9
    940a:	2d00      	cmp	r5, #0
    940c:	d1e6      	bne.n	93dc <__sfvwrite_r+0x48>
    940e:	e9d6 7500 	ldrd	r7, r5, [r6]
    9412:	3608      	adds	r6, #8
    9414:	e7db      	b.n	93ce <__sfvwrite_r+0x3a>
    9416:	4621      	mov	r1, r4
    9418:	4648      	mov	r0, r9
    941a:	f000 f93b 	bl	9694 <__swsetup_r>
    941e:	2800      	cmp	r0, #0
    9420:	f040 80af 	bne.w	9582 <__sfvwrite_r+0x1ee>
    9424:	f9b4 c00c 	ldrsh.w	ip, [r4, #12]
    9428:	f8d8 6000 	ldr.w	r6, [r8]
    942c:	f01c 0702 	ands.w	r7, ip, #2
    9430:	d1c6      	bne.n	93c0 <__sfvwrite_r+0x2c>
    9432:	f01c 0a01 	ands.w	sl, ip, #1
    9436:	d163      	bne.n	9500 <__sfvwrite_r+0x16c>
    9438:	6823      	ldr	r3, [r4, #0]
    943a:	68a1      	ldr	r1, [r4, #8]
    943c:	4657      	mov	r7, sl
    943e:	4618      	mov	r0, r3
    9440:	468b      	mov	fp, r1
    9442:	2f00      	cmp	r7, #0
    9444:	d058      	beq.n	94f8 <__sfvwrite_r+0x164>
    9446:	f41c 7f00 	tst.w	ip, #512	@ 0x200
    944a:	f000 80b5 	beq.w	95b8 <__sfvwrite_r+0x224>
    944e:	42b9      	cmp	r1, r7
    9450:	460a      	mov	r2, r1
    9452:	f200 80e1 	bhi.w	9618 <__sfvwrite_r+0x284>
    9456:	f41c 6f90 	tst.w	ip, #1152	@ 0x480
    945a:	d02f      	beq.n	94bc <__sfvwrite_r+0x128>
    945c:	6921      	ldr	r1, [r4, #16]
    945e:	6962      	ldr	r2, [r4, #20]
    9460:	1a5d      	subs	r5, r3, r1
    9462:	eb02 0242 	add.w	r2, r2, r2, lsl #1
    9466:	eb02 72d2 	add.w	r2, r2, r2, lsr #31
    946a:	1c6b      	adds	r3, r5, #1
    946c:	1052      	asrs	r2, r2, #1
    946e:	443b      	add	r3, r7
    9470:	4293      	cmp	r3, r2
    9472:	bf92      	itee	ls
    9474:	4693      	movls	fp, r2
    9476:	469b      	movhi	fp, r3
    9478:	461a      	movhi	r2, r3
    947a:	f41c 6f80 	tst.w	ip, #1024	@ 0x400
    947e:	f000 80ea 	beq.w	9656 <__sfvwrite_r+0x2c2>
    9482:	4611      	mov	r1, r2
    9484:	4648      	mov	r0, r9
    9486:	f7fa fca1 	bl	3dcc <_malloc_r>
    948a:	2800      	cmp	r0, #0
    948c:	f000 80f9 	beq.w	9682 <__sfvwrite_r+0x2ee>
    9490:	462a      	mov	r2, r5
    9492:	6921      	ldr	r1, [r4, #16]
    9494:	9000      	str	r0, [sp, #0]
    9496:	f7fe fcc3 	bl	7e20 <memcpy>
    949a:	89a2      	ldrh	r2, [r4, #12]
    949c:	9b00      	ldr	r3, [sp, #0]
    949e:	f422 6290 	bic.w	r2, r2, #1152	@ 0x480
    94a2:	f042 0280 	orr.w	r2, r2, #128	@ 0x80
    94a6:	81a2      	strh	r2, [r4, #12]
    94a8:	1958      	adds	r0, r3, r5
    94aa:	ebab 0505 	sub.w	r5, fp, r5
    94ae:	f8c4 b014 	str.w	fp, [r4, #20]
    94b2:	6123      	str	r3, [r4, #16]
    94b4:	60a5      	str	r5, [r4, #8]
    94b6:	6020      	str	r0, [r4, #0]
    94b8:	46bb      	mov	fp, r7
    94ba:	463a      	mov	r2, r7
    94bc:	4651      	mov	r1, sl
    94be:	9200      	str	r2, [sp, #0]
    94c0:	f7fe fc2e 	bl	7d20 <memmove>
    94c4:	68a1      	ldr	r1, [r4, #8]
    94c6:	6823      	ldr	r3, [r4, #0]
    94c8:	9a00      	ldr	r2, [sp, #0]
    94ca:	eba1 010b 	sub.w	r1, r1, fp
    94ce:	441a      	add	r2, r3
    94d0:	463d      	mov	r5, r7
    94d2:	60a1      	str	r1, [r4, #8]
    94d4:	6022      	str	r2, [r4, #0]
    94d6:	2700      	movs	r7, #0
    94d8:	f8d8 3008 	ldr.w	r3, [r8, #8]
    94dc:	1b5b      	subs	r3, r3, r5
    94de:	44aa      	add	sl, r5
    94e0:	f8c8 3008 	str.w	r3, [r8, #8]
    94e4:	2b00      	cmp	r3, #0
    94e6:	d03d      	beq.n	9564 <__sfvwrite_r+0x1d0>
    94e8:	6823      	ldr	r3, [r4, #0]
    94ea:	68a1      	ldr	r1, [r4, #8]
    94ec:	f9b4 c00c 	ldrsh.w	ip, [r4, #12]
    94f0:	4618      	mov	r0, r3
    94f2:	468b      	mov	fp, r1
    94f4:	2f00      	cmp	r7, #0
    94f6:	d1a6      	bne.n	9446 <__sfvwrite_r+0xb2>
    94f8:	e9d6 a700 	ldrd	sl, r7, [r6]
    94fc:	3608      	adds	r6, #8
    94fe:	e79e      	b.n	943e <__sfvwrite_r+0xaa>
    9500:	4638      	mov	r0, r7
    9502:	46bb      	mov	fp, r7
    9504:	463d      	mov	r5, r7
    9506:	9700      	str	r7, [sp, #0]
    9508:	2d00      	cmp	r5, #0
    950a:	d041      	beq.n	9590 <__sfvwrite_r+0x1fc>
    950c:	2800      	cmp	r0, #0
    950e:	d046      	beq.n	959e <__sfvwrite_r+0x20a>
    9510:	9a00      	ldr	r2, [sp, #0]
    9512:	6820      	ldr	r0, [r4, #0]
    9514:	68a1      	ldr	r1, [r4, #8]
    9516:	e9d4 7304 	ldrd	r7, r3, [r4, #16]
    951a:	42aa      	cmp	r2, r5
    951c:	bf28      	it	cs
    951e:	462a      	movcs	r2, r5
    9520:	42b8      	cmp	r0, r7
    9522:	d904      	bls.n	952e <__sfvwrite_r+0x19a>
    9524:	eb01 0a03 	add.w	sl, r1, r3
    9528:	4552      	cmp	r2, sl
    952a:	f300 8085 	bgt.w	9638 <__sfvwrite_r+0x2a4>
    952e:	4293      	cmp	r3, r2
    9530:	dc75      	bgt.n	961e <__sfvwrite_r+0x28a>
    9532:	69e1      	ldr	r1, [r4, #28]
    9534:	6a67      	ldr	r7, [r4, #36]	@ 0x24
    9536:	465a      	mov	r2, fp
    9538:	4648      	mov	r0, r9
    953a:	47b8      	blx	r7
    953c:	f1b0 0a00 	subs.w	sl, r0, #0
    9540:	dd1a      	ble.n	9578 <__sfvwrite_r+0x1e4>
    9542:	9b00      	ldr	r3, [sp, #0]
    9544:	ebb3 030a 	subs.w	r3, r3, sl
    9548:	9300      	str	r3, [sp, #0]
    954a:	d00f      	beq.n	956c <__sfvwrite_r+0x1d8>
    954c:	2001      	movs	r0, #1
    954e:	f8d8 3008 	ldr.w	r3, [r8, #8]
    9552:	eba3 030a 	sub.w	r3, r3, sl
    9556:	44d3      	add	fp, sl
    9558:	eba5 050a 	sub.w	r5, r5, sl
    955c:	f8c8 3008 	str.w	r3, [r8, #8]
    9560:	2b00      	cmp	r3, #0
    9562:	d1d1      	bne.n	9508 <__sfvwrite_r+0x174>
    9564:	2000      	movs	r0, #0
    9566:	b003      	add	sp, #12
    9568:	e8bd 8ff0 	ldmia.w	sp!, {r4, r5, r6, r7, r8, r9, sl, fp, pc}
    956c:	4621      	mov	r1, r4
    956e:	4648      	mov	r0, r9
    9570:	f7fc fdb0 	bl	60d4 <_fflush_r>
    9574:	2800      	cmp	r0, #0
    9576:	d0ea      	beq.n	954e <__sfvwrite_r+0x1ba>
    9578:	f9b4 300c 	ldrsh.w	r3, [r4, #12]
    957c:	f043 0340 	orr.w	r3, r3, #64	@ 0x40
    9580:	81a3      	strh	r3, [r4, #12]
    9582:	f04f 30ff 	mov.w	r0, #4294967295
    9586:	b003      	add	sp, #12
    9588:	e8bd 8ff0 	ldmia.w	sp!, {r4, r5, r6, r7, r8, r9, sl, fp, pc}
    958c:	2000      	movs	r0, #0
    958e:	4770      	bx	lr
    9590:	6875      	ldr	r5, [r6, #4]
    9592:	4633      	mov	r3, r6
    9594:	3608      	adds	r6, #8
    9596:	2d00      	cmp	r5, #0
    9598:	d0fa      	beq.n	9590 <__sfvwrite_r+0x1fc>
    959a:	f8d3 b000 	ldr.w	fp, [r3]
    959e:	462a      	mov	r2, r5
    95a0:	210a      	movs	r1, #10
    95a2:	4658      	mov	r0, fp
    95a4:	f7fc fe34 	bl	6210 <memchr>
    95a8:	2800      	cmp	r0, #0
    95aa:	d067      	beq.n	967c <__sfvwrite_r+0x2e8>
    95ac:	3001      	adds	r0, #1
    95ae:	eba0 030b 	sub.w	r3, r0, fp
    95b2:	9300      	str	r3, [sp, #0]
    95b4:	461a      	mov	r2, r3
    95b6:	e7ac      	b.n	9512 <__sfvwrite_r+0x17e>
    95b8:	6922      	ldr	r2, [r4, #16]
    95ba:	429a      	cmp	r2, r3
    95bc:	d314      	bcc.n	95e8 <__sfvwrite_r+0x254>
    95be:	6962      	ldr	r2, [r4, #20]
    95c0:	42ba      	cmp	r2, r7
    95c2:	d811      	bhi.n	95e8 <__sfvwrite_r+0x254>
    95c4:	f06f 4300 	mvn.w	r3, #2147483648	@ 0x80000000
    95c8:	42bb      	cmp	r3, r7
    95ca:	bf28      	it	cs
    95cc:	463b      	movcs	r3, r7
    95ce:	6a65      	ldr	r5, [r4, #36]	@ 0x24
    95d0:	fb93 f3f2 	sdiv	r3, r3, r2
    95d4:	69e1      	ldr	r1, [r4, #28]
    95d6:	fb02 f303 	mul.w	r3, r2, r3
    95da:	4648      	mov	r0, r9
    95dc:	4652      	mov	r2, sl
    95de:	47a8      	blx	r5
    95e0:	1e05      	subs	r5, r0, #0
    95e2:	ddc9      	ble.n	9578 <__sfvwrite_r+0x1e4>
    95e4:	1b7f      	subs	r7, r7, r5
    95e6:	e777      	b.n	94d8 <__sfvwrite_r+0x144>
    95e8:	42b9      	cmp	r1, r7
    95ea:	bf28      	it	cs
    95ec:	4639      	movcs	r1, r7
    95ee:	460d      	mov	r5, r1
    95f0:	4618      	mov	r0, r3
    95f2:	460a      	mov	r2, r1
    95f4:	4651      	mov	r1, sl
    95f6:	f7fe fb93 	bl	7d20 <memmove>
    95fa:	68a1      	ldr	r1, [r4, #8]
    95fc:	6823      	ldr	r3, [r4, #0]
    95fe:	1b49      	subs	r1, r1, r5
    9600:	442b      	add	r3, r5
    9602:	60a1      	str	r1, [r4, #8]
    9604:	6023      	str	r3, [r4, #0]
    9606:	2900      	cmp	r1, #0
    9608:	d1ec      	bne.n	95e4 <__sfvwrite_r+0x250>
    960a:	4621      	mov	r1, r4
    960c:	4648      	mov	r0, r9
    960e:	f7fc fd61 	bl	60d4 <_fflush_r>
    9612:	2800      	cmp	r0, #0
    9614:	d0e6      	beq.n	95e4 <__sfvwrite_r+0x250>
    9616:	e7af      	b.n	9578 <__sfvwrite_r+0x1e4>
    9618:	46bb      	mov	fp, r7
    961a:	463a      	mov	r2, r7
    961c:	e74e      	b.n	94bc <__sfvwrite_r+0x128>
    961e:	4659      	mov	r1, fp
    9620:	9201      	str	r2, [sp, #4]
    9622:	f7fe fb7d 	bl	7d20 <memmove>
    9626:	9a01      	ldr	r2, [sp, #4]
    9628:	68a3      	ldr	r3, [r4, #8]
    962a:	1a9b      	subs	r3, r3, r2
    962c:	60a3      	str	r3, [r4, #8]
    962e:	6823      	ldr	r3, [r4, #0]
    9630:	4413      	add	r3, r2
    9632:	6023      	str	r3, [r4, #0]
    9634:	4692      	mov	sl, r2
    9636:	e784      	b.n	9542 <__sfvwrite_r+0x1ae>
    9638:	4659      	mov	r1, fp
    963a:	4652      	mov	r2, sl
    963c:	f7fe fb70 	bl	7d20 <memmove>
    9640:	6823      	ldr	r3, [r4, #0]
    9642:	4453      	add	r3, sl
    9644:	6023      	str	r3, [r4, #0]
    9646:	4621      	mov	r1, r4
    9648:	4648      	mov	r0, r9
    964a:	f7fc fd43 	bl	60d4 <_fflush_r>
    964e:	2800      	cmp	r0, #0
    9650:	f43f af77 	beq.w	9542 <__sfvwrite_r+0x1ae>
    9654:	e790      	b.n	9578 <__sfvwrite_r+0x1e4>
    9656:	4648      	mov	r0, r9
    9658:	f7fe fcd2 	bl	8000 <_realloc_r>
    965c:	4603      	mov	r3, r0
    965e:	2800      	cmp	r0, #0
    9660:	f47f af22 	bne.w	94a8 <__sfvwrite_r+0x114>
    9664:	6921      	ldr	r1, [r4, #16]
    9666:	4648      	mov	r0, r9
    9668:	f7fa fab4 	bl	3bd4 <_free_r>
    966c:	f9b4 300c 	ldrsh.w	r3, [r4, #12]
    9670:	220c      	movs	r2, #12
    9672:	f8c9 2000 	str.w	r2, [r9]
    9676:	f023 0380 	bic.w	r3, r3, #128	@ 0x80
    967a:	e77f      	b.n	957c <__sfvwrite_r+0x1e8>
    967c:	1c6a      	adds	r2, r5, #1
    967e:	9200      	str	r2, [sp, #0]
    9680:	e747      	b.n	9512 <__sfvwrite_r+0x17e>
    9682:	220c      	movs	r2, #12
    9684:	f9b4 300c 	ldrsh.w	r3, [r4, #12]
    9688:	f8c9 2000 	str.w	r2, [r9]
    968c:	e776      	b.n	957c <__sfvwrite_r+0x1e8>
    968e:	bf00      	nop
    9690:	7ffffc00 	.word	0x7ffffc00

00009694 <__swsetup_r>:
    9694:	b538      	push	{r3, r4, r5, lr}
    9696:	4b2f      	ldr	r3, [pc, #188]	@ (9754 <__swsetup_r+0xc0>)
    9698:	681b      	ldr	r3, [r3, #0]
    969a:	4605      	mov	r5, r0
    969c:	460c      	mov	r4, r1
    969e:	b113      	cbz	r3, 96a6 <__swsetup_r+0x12>
    96a0:	6b5a      	ldr	r2, [r3, #52]	@ 0x34
    96a2:	2a00      	cmp	r2, #0
    96a4:	d04b      	beq.n	973e <__swsetup_r+0xaa>
    96a6:	f9b4 300c 	ldrsh.w	r3, [r4, #12]
    96aa:	0718      	lsls	r0, r3, #28
    96ac:	d51c      	bpl.n	96e8 <__swsetup_r+0x54>
    96ae:	6922      	ldr	r2, [r4, #16]
    96b0:	b322      	cbz	r2, 96fc <__swsetup_r+0x68>
    96b2:	f013 0101 	ands.w	r1, r3, #1
    96b6:	d007      	beq.n	96c8 <__swsetup_r+0x34>
    96b8:	6961      	ldr	r1, [r4, #20]
    96ba:	2000      	movs	r0, #0
    96bc:	4249      	negs	r1, r1
    96be:	60a0      	str	r0, [r4, #8]
    96c0:	61a1      	str	r1, [r4, #24]
    96c2:	b13a      	cbz	r2, 96d4 <__swsetup_r+0x40>
    96c4:	2000      	movs	r0, #0
    96c6:	bd38      	pop	{r3, r4, r5, pc}
    96c8:	0798      	lsls	r0, r3, #30
    96ca:	bf58      	it	pl
    96cc:	6961      	ldrpl	r1, [r4, #20]
    96ce:	60a1      	str	r1, [r4, #8]
    96d0:	2a00      	cmp	r2, #0
    96d2:	d1f7      	bne.n	96c4 <__swsetup_r+0x30>
    96d4:	0619      	lsls	r1, r3, #24
    96d6:	bf58      	it	pl
    96d8:	4610      	movpl	r0, r2
    96da:	d5f4      	bpl.n	96c6 <__swsetup_r+0x32>
    96dc:	f043 0340 	orr.w	r3, r3, #64	@ 0x40
    96e0:	81a3      	strh	r3, [r4, #12]
    96e2:	f04f 30ff 	mov.w	r0, #4294967295
    96e6:	bd38      	pop	{r3, r4, r5, pc}
    96e8:	06d9      	lsls	r1, r3, #27
    96ea:	d52c      	bpl.n	9746 <__swsetup_r+0xb2>
    96ec:	075a      	lsls	r2, r3, #29
    96ee:	d412      	bmi.n	9716 <__swsetup_r+0x82>
    96f0:	6922      	ldr	r2, [r4, #16]
    96f2:	f043 0308 	orr.w	r3, r3, #8
    96f6:	81a3      	strh	r3, [r4, #12]
    96f8:	2a00      	cmp	r2, #0
    96fa:	d1da      	bne.n	96b2 <__swsetup_r+0x1e>
    96fc:	f403 7120 	and.w	r1, r3, #640	@ 0x280
    9700:	f5b1 7f00 	cmp.w	r1, #512	@ 0x200
    9704:	d0d5      	beq.n	96b2 <__swsetup_r+0x1e>
    9706:	4621      	mov	r1, r4
    9708:	4628      	mov	r0, r5
    970a:	f000 f82d 	bl	9768 <__smakebuf_r>
    970e:	f9b4 300c 	ldrsh.w	r3, [r4, #12]
    9712:	6922      	ldr	r2, [r4, #16]
    9714:	e7cd      	b.n	96b2 <__swsetup_r+0x1e>
    9716:	6b21      	ldr	r1, [r4, #48]	@ 0x30
    9718:	b151      	cbz	r1, 9730 <__swsetup_r+0x9c>
    971a:	f104 0240 	add.w	r2, r4, #64	@ 0x40
    971e:	4291      	cmp	r1, r2
    9720:	d004      	beq.n	972c <__swsetup_r+0x98>
    9722:	4628      	mov	r0, r5
    9724:	f7fa fa56 	bl	3bd4 <_free_r>
    9728:	f9b4 300c 	ldrsh.w	r3, [r4, #12]
    972c:	2200      	movs	r2, #0
    972e:	6322      	str	r2, [r4, #48]	@ 0x30
    9730:	6922      	ldr	r2, [r4, #16]
    9732:	2100      	movs	r1, #0
    9734:	e9c4 2100 	strd	r2, r1, [r4]
    9738:	f023 0324 	bic.w	r3, r3, #36	@ 0x24
    973c:	e7d9      	b.n	96f2 <__swsetup_r+0x5e>
    973e:	4618      	mov	r0, r3
    9740:	f7f9 ffd0 	bl	36e4 <__sinit>
    9744:	e7af      	b.n	96a6 <__swsetup_r+0x12>
    9746:	2209      	movs	r2, #9
    9748:	f043 0340 	orr.w	r3, r3, #64	@ 0x40
    974c:	602a      	str	r2, [r5, #0]
    974e:	81a3      	strh	r3, [r4, #12]
    9750:	e7c7      	b.n	96e2 <__swsetup_r+0x4e>
    9752:	bf00      	nop
    9754:	1ffd0088 	.word	0x1ffd0088

00009758 <abort>:
    9758:	b508      	push	{r3, lr}
    975a:	2006      	movs	r0, #6
    975c:	f000 f872 	bl	9844 <raise>
    9760:	2001      	movs	r0, #1
    9762:	f000 f8e9 	bl	9938 <_exit>
    9766:	bf00      	nop

00009768 <__smakebuf_r>:
    9768:	e92d 41f0 	stmdb	sp!, {r4, r5, r6, r7, r8, lr}
    976c:	f9b1 300c 	ldrsh.w	r3, [r1, #12]
    9770:	460c      	mov	r4, r1
    9772:	0799      	lsls	r1, r3, #30
    9774:	b096      	sub	sp, #88	@ 0x58
    9776:	d508      	bpl.n	978a <__smakebuf_r+0x22>
    9778:	f104 0343 	add.w	r3, r4, #67	@ 0x43
    977c:	2201      	movs	r2, #1
    977e:	e9c4 3204 	strd	r3, r2, [r4, #16]
    9782:	6023      	str	r3, [r4, #0]
    9784:	b016      	add	sp, #88	@ 0x58
    9786:	e8bd 81f0 	ldmia.w	sp!, {r4, r5, r6, r7, r8, pc}
    978a:	f9b4 100e 	ldrsh.w	r1, [r4, #14]
    978e:	2900      	cmp	r1, #0
    9790:	4606      	mov	r6, r0
    9792:	db26      	blt.n	97e2 <__smakebuf_r+0x7a>
    9794:	466a      	mov	r2, sp
    9796:	f000 f881 	bl	989c <_fstat_r>
    979a:	2800      	cmp	r0, #0
    979c:	db1f      	blt.n	97de <__smakebuf_r+0x76>
    979e:	9d01      	ldr	r5, [sp, #4]
    97a0:	f405 4570 	and.w	r5, r5, #61440	@ 0xf000
    97a4:	f5a5 5500 	sub.w	r5, r5, #8192	@ 0x2000
    97a8:	fab5 f585 	clz	r5, r5
    97ac:	f44f 6880 	mov.w	r8, #1024	@ 0x400
    97b0:	096d      	lsrs	r5, r5, #5
    97b2:	f44f 6700 	mov.w	r7, #2048	@ 0x800
    97b6:	4641      	mov	r1, r8
    97b8:	4630      	mov	r0, r6
    97ba:	f7fa fb07 	bl	3dcc <_malloc_r>
    97be:	b1e8      	cbz	r0, 97fc <__smakebuf_r+0x94>
    97c0:	f9b4 300c 	ldrsh.w	r3, [r4, #12]
    97c4:	f8c4 8014 	str.w	r8, [r4, #20]
    97c8:	f043 0380 	orr.w	r3, r3, #128	@ 0x80
    97cc:	6020      	str	r0, [r4, #0]
    97ce:	6120      	str	r0, [r4, #16]
    97d0:	81a3      	strh	r3, [r4, #12]
    97d2:	bb3d      	cbnz	r5, 9824 <__smakebuf_r+0xbc>
    97d4:	433b      	orrs	r3, r7
    97d6:	81a3      	strh	r3, [r4, #12]
    97d8:	b016      	add	sp, #88	@ 0x58
    97da:	e8bd 81f0 	ldmia.w	sp!, {r4, r5, r6, r7, r8, pc}
    97de:	f9b4 300c 	ldrsh.w	r3, [r4, #12]
    97e2:	f013 0580 	ands.w	r5, r3, #128	@ 0x80
    97e6:	d019      	beq.n	981c <__smakebuf_r+0xb4>
    97e8:	f04f 0840 	mov.w	r8, #64	@ 0x40
    97ec:	2500      	movs	r5, #0
    97ee:	4641      	mov	r1, r8
    97f0:	4630      	mov	r0, r6
    97f2:	462f      	mov	r7, r5
    97f4:	f7fa faea 	bl	3dcc <_malloc_r>
    97f8:	2800      	cmp	r0, #0
    97fa:	d1e1      	bne.n	97c0 <__smakebuf_r+0x58>
    97fc:	f9b4 300c 	ldrsh.w	r3, [r4, #12]
    9800:	059a      	lsls	r2, r3, #22
    9802:	d4bf      	bmi.n	9784 <__smakebuf_r+0x1c>
    9804:	f023 0303 	bic.w	r3, r3, #3
    9808:	f104 0243 	add.w	r2, r4, #67	@ 0x43
    980c:	f043 0302 	orr.w	r3, r3, #2
    9810:	2101      	movs	r1, #1
    9812:	e9c4 2104 	strd	r2, r1, [r4, #16]
    9816:	81a3      	strh	r3, [r4, #12]
    9818:	6022      	str	r2, [r4, #0]
    981a:	e7b3      	b.n	9784 <__smakebuf_r+0x1c>
    981c:	f44f 6880 	mov.w	r8, #1024	@ 0x400
    9820:	462f      	mov	r7, r5
    9822:	e7c8      	b.n	97b6 <__smakebuf_r+0x4e>
    9824:	f9b4 100e 	ldrsh.w	r1, [r4, #14]
    9828:	4630      	mov	r0, r6
    982a:	f000 f84d 	bl	98c8 <_isatty_r>
    982e:	b910      	cbnz	r0, 9836 <__smakebuf_r+0xce>
    9830:	f9b4 300c 	ldrsh.w	r3, [r4, #12]
    9834:	e7ce      	b.n	97d4 <__smakebuf_r+0x6c>
    9836:	89a3      	ldrh	r3, [r4, #12]
    9838:	f023 0303 	bic.w	r3, r3, #3
    983c:	f043 0301 	orr.w	r3, r3, #1
    9840:	b21b      	sxth	r3, r3
    9842:	e7c7      	b.n	97d4 <__smakebuf_r+0x6c>

00009844 <raise>:
    9844:	b538      	push	{r3, r4, r5, lr}
    9846:	4b14      	ldr	r3, [pc, #80]	@ (9898 <raise+0x54>)
    9848:	281f      	cmp	r0, #31
    984a:	681d      	ldr	r5, [r3, #0]
    984c:	d81e      	bhi.n	988c <raise+0x48>
    984e:	f8d5 2138 	ldr.w	r2, [r5, #312]	@ 0x138
    9852:	4604      	mov	r4, r0
    9854:	b162      	cbz	r2, 9870 <raise+0x2c>
    9856:	f852 3020 	ldr.w	r3, [r2, r0, lsl #2]
    985a:	b14b      	cbz	r3, 9870 <raise+0x2c>
    985c:	2b01      	cmp	r3, #1
    985e:	d005      	beq.n	986c <raise+0x28>
    9860:	1c59      	adds	r1, r3, #1
    9862:	d00f      	beq.n	9884 <raise+0x40>
    9864:	2100      	movs	r1, #0
    9866:	f842 1020 	str.w	r1, [r2, r0, lsl #2]
    986a:	4798      	blx	r3
    986c:	2000      	movs	r0, #0
    986e:	bd38      	pop	{r3, r4, r5, pc}
    9870:	4628      	mov	r0, r5
    9872:	f000 f851 	bl	9918 <_getpid_r>
    9876:	4622      	mov	r2, r4
    9878:	4601      	mov	r1, r0
    987a:	4628      	mov	r0, r5
    987c:	e8bd 4038 	ldmia.w	sp!, {r3, r4, r5, lr}
    9880:	f000 b834 	b.w	98ec <_kill_r>
    9884:	2316      	movs	r3, #22
    9886:	602b      	str	r3, [r5, #0]
    9888:	2001      	movs	r0, #1
    988a:	bd38      	pop	{r3, r4, r5, pc}
    988c:	2316      	movs	r3, #22
    988e:	602b      	str	r3, [r5, #0]
    9890:	f04f 30ff 	mov.w	r0, #4294967295
    9894:	bd38      	pop	{r3, r4, r5, pc}
    9896:	bf00      	nop
    9898:	1ffd0088 	.word	0x1ffd0088

0000989c <_fstat_r>:
    989c:	b570      	push	{r4, r5, r6, lr}
    989e:	460c      	mov	r4, r1
    98a0:	4d08      	ldr	r5, [pc, #32]	@ (98c4 <_fstat_r+0x28>)
    98a2:	4603      	mov	r3, r0
    98a4:	2600      	movs	r6, #0
    98a6:	4620      	mov	r0, r4
    98a8:	4611      	mov	r1, r2
    98aa:	461c      	mov	r4, r3
    98ac:	602e      	str	r6, [r5, #0]
    98ae:	f7f8 fe1d 	bl	24ec <_fstat>
    98b2:	1c43      	adds	r3, r0, #1
    98b4:	d000      	beq.n	98b8 <_fstat_r+0x1c>
    98b6:	bd70      	pop	{r4, r5, r6, pc}
    98b8:	682b      	ldr	r3, [r5, #0]
    98ba:	2b00      	cmp	r3, #0
    98bc:	d0fb      	beq.n	98b6 <_fstat_r+0x1a>
    98be:	6023      	str	r3, [r4, #0]
    98c0:	bd70      	pop	{r4, r5, r6, pc}
    98c2:	bf00      	nop
    98c4:	1ffd3128 	.word	0x1ffd3128

000098c8 <_isatty_r>:
    98c8:	b538      	push	{r3, r4, r5, lr}
    98ca:	4d07      	ldr	r5, [pc, #28]	@ (98e8 <_isatty_r+0x20>)
    98cc:	2200      	movs	r2, #0
    98ce:	4604      	mov	r4, r0
    98d0:	4608      	mov	r0, r1
    98d2:	602a      	str	r2, [r5, #0]
    98d4:	f7f8 fe22 	bl	251c <_isatty>
    98d8:	1c43      	adds	r3, r0, #1
    98da:	d000      	beq.n	98de <_isatty_r+0x16>
    98dc:	bd38      	pop	{r3, r4, r5, pc}
    98de:	682b      	ldr	r3, [r5, #0]
    98e0:	2b00      	cmp	r3, #0
    98e2:	d0fb      	beq.n	98dc <_isatty_r+0x14>
    98e4:	6023      	str	r3, [r4, #0]
    98e6:	bd38      	pop	{r3, r4, r5, pc}
    98e8:	1ffd3128 	.word	0x1ffd3128

000098ec <_kill_r>:
    98ec:	b570      	push	{r4, r5, r6, lr}
    98ee:	460c      	mov	r4, r1
    98f0:	4d08      	ldr	r5, [pc, #32]	@ (9914 <_kill_r+0x28>)
    98f2:	4603      	mov	r3, r0
    98f4:	2600      	movs	r6, #0
    98f6:	4620      	mov	r0, r4
    98f8:	4611      	mov	r1, r2
    98fa:	461c      	mov	r4, r3
    98fc:	602e      	str	r6, [r5, #0]
    98fe:	f7f8 fe18 	bl	2532 <_kill>
    9902:	1c43      	adds	r3, r0, #1
    9904:	d000      	beq.n	9908 <_kill_r+0x1c>
    9906:	bd70      	pop	{r4, r5, r6, pc}
    9908:	682b      	ldr	r3, [r5, #0]
    990a:	2b00      	cmp	r3, #0
    990c:	d0fb      	beq.n	9906 <_kill_r+0x1a>
    990e:	6023      	str	r3, [r4, #0]
    9910:	bd70      	pop	{r4, r5, r6, pc}
    9912:	bf00      	nop
    9914:	1ffd3128 	.word	0x1ffd3128

00009918 <_getpid_r>:
    9918:	f7f8 bdf8 	b.w	250c <_getpid>

0000991c <_sbrk>:
    991c:	4a04      	ldr	r2, [pc, #16]	@ (9930 <_sbrk+0x14>)
    991e:	4905      	ldr	r1, [pc, #20]	@ (9934 <_sbrk+0x18>)
    9920:	6813      	ldr	r3, [r2, #0]
    9922:	2b00      	cmp	r3, #0
    9924:	bf08      	it	eq
    9926:	460b      	moveq	r3, r1
    9928:	4418      	add	r0, r3
    992a:	6010      	str	r0, [r2, #0]
    992c:	4618      	mov	r0, r3
    992e:	4770      	bx	lr
    9930:	1ffd3300 	.word	0x1ffd3300
    9934:	1ffd3308 	.word	0x1ffd3308

00009938 <_exit>:
    9938:	e7fe      	b.n	9938 <_exit>
    993a:	bf00      	nop

0000993c <__aeabi_drsub>:
    993c:	f081 4100 	eor.w	r1, r1, #2147483648	@ 0x80000000
    9940:	e002      	b.n	9948 <__adddf3>
    9942:	bf00      	nop

00009944 <__aeabi_dsub>:
    9944:	f083 4300 	eor.w	r3, r3, #2147483648	@ 0x80000000

00009948 <__adddf3>:
    9948:	b530      	push	{r4, r5, lr}
    994a:	ea4f 0441 	mov.w	r4, r1, lsl #1
    994e:	ea4f 0543 	mov.w	r5, r3, lsl #1
    9952:	ea94 0f05 	teq	r4, r5
    9956:	bf08      	it	eq
    9958:	ea90 0f02 	teqeq	r0, r2
    995c:	bf1f      	itttt	ne
    995e:	ea54 0c00 	orrsne.w	ip, r4, r0
    9962:	ea55 0c02 	orrsne.w	ip, r5, r2
    9966:	ea7f 5c64 	mvnsne.w	ip, r4, asr #21
    996a:	ea7f 5c65 	mvnsne.w	ip, r5, asr #21
    996e:	f000 80e2 	beq.w	9b36 <__adddf3+0x1ee>
    9972:	ea4f 5454 	mov.w	r4, r4, lsr #21
    9976:	ebd4 5555 	rsbs	r5, r4, r5, lsr #21
    997a:	bfb8      	it	lt
    997c:	426d      	neglt	r5, r5
    997e:	dd0c      	ble.n	999a <__adddf3+0x52>
    9980:	442c      	add	r4, r5
    9982:	ea80 0202 	eor.w	r2, r0, r2
    9986:	ea81 0303 	eor.w	r3, r1, r3
    998a:	ea82 0000 	eor.w	r0, r2, r0
    998e:	ea83 0101 	eor.w	r1, r3, r1
    9992:	ea80 0202 	eor.w	r2, r0, r2
    9996:	ea81 0303 	eor.w	r3, r1, r3
    999a:	2d36      	cmp	r5, #54	@ 0x36
    999c:	bf88      	it	hi
    999e:	bd30      	pophi	{r4, r5, pc}
    99a0:	f011 4f00 	tst.w	r1, #2147483648	@ 0x80000000
    99a4:	ea4f 3101 	mov.w	r1, r1, lsl #12
    99a8:	f44f 1c80 	mov.w	ip, #1048576	@ 0x100000
    99ac:	ea4c 3111 	orr.w	r1, ip, r1, lsr #12
    99b0:	d002      	beq.n	99b8 <__adddf3+0x70>
    99b2:	4240      	negs	r0, r0
    99b4:	eb61 0141 	sbc.w	r1, r1, r1, lsl #1
    99b8:	f013 4f00 	tst.w	r3, #2147483648	@ 0x80000000
    99bc:	ea4f 3303 	mov.w	r3, r3, lsl #12
    99c0:	ea4c 3313 	orr.w	r3, ip, r3, lsr #12
    99c4:	d002      	beq.n	99cc <__adddf3+0x84>
    99c6:	4252      	negs	r2, r2
    99c8:	eb63 0343 	sbc.w	r3, r3, r3, lsl #1
    99cc:	ea94 0f05 	teq	r4, r5
    99d0:	f000 80a7 	beq.w	9b22 <__adddf3+0x1da>
    99d4:	f1a4 0401 	sub.w	r4, r4, #1
    99d8:	f1d5 0e20 	rsbs	lr, r5, #32
    99dc:	db0d      	blt.n	99fa <__adddf3+0xb2>
    99de:	fa02 fc0e 	lsl.w	ip, r2, lr
    99e2:	fa22 f205 	lsr.w	r2, r2, r5
    99e6:	1880      	adds	r0, r0, r2
    99e8:	f141 0100 	adc.w	r1, r1, #0
    99ec:	fa03 f20e 	lsl.w	r2, r3, lr
    99f0:	1880      	adds	r0, r0, r2
    99f2:	fa43 f305 	asr.w	r3, r3, r5
    99f6:	4159      	adcs	r1, r3
    99f8:	e00e      	b.n	9a18 <__adddf3+0xd0>
    99fa:	f1a5 0520 	sub.w	r5, r5, #32
    99fe:	f10e 0e20 	add.w	lr, lr, #32
    9a02:	2a01      	cmp	r2, #1
    9a04:	fa03 fc0e 	lsl.w	ip, r3, lr
    9a08:	bf28      	it	cs
    9a0a:	f04c 0c02 	orrcs.w	ip, ip, #2
    9a0e:	fa43 f305 	asr.w	r3, r3, r5
    9a12:	18c0      	adds	r0, r0, r3
    9a14:	eb51 71e3 	adcs.w	r1, r1, r3, asr #31
    9a18:	f001 4500 	and.w	r5, r1, #2147483648	@ 0x80000000
    9a1c:	d507      	bpl.n	9a2e <__adddf3+0xe6>
    9a1e:	f04f 0e00 	mov.w	lr, #0
    9a22:	f1dc 0c00 	rsbs	ip, ip, #0
    9a26:	eb7e 0000 	sbcs.w	r0, lr, r0
    9a2a:	eb6e 0101 	sbc.w	r1, lr, r1
    9a2e:	f5b1 1f80 	cmp.w	r1, #1048576	@ 0x100000
    9a32:	d31b      	bcc.n	9a6c <__adddf3+0x124>
    9a34:	f5b1 1f00 	cmp.w	r1, #2097152	@ 0x200000
    9a38:	d30c      	bcc.n	9a54 <__adddf3+0x10c>
    9a3a:	0849      	lsrs	r1, r1, #1
    9a3c:	ea5f 0030 	movs.w	r0, r0, rrx
    9a40:	ea4f 0c3c 	mov.w	ip, ip, rrx
    9a44:	f104 0401 	add.w	r4, r4, #1
    9a48:	ea4f 5244 	mov.w	r2, r4, lsl #21
    9a4c:	f512 0f80 	cmn.w	r2, #4194304	@ 0x400000
    9a50:	f080 809a 	bcs.w	9b88 <__adddf3+0x240>
    9a54:	f1bc 4f00 	cmp.w	ip, #2147483648	@ 0x80000000
    9a58:	bf08      	it	eq
    9a5a:	ea5f 0c50 	movseq.w	ip, r0, lsr #1
    9a5e:	f150 0000 	adcs.w	r0, r0, #0
    9a62:	eb41 5104 	adc.w	r1, r1, r4, lsl #20
    9a66:	ea41 0105 	orr.w	r1, r1, r5
    9a6a:	bd30      	pop	{r4, r5, pc}
    9a6c:	ea5f 0c4c 	movs.w	ip, ip, lsl #1
    9a70:	4140      	adcs	r0, r0
    9a72:	eb41 0101 	adc.w	r1, r1, r1
    9a76:	3c01      	subs	r4, #1
    9a78:	bf28      	it	cs
    9a7a:	f5b1 1f80 	cmpcs.w	r1, #1048576	@ 0x100000
    9a7e:	d2e9      	bcs.n	9a54 <__adddf3+0x10c>
    9a80:	f091 0f00 	teq	r1, #0
    9a84:	bf04      	itt	eq
    9a86:	4601      	moveq	r1, r0
    9a88:	2000      	moveq	r0, #0
    9a8a:	fab1 f381 	clz	r3, r1
    9a8e:	bf08      	it	eq
    9a90:	3320      	addeq	r3, #32
    9a92:	f1a3 030b 	sub.w	r3, r3, #11
    9a96:	f1b3 0220 	subs.w	r2, r3, #32
    9a9a:	da0c      	bge.n	9ab6 <__adddf3+0x16e>
    9a9c:	320c      	adds	r2, #12
    9a9e:	dd08      	ble.n	9ab2 <__adddf3+0x16a>
    9aa0:	f102 0c14 	add.w	ip, r2, #20
    9aa4:	f1c2 020c 	rsb	r2, r2, #12
    9aa8:	fa01 f00c 	lsl.w	r0, r1, ip
    9aac:	fa21 f102 	lsr.w	r1, r1, r2
    9ab0:	e00c      	b.n	9acc <__adddf3+0x184>
    9ab2:	f102 0214 	add.w	r2, r2, #20
    9ab6:	bfd8      	it	le
    9ab8:	f1c2 0c20 	rsble	ip, r2, #32
    9abc:	fa01 f102 	lsl.w	r1, r1, r2
    9ac0:	fa20 fc0c 	lsr.w	ip, r0, ip
    9ac4:	bfdc      	itt	le
    9ac6:	ea41 010c 	orrle.w	r1, r1, ip
    9aca:	4090      	lslle	r0, r2
    9acc:	1ae4      	subs	r4, r4, r3
    9ace:	bfa2      	ittt	ge
    9ad0:	eb01 5104 	addge.w	r1, r1, r4, lsl #20
    9ad4:	4329      	orrge	r1, r5
    9ad6:	bd30      	popge	{r4, r5, pc}
    9ad8:	ea6f 0404 	mvn.w	r4, r4
    9adc:	3c1f      	subs	r4, #31
    9ade:	da1c      	bge.n	9b1a <__adddf3+0x1d2>
    9ae0:	340c      	adds	r4, #12
    9ae2:	dc0e      	bgt.n	9b02 <__adddf3+0x1ba>
    9ae4:	f104 0414 	add.w	r4, r4, #20
    9ae8:	f1c4 0220 	rsb	r2, r4, #32
    9aec:	fa20 f004 	lsr.w	r0, r0, r4
    9af0:	fa01 f302 	lsl.w	r3, r1, r2
    9af4:	ea40 0003 	orr.w	r0, r0, r3
    9af8:	fa21 f304 	lsr.w	r3, r1, r4
    9afc:	ea45 0103 	orr.w	r1, r5, r3
    9b00:	bd30      	pop	{r4, r5, pc}
    9b02:	f1c4 040c 	rsb	r4, r4, #12
    9b06:	f1c4 0220 	rsb	r2, r4, #32
    9b0a:	fa20 f002 	lsr.w	r0, r0, r2
    9b0e:	fa01 f304 	lsl.w	r3, r1, r4
    9b12:	ea40 0003 	orr.w	r0, r0, r3
    9b16:	4629      	mov	r1, r5
    9b18:	bd30      	pop	{r4, r5, pc}
    9b1a:	fa21 f004 	lsr.w	r0, r1, r4
    9b1e:	4629      	mov	r1, r5
    9b20:	bd30      	pop	{r4, r5, pc}
    9b22:	f094 0f00 	teq	r4, #0
    9b26:	f483 1380 	eor.w	r3, r3, #1048576	@ 0x100000
    9b2a:	bf06      	itte	eq
    9b2c:	f481 1180 	eoreq.w	r1, r1, #1048576	@ 0x100000
    9b30:	3401      	addeq	r4, #1
    9b32:	3d01      	subne	r5, #1
    9b34:	e74e      	b.n	99d4 <__adddf3+0x8c>
    9b36:	ea7f 5c64 	mvns.w	ip, r4, asr #21
    9b3a:	bf18      	it	ne
    9b3c:	ea7f 5c65 	mvnsne.w	ip, r5, asr #21
    9b40:	d029      	beq.n	9b96 <__adddf3+0x24e>
    9b42:	ea94 0f05 	teq	r4, r5
    9b46:	bf08      	it	eq
    9b48:	ea90 0f02 	teqeq	r0, r2
    9b4c:	d005      	beq.n	9b5a <__adddf3+0x212>
    9b4e:	ea54 0c00 	orrs.w	ip, r4, r0
    9b52:	bf04      	itt	eq
    9b54:	4619      	moveq	r1, r3
    9b56:	4610      	moveq	r0, r2
    9b58:	bd30      	pop	{r4, r5, pc}
    9b5a:	ea91 0f03 	teq	r1, r3
    9b5e:	bf1e      	ittt	ne
    9b60:	2100      	movne	r1, #0
    9b62:	2000      	movne	r0, #0
    9b64:	bd30      	popne	{r4, r5, pc}
    9b66:	ea5f 5c54 	movs.w	ip, r4, lsr #21
    9b6a:	d105      	bne.n	9b78 <__adddf3+0x230>
    9b6c:	0040      	lsls	r0, r0, #1
    9b6e:	4149      	adcs	r1, r1
    9b70:	bf28      	it	cs
    9b72:	f041 4100 	orrcs.w	r1, r1, #2147483648	@ 0x80000000
    9b76:	bd30      	pop	{r4, r5, pc}
    9b78:	f514 0480 	adds.w	r4, r4, #4194304	@ 0x400000
    9b7c:	bf3c      	itt	cc
    9b7e:	f501 1180 	addcc.w	r1, r1, #1048576	@ 0x100000
    9b82:	bd30      	popcc	{r4, r5, pc}
    9b84:	f001 4500 	and.w	r5, r1, #2147483648	@ 0x80000000
    9b88:	f045 41fe 	orr.w	r1, r5, #2130706432	@ 0x7f000000
    9b8c:	f441 0170 	orr.w	r1, r1, #15728640	@ 0xf00000
    9b90:	f04f 0000 	mov.w	r0, #0
    9b94:	bd30      	pop	{r4, r5, pc}
    9b96:	ea7f 5c64 	mvns.w	ip, r4, asr #21
    9b9a:	bf1a      	itte	ne
    9b9c:	4619      	movne	r1, r3
    9b9e:	4610      	movne	r0, r2
    9ba0:	ea7f 5c65 	mvnseq.w	ip, r5, asr #21
    9ba4:	bf1c      	itt	ne
    9ba6:	460b      	movne	r3, r1
    9ba8:	4602      	movne	r2, r0
    9baa:	ea50 3401 	orrs.w	r4, r0, r1, lsl #12
    9bae:	bf06      	itte	eq
    9bb0:	ea52 3503 	orrseq.w	r5, r2, r3, lsl #12
    9bb4:	ea91 0f03 	teqeq	r1, r3
    9bb8:	f441 2100 	orrne.w	r1, r1, #524288	@ 0x80000
    9bbc:	bd30      	pop	{r4, r5, pc}
    9bbe:	bf00      	nop

00009bc0 <__aeabi_ui2d>:
    9bc0:	f090 0f00 	teq	r0, #0
    9bc4:	bf04      	itt	eq
    9bc6:	2100      	moveq	r1, #0
    9bc8:	4770      	bxeq	lr
    9bca:	b530      	push	{r4, r5, lr}
    9bcc:	f44f 6480 	mov.w	r4, #1024	@ 0x400
    9bd0:	f104 0432 	add.w	r4, r4, #50	@ 0x32
    9bd4:	f04f 0500 	mov.w	r5, #0
    9bd8:	f04f 0100 	mov.w	r1, #0
    9bdc:	e750      	b.n	9a80 <__adddf3+0x138>
    9bde:	bf00      	nop

00009be0 <__aeabi_i2d>:
    9be0:	f090 0f00 	teq	r0, #0
    9be4:	bf04      	itt	eq
    9be6:	2100      	moveq	r1, #0
    9be8:	4770      	bxeq	lr
    9bea:	b530      	push	{r4, r5, lr}
    9bec:	f44f 6480 	mov.w	r4, #1024	@ 0x400
    9bf0:	f104 0432 	add.w	r4, r4, #50	@ 0x32
    9bf4:	f010 4500 	ands.w	r5, r0, #2147483648	@ 0x80000000
    9bf8:	bf48      	it	mi
    9bfa:	4240      	negmi	r0, r0
    9bfc:	f04f 0100 	mov.w	r1, #0
    9c00:	e73e      	b.n	9a80 <__adddf3+0x138>
    9c02:	bf00      	nop

00009c04 <__aeabi_f2d>:
    9c04:	0042      	lsls	r2, r0, #1
    9c06:	ea4f 01e2 	mov.w	r1, r2, asr #3
    9c0a:	ea4f 0131 	mov.w	r1, r1, rrx
    9c0e:	ea4f 7002 	mov.w	r0, r2, lsl #28
    9c12:	bf1f      	itttt	ne
    9c14:	f012 437f 	andsne.w	r3, r2, #4278190080	@ 0xff000000
    9c18:	f093 4f7f 	teqne	r3, #4278190080	@ 0xff000000
    9c1c:	f081 5160 	eorne.w	r1, r1, #939524096	@ 0x38000000
    9c20:	4770      	bxne	lr
    9c22:	f032 427f 	bics.w	r2, r2, #4278190080	@ 0xff000000
    9c26:	bf08      	it	eq
    9c28:	4770      	bxeq	lr
    9c2a:	f093 4f7f 	teq	r3, #4278190080	@ 0xff000000
    9c2e:	bf04      	itt	eq
    9c30:	f441 2100 	orreq.w	r1, r1, #524288	@ 0x80000
    9c34:	4770      	bxeq	lr
    9c36:	b530      	push	{r4, r5, lr}
    9c38:	f44f 7460 	mov.w	r4, #896	@ 0x380
    9c3c:	f001 4500 	and.w	r5, r1, #2147483648	@ 0x80000000
    9c40:	f021 4100 	bic.w	r1, r1, #2147483648	@ 0x80000000
    9c44:	e71c      	b.n	9a80 <__adddf3+0x138>
    9c46:	bf00      	nop

00009c48 <__aeabi_ul2d>:
    9c48:	ea50 0201 	orrs.w	r2, r0, r1
    9c4c:	bf08      	it	eq
    9c4e:	4770      	bxeq	lr
    9c50:	b530      	push	{r4, r5, lr}
    9c52:	f04f 0500 	mov.w	r5, #0
    9c56:	e00a      	b.n	9c6e <__aeabi_l2d+0x16>

00009c58 <__aeabi_l2d>:
    9c58:	ea50 0201 	orrs.w	r2, r0, r1
    9c5c:	bf08      	it	eq
    9c5e:	4770      	bxeq	lr
    9c60:	b530      	push	{r4, r5, lr}
    9c62:	f011 4500 	ands.w	r5, r1, #2147483648	@ 0x80000000
    9c66:	d502      	bpl.n	9c6e <__aeabi_l2d+0x16>
    9c68:	4240      	negs	r0, r0
    9c6a:	eb61 0141 	sbc.w	r1, r1, r1, lsl #1
    9c6e:	f44f 6480 	mov.w	r4, #1024	@ 0x400
    9c72:	f104 0432 	add.w	r4, r4, #50	@ 0x32
    9c76:	ea5f 5c91 	movs.w	ip, r1, lsr #22
    9c7a:	f43f aed8 	beq.w	9a2e <__adddf3+0xe6>
    9c7e:	f04f 0203 	mov.w	r2, #3
    9c82:	ea5f 0cdc 	movs.w	ip, ip, lsr #3
    9c86:	bf18      	it	ne
    9c88:	3203      	addne	r2, #3
    9c8a:	ea5f 0cdc 	movs.w	ip, ip, lsr #3
    9c8e:	bf18      	it	ne
    9c90:	3203      	addne	r2, #3
    9c92:	eb02 02dc 	add.w	r2, r2, ip, lsr #3
    9c96:	f1c2 0320 	rsb	r3, r2, #32
    9c9a:	fa00 fc03 	lsl.w	ip, r0, r3
    9c9e:	fa20 f002 	lsr.w	r0, r0, r2
    9ca2:	fa01 fe03 	lsl.w	lr, r1, r3
    9ca6:	ea40 000e 	orr.w	r0, r0, lr
    9caa:	fa21 f102 	lsr.w	r1, r1, r2
    9cae:	4414      	add	r4, r2
    9cb0:	e6bd      	b.n	9a2e <__adddf3+0xe6>
    9cb2:	bf00      	nop

00009cb4 <__aeabi_dmul>:
    9cb4:	b570      	push	{r4, r5, r6, lr}
    9cb6:	f04f 0cff 	mov.w	ip, #255	@ 0xff
    9cba:	f44c 6ce0 	orr.w	ip, ip, #1792	@ 0x700
    9cbe:	ea1c 5411 	ands.w	r4, ip, r1, lsr #20
    9cc2:	bf1d      	ittte	ne
    9cc4:	ea1c 5513 	andsne.w	r5, ip, r3, lsr #20
    9cc8:	ea94 0f0c 	teqne	r4, ip
    9ccc:	ea95 0f0c 	teqne	r5, ip
    9cd0:	f000 f8de 	bleq	9e90 <__aeabi_dmul+0x1dc>
    9cd4:	442c      	add	r4, r5
    9cd6:	ea81 0603 	eor.w	r6, r1, r3
    9cda:	ea21 514c 	bic.w	r1, r1, ip, lsl #21
    9cde:	ea23 534c 	bic.w	r3, r3, ip, lsl #21
    9ce2:	ea50 3501 	orrs.w	r5, r0, r1, lsl #12
    9ce6:	bf18      	it	ne
    9ce8:	ea52 3503 	orrsne.w	r5, r2, r3, lsl #12
    9cec:	f441 1180 	orr.w	r1, r1, #1048576	@ 0x100000
    9cf0:	f443 1380 	orr.w	r3, r3, #1048576	@ 0x100000
    9cf4:	d038      	beq.n	9d68 <__aeabi_dmul+0xb4>
    9cf6:	fba0 ce02 	umull	ip, lr, r0, r2
    9cfa:	f04f 0500 	mov.w	r5, #0
    9cfe:	fbe1 e502 	umlal	lr, r5, r1, r2
    9d02:	f006 4200 	and.w	r2, r6, #2147483648	@ 0x80000000
    9d06:	fbe0 e503 	umlal	lr, r5, r0, r3
    9d0a:	f04f 0600 	mov.w	r6, #0
    9d0e:	fbe1 5603 	umlal	r5, r6, r1, r3
    9d12:	f09c 0f00 	teq	ip, #0
    9d16:	bf18      	it	ne
    9d18:	f04e 0e01 	orrne.w	lr, lr, #1
    9d1c:	f1a4 04ff 	sub.w	r4, r4, #255	@ 0xff
    9d20:	f5b6 7f00 	cmp.w	r6, #512	@ 0x200
    9d24:	f564 7440 	sbc.w	r4, r4, #768	@ 0x300
    9d28:	d204      	bcs.n	9d34 <__aeabi_dmul+0x80>
    9d2a:	ea5f 0e4e 	movs.w	lr, lr, lsl #1
    9d2e:	416d      	adcs	r5, r5
    9d30:	eb46 0606 	adc.w	r6, r6, r6
    9d34:	ea42 21c6 	orr.w	r1, r2, r6, lsl #11
    9d38:	ea41 5155 	orr.w	r1, r1, r5, lsr #21
    9d3c:	ea4f 20c5 	mov.w	r0, r5, lsl #11
    9d40:	ea40 505e 	orr.w	r0, r0, lr, lsr #21
    9d44:	ea4f 2ece 	mov.w	lr, lr, lsl #11
    9d48:	f1b4 0cfd 	subs.w	ip, r4, #253	@ 0xfd
    9d4c:	bf88      	it	hi
    9d4e:	f5bc 6fe0 	cmphi.w	ip, #1792	@ 0x700
    9d52:	d81e      	bhi.n	9d92 <__aeabi_dmul+0xde>
    9d54:	f1be 4f00 	cmp.w	lr, #2147483648	@ 0x80000000
    9d58:	bf08      	it	eq
    9d5a:	ea5f 0e50 	movseq.w	lr, r0, lsr #1
    9d5e:	f150 0000 	adcs.w	r0, r0, #0
    9d62:	eb41 5104 	adc.w	r1, r1, r4, lsl #20
    9d66:	bd70      	pop	{r4, r5, r6, pc}
    9d68:	f006 4600 	and.w	r6, r6, #2147483648	@ 0x80000000
    9d6c:	ea46 0101 	orr.w	r1, r6, r1
    9d70:	ea40 0002 	orr.w	r0, r0, r2
    9d74:	ea81 0103 	eor.w	r1, r1, r3
    9d78:	ebb4 045c 	subs.w	r4, r4, ip, lsr #1
    9d7c:	bfc2      	ittt	gt
    9d7e:	ebd4 050c 	rsbsgt	r5, r4, ip
    9d82:	ea41 5104 	orrgt.w	r1, r1, r4, lsl #20
    9d86:	bd70      	popgt	{r4, r5, r6, pc}
    9d88:	f441 1180 	orr.w	r1, r1, #1048576	@ 0x100000
    9d8c:	f04f 0e00 	mov.w	lr, #0
    9d90:	3c01      	subs	r4, #1
    9d92:	f300 80ab 	bgt.w	9eec <__aeabi_dmul+0x238>
    9d96:	f114 0f36 	cmn.w	r4, #54	@ 0x36
    9d9a:	bfde      	ittt	le
    9d9c:	2000      	movle	r0, #0
    9d9e:	f001 4100 	andle.w	r1, r1, #2147483648	@ 0x80000000
    9da2:	bd70      	pople	{r4, r5, r6, pc}
    9da4:	f1c4 0400 	rsb	r4, r4, #0
    9da8:	3c20      	subs	r4, #32
    9daa:	da35      	bge.n	9e18 <__aeabi_dmul+0x164>
    9dac:	340c      	adds	r4, #12
    9dae:	dc1b      	bgt.n	9de8 <__aeabi_dmul+0x134>
    9db0:	f104 0414 	add.w	r4, r4, #20
    9db4:	f1c4 0520 	rsb	r5, r4, #32
    9db8:	fa00 f305 	lsl.w	r3, r0, r5
    9dbc:	fa20 f004 	lsr.w	r0, r0, r4
    9dc0:	fa01 f205 	lsl.w	r2, r1, r5
    9dc4:	ea40 0002 	orr.w	r0, r0, r2
    9dc8:	f001 4200 	and.w	r2, r1, #2147483648	@ 0x80000000
    9dcc:	f021 4100 	bic.w	r1, r1, #2147483648	@ 0x80000000
    9dd0:	eb10 70d3 	adds.w	r0, r0, r3, lsr #31
    9dd4:	fa21 f604 	lsr.w	r6, r1, r4
    9dd8:	eb42 0106 	adc.w	r1, r2, r6
    9ddc:	ea5e 0e43 	orrs.w	lr, lr, r3, lsl #1
    9de0:	bf08      	it	eq
    9de2:	ea20 70d3 	biceq.w	r0, r0, r3, lsr #31
    9de6:	bd70      	pop	{r4, r5, r6, pc}
    9de8:	f1c4 040c 	rsb	r4, r4, #12
    9dec:	f1c4 0520 	rsb	r5, r4, #32
    9df0:	fa00 f304 	lsl.w	r3, r0, r4
    9df4:	fa20 f005 	lsr.w	r0, r0, r5
    9df8:	fa01 f204 	lsl.w	r2, r1, r4
    9dfc:	ea40 0002 	orr.w	r0, r0, r2
    9e00:	f001 4100 	and.w	r1, r1, #2147483648	@ 0x80000000
    9e04:	eb10 70d3 	adds.w	r0, r0, r3, lsr #31
    9e08:	f141 0100 	adc.w	r1, r1, #0
    9e0c:	ea5e 0e43 	orrs.w	lr, lr, r3, lsl #1
    9e10:	bf08      	it	eq
    9e12:	ea20 70d3 	biceq.w	r0, r0, r3, lsr #31
    9e16:	bd70      	pop	{r4, r5, r6, pc}
    9e18:	f1c4 0520 	rsb	r5, r4, #32
    9e1c:	fa00 f205 	lsl.w	r2, r0, r5
    9e20:	ea4e 0e02 	orr.w	lr, lr, r2
    9e24:	fa20 f304 	lsr.w	r3, r0, r4
    9e28:	fa01 f205 	lsl.w	r2, r1, r5
    9e2c:	ea43 0302 	orr.w	r3, r3, r2
    9e30:	fa21 f004 	lsr.w	r0, r1, r4
    9e34:	f001 4100 	and.w	r1, r1, #2147483648	@ 0x80000000
    9e38:	fa21 f204 	lsr.w	r2, r1, r4
    9e3c:	ea20 0002 	bic.w	r0, r0, r2
    9e40:	eb00 70d3 	add.w	r0, r0, r3, lsr #31
    9e44:	ea5e 0e43 	orrs.w	lr, lr, r3, lsl #1
    9e48:	bf08      	it	eq
    9e4a:	ea20 70d3 	biceq.w	r0, r0, r3, lsr #31
    9e4e:	bd70      	pop	{r4, r5, r6, pc}
    9e50:	f094 0f00 	teq	r4, #0
    9e54:	d10f      	bne.n	9e76 <__aeabi_dmul+0x1c2>
    9e56:	f001 4600 	and.w	r6, r1, #2147483648	@ 0x80000000
    9e5a:	0040      	lsls	r0, r0, #1
    9e5c:	eb41 0101 	adc.w	r1, r1, r1
    9e60:	f411 1f80 	tst.w	r1, #1048576	@ 0x100000
    9e64:	bf08      	it	eq
    9e66:	3c01      	subeq	r4, #1
    9e68:	d0f7      	beq.n	9e5a <__aeabi_dmul+0x1a6>
    9e6a:	ea41 0106 	orr.w	r1, r1, r6
    9e6e:	f095 0f00 	teq	r5, #0
    9e72:	bf18      	it	ne
    9e74:	4770      	bxne	lr
    9e76:	f003 4600 	and.w	r6, r3, #2147483648	@ 0x80000000
    9e7a:	0052      	lsls	r2, r2, #1
    9e7c:	eb43 0303 	adc.w	r3, r3, r3
    9e80:	f413 1f80 	tst.w	r3, #1048576	@ 0x100000
    9e84:	bf08      	it	eq
    9e86:	3d01      	subeq	r5, #1
    9e88:	d0f7      	beq.n	9e7a <__aeabi_dmul+0x1c6>
    9e8a:	ea43 0306 	orr.w	r3, r3, r6
    9e8e:	4770      	bx	lr
    9e90:	ea94 0f0c 	teq	r4, ip
    9e94:	ea0c 5513 	and.w	r5, ip, r3, lsr #20
    9e98:	bf18      	it	ne
    9e9a:	ea95 0f0c 	teqne	r5, ip
    9e9e:	d00c      	beq.n	9eba <__aeabi_dmul+0x206>
    9ea0:	ea50 0641 	orrs.w	r6, r0, r1, lsl #1
    9ea4:	bf18      	it	ne
    9ea6:	ea52 0643 	orrsne.w	r6, r2, r3, lsl #1
    9eaa:	d1d1      	bne.n	9e50 <__aeabi_dmul+0x19c>
    9eac:	ea81 0103 	eor.w	r1, r1, r3
    9eb0:	f001 4100 	and.w	r1, r1, #2147483648	@ 0x80000000
    9eb4:	f04f 0000 	mov.w	r0, #0
    9eb8:	bd70      	pop	{r4, r5, r6, pc}
    9eba:	ea50 0641 	orrs.w	r6, r0, r1, lsl #1
    9ebe:	bf06      	itte	eq
    9ec0:	4610      	moveq	r0, r2
    9ec2:	4619      	moveq	r1, r3
    9ec4:	ea52 0643 	orrsne.w	r6, r2, r3, lsl #1
    9ec8:	d019      	beq.n	9efe <__aeabi_dmul+0x24a>
    9eca:	ea94 0f0c 	teq	r4, ip
    9ece:	d102      	bne.n	9ed6 <__aeabi_dmul+0x222>
    9ed0:	ea50 3601 	orrs.w	r6, r0, r1, lsl #12
    9ed4:	d113      	bne.n	9efe <__aeabi_dmul+0x24a>
    9ed6:	ea95 0f0c 	teq	r5, ip
    9eda:	d105      	bne.n	9ee8 <__aeabi_dmul+0x234>
    9edc:	ea52 3603 	orrs.w	r6, r2, r3, lsl #12
    9ee0:	bf1c      	itt	ne
    9ee2:	4610      	movne	r0, r2
    9ee4:	4619      	movne	r1, r3
    9ee6:	d10a      	bne.n	9efe <__aeabi_dmul+0x24a>
    9ee8:	ea81 0103 	eor.w	r1, r1, r3
    9eec:	f001 4100 	and.w	r1, r1, #2147483648	@ 0x80000000
    9ef0:	f041 41fe 	orr.w	r1, r1, #2130706432	@ 0x7f000000
    9ef4:	f441 0170 	orr.w	r1, r1, #15728640	@ 0xf00000
    9ef8:	f04f 0000 	mov.w	r0, #0
    9efc:	bd70      	pop	{r4, r5, r6, pc}
    9efe:	f041 41fe 	orr.w	r1, r1, #2130706432	@ 0x7f000000
    9f02:	f441 0178 	orr.w	r1, r1, #16252928	@ 0xf80000
    9f06:	bd70      	pop	{r4, r5, r6, pc}

00009f08 <__aeabi_ddiv>:
    9f08:	b570      	push	{r4, r5, r6, lr}
    9f0a:	f04f 0cff 	mov.w	ip, #255	@ 0xff
    9f0e:	f44c 6ce0 	orr.w	ip, ip, #1792	@ 0x700
    9f12:	ea1c 5411 	ands.w	r4, ip, r1, lsr #20
    9f16:	bf1d      	ittte	ne
    9f18:	ea1c 5513 	andsne.w	r5, ip, r3, lsr #20
    9f1c:	ea94 0f0c 	teqne	r4, ip
    9f20:	ea95 0f0c 	teqne	r5, ip
    9f24:	f000 f8a7 	bleq	a076 <__aeabi_ddiv+0x16e>
    9f28:	eba4 0405 	sub.w	r4, r4, r5
    9f2c:	ea81 0e03 	eor.w	lr, r1, r3
    9f30:	ea52 3503 	orrs.w	r5, r2, r3, lsl #12
    9f34:	ea4f 3101 	mov.w	r1, r1, lsl #12
    9f38:	f000 8088 	beq.w	a04c <__aeabi_ddiv+0x144>
    9f3c:	ea4f 3303 	mov.w	r3, r3, lsl #12
    9f40:	f04f 5580 	mov.w	r5, #268435456	@ 0x10000000
    9f44:	ea45 1313 	orr.w	r3, r5, r3, lsr #4
    9f48:	ea43 6312 	orr.w	r3, r3, r2, lsr #24
    9f4c:	ea4f 2202 	mov.w	r2, r2, lsl #8
    9f50:	ea45 1511 	orr.w	r5, r5, r1, lsr #4
    9f54:	ea45 6510 	orr.w	r5, r5, r0, lsr #24
    9f58:	ea4f 2600 	mov.w	r6, r0, lsl #8
    9f5c:	f00e 4100 	and.w	r1, lr, #2147483648	@ 0x80000000
    9f60:	429d      	cmp	r5, r3
    9f62:	bf08      	it	eq
    9f64:	4296      	cmpeq	r6, r2
    9f66:	f144 04fd 	adc.w	r4, r4, #253	@ 0xfd
    9f6a:	f504 7440 	add.w	r4, r4, #768	@ 0x300
    9f6e:	d202      	bcs.n	9f76 <__aeabi_ddiv+0x6e>
    9f70:	085b      	lsrs	r3, r3, #1
    9f72:	ea4f 0232 	mov.w	r2, r2, rrx
    9f76:	1ab6      	subs	r6, r6, r2
    9f78:	eb65 0503 	sbc.w	r5, r5, r3
    9f7c:	085b      	lsrs	r3, r3, #1
    9f7e:	ea4f 0232 	mov.w	r2, r2, rrx
    9f82:	f44f 1080 	mov.w	r0, #1048576	@ 0x100000
    9f86:	f44f 2c00 	mov.w	ip, #524288	@ 0x80000
    9f8a:	ebb6 0e02 	subs.w	lr, r6, r2
    9f8e:	eb75 0e03 	sbcs.w	lr, r5, r3
    9f92:	bf22      	ittt	cs
    9f94:	1ab6      	subcs	r6, r6, r2
    9f96:	4675      	movcs	r5, lr
    9f98:	ea40 000c 	orrcs.w	r0, r0, ip
    9f9c:	085b      	lsrs	r3, r3, #1
    9f9e:	ea4f 0232 	mov.w	r2, r2, rrx
    9fa2:	ebb6 0e02 	subs.w	lr, r6, r2
    9fa6:	eb75 0e03 	sbcs.w	lr, r5, r3
    9faa:	bf22      	ittt	cs
    9fac:	1ab6      	subcs	r6, r6, r2
    9fae:	4675      	movcs	r5, lr
    9fb0:	ea40 005c 	orrcs.w	r0, r0, ip, lsr #1
    9fb4:	085b      	lsrs	r3, r3, #1
    9fb6:	ea4f 0232 	mov.w	r2, r2, rrx
    9fba:	ebb6 0e02 	subs.w	lr, r6, r2
    9fbe:	eb75 0e03 	sbcs.w	lr, r5, r3
    9fc2:	bf22      	ittt	cs
    9fc4:	1ab6      	subcs	r6, r6, r2
    9fc6:	4675      	movcs	r5, lr
    9fc8:	ea40 009c 	orrcs.w	r0, r0, ip, lsr #2
    9fcc:	085b      	lsrs	r3, r3, #1
    9fce:	ea4f 0232 	mov.w	r2, r2, rrx
    9fd2:	ebb6 0e02 	subs.w	lr, r6, r2
    9fd6:	eb75 0e03 	sbcs.w	lr, r5, r3
    9fda:	bf22      	ittt	cs
    9fdc:	1ab6      	subcs	r6, r6, r2
    9fde:	4675      	movcs	r5, lr
    9fe0:	ea40 00dc 	orrcs.w	r0, r0, ip, lsr #3
    9fe4:	ea55 0e06 	orrs.w	lr, r5, r6
    9fe8:	d018      	beq.n	a01c <__aeabi_ddiv+0x114>
    9fea:	ea4f 1505 	mov.w	r5, r5, lsl #4
    9fee:	ea45 7516 	orr.w	r5, r5, r6, lsr #28
    9ff2:	ea4f 1606 	mov.w	r6, r6, lsl #4
    9ff6:	ea4f 03c3 	mov.w	r3, r3, lsl #3
    9ffa:	ea43 7352 	orr.w	r3, r3, r2, lsr #29
    9ffe:	ea4f 02c2 	mov.w	r2, r2, lsl #3
    a002:	ea5f 1c1c 	movs.w	ip, ip, lsr #4
    a006:	d1c0      	bne.n	9f8a <__aeabi_ddiv+0x82>
    a008:	f411 1f80 	tst.w	r1, #1048576	@ 0x100000
    a00c:	d10b      	bne.n	a026 <__aeabi_ddiv+0x11e>
    a00e:	ea41 0100 	orr.w	r1, r1, r0
    a012:	f04f 0000 	mov.w	r0, #0
    a016:	f04f 4c00 	mov.w	ip, #2147483648	@ 0x80000000
    a01a:	e7b6      	b.n	9f8a <__aeabi_ddiv+0x82>
    a01c:	f411 1f80 	tst.w	r1, #1048576	@ 0x100000
    a020:	bf04      	itt	eq
    a022:	4301      	orreq	r1, r0
    a024:	2000      	moveq	r0, #0
    a026:	f1b4 0cfd 	subs.w	ip, r4, #253	@ 0xfd
    a02a:	bf88      	it	hi
    a02c:	f5bc 6fe0 	cmphi.w	ip, #1792	@ 0x700
    a030:	f63f aeaf 	bhi.w	9d92 <__aeabi_dmul+0xde>
    a034:	ebb5 0c03 	subs.w	ip, r5, r3
    a038:	bf04      	itt	eq
    a03a:	ebb6 0c02 	subseq.w	ip, r6, r2
    a03e:	ea5f 0c50 	movseq.w	ip, r0, lsr #1
    a042:	f150 0000 	adcs.w	r0, r0, #0
    a046:	eb41 5104 	adc.w	r1, r1, r4, lsl #20
    a04a:	bd70      	pop	{r4, r5, r6, pc}
    a04c:	f00e 4e00 	and.w	lr, lr, #2147483648	@ 0x80000000
    a050:	ea4e 3111 	orr.w	r1, lr, r1, lsr #12
    a054:	eb14 045c 	adds.w	r4, r4, ip, lsr #1
    a058:	bfc2      	ittt	gt
    a05a:	ebd4 050c 	rsbsgt	r5, r4, ip
    a05e:	ea41 5104 	orrgt.w	r1, r1, r4, lsl #20
    a062:	bd70      	popgt	{r4, r5, r6, pc}
    a064:	f441 1180 	orr.w	r1, r1, #1048576	@ 0x100000
    a068:	f04f 0e00 	mov.w	lr, #0
    a06c:	3c01      	subs	r4, #1
    a06e:	e690      	b.n	9d92 <__aeabi_dmul+0xde>
    a070:	ea45 0e06 	orr.w	lr, r5, r6
    a074:	e68d      	b.n	9d92 <__aeabi_dmul+0xde>
    a076:	ea0c 5513 	and.w	r5, ip, r3, lsr #20
    a07a:	ea94 0f0c 	teq	r4, ip
    a07e:	bf08      	it	eq
    a080:	ea95 0f0c 	teqeq	r5, ip
    a084:	f43f af3b 	beq.w	9efe <__aeabi_dmul+0x24a>
    a088:	ea94 0f0c 	teq	r4, ip
    a08c:	d10a      	bne.n	a0a4 <__aeabi_ddiv+0x19c>
    a08e:	ea50 3401 	orrs.w	r4, r0, r1, lsl #12
    a092:	f47f af34 	bne.w	9efe <__aeabi_dmul+0x24a>
    a096:	ea95 0f0c 	teq	r5, ip
    a09a:	f47f af25 	bne.w	9ee8 <__aeabi_dmul+0x234>
    a09e:	4610      	mov	r0, r2
    a0a0:	4619      	mov	r1, r3
    a0a2:	e72c      	b.n	9efe <__aeabi_dmul+0x24a>
    a0a4:	ea95 0f0c 	teq	r5, ip
    a0a8:	d106      	bne.n	a0b8 <__aeabi_ddiv+0x1b0>
    a0aa:	ea52 3503 	orrs.w	r5, r2, r3, lsl #12
    a0ae:	f43f aefd 	beq.w	9eac <__aeabi_dmul+0x1f8>
    a0b2:	4610      	mov	r0, r2
    a0b4:	4619      	mov	r1, r3
    a0b6:	e722      	b.n	9efe <__aeabi_dmul+0x24a>
    a0b8:	ea50 0641 	orrs.w	r6, r0, r1, lsl #1
    a0bc:	bf18      	it	ne
    a0be:	ea52 0643 	orrsne.w	r6, r2, r3, lsl #1
    a0c2:	f47f aec5 	bne.w	9e50 <__aeabi_dmul+0x19c>
    a0c6:	ea50 0441 	orrs.w	r4, r0, r1, lsl #1
    a0ca:	f47f af0d 	bne.w	9ee8 <__aeabi_dmul+0x234>
    a0ce:	ea52 0543 	orrs.w	r5, r2, r3, lsl #1
    a0d2:	f47f aeeb 	bne.w	9eac <__aeabi_dmul+0x1f8>
    a0d6:	e712      	b.n	9efe <__aeabi_dmul+0x24a>

0000a0d8 <__gedf2>:
    a0d8:	f04f 3cff 	mov.w	ip, #4294967295
    a0dc:	e006      	b.n	a0ec <__cmpdf2+0x4>
    a0de:	bf00      	nop

0000a0e0 <__ledf2>:
    a0e0:	f04f 0c01 	mov.w	ip, #1
    a0e4:	e002      	b.n	a0ec <__cmpdf2+0x4>
    a0e6:	bf00      	nop

0000a0e8 <__cmpdf2>:
    a0e8:	f04f 0c01 	mov.w	ip, #1
    a0ec:	f84d cd04 	str.w	ip, [sp, #-4]!
    a0f0:	ea4f 0c41 	mov.w	ip, r1, lsl #1
    a0f4:	ea7f 5c6c 	mvns.w	ip, ip, asr #21
    a0f8:	ea4f 0c43 	mov.w	ip, r3, lsl #1
    a0fc:	bf18      	it	ne
    a0fe:	ea7f 5c6c 	mvnsne.w	ip, ip, asr #21
    a102:	d01b      	beq.n	a13c <__cmpdf2+0x54>
    a104:	b001      	add	sp, #4
    a106:	ea50 0c41 	orrs.w	ip, r0, r1, lsl #1
    a10a:	bf0c      	ite	eq
    a10c:	ea52 0c43 	orrseq.w	ip, r2, r3, lsl #1
    a110:	ea91 0f03 	teqne	r1, r3
    a114:	bf02      	ittt	eq
    a116:	ea90 0f02 	teqeq	r0, r2
    a11a:	2000      	moveq	r0, #0
    a11c:	4770      	bxeq	lr
    a11e:	f110 0f00 	cmn.w	r0, #0
    a122:	ea91 0f03 	teq	r1, r3
    a126:	bf58      	it	pl
    a128:	4299      	cmppl	r1, r3
    a12a:	bf08      	it	eq
    a12c:	4290      	cmpeq	r0, r2
    a12e:	bf2c      	ite	cs
    a130:	17d8      	asrcs	r0, r3, #31
    a132:	ea6f 70e3 	mvncc.w	r0, r3, asr #31
    a136:	f040 0001 	orr.w	r0, r0, #1
    a13a:	4770      	bx	lr
    a13c:	ea4f 0c41 	mov.w	ip, r1, lsl #1
    a140:	ea7f 5c6c 	mvns.w	ip, ip, asr #21
    a144:	d102      	bne.n	a14c <__cmpdf2+0x64>
    a146:	ea50 3c01 	orrs.w	ip, r0, r1, lsl #12
    a14a:	d107      	bne.n	a15c <__cmpdf2+0x74>
    a14c:	ea4f 0c43 	mov.w	ip, r3, lsl #1
    a150:	ea7f 5c6c 	mvns.w	ip, ip, asr #21
    a154:	d1d6      	bne.n	a104 <__cmpdf2+0x1c>
    a156:	ea52 3c03 	orrs.w	ip, r2, r3, lsl #12
    a15a:	d0d3      	beq.n	a104 <__cmpdf2+0x1c>
    a15c:	f85d 0b04 	ldr.w	r0, [sp], #4
    a160:	4770      	bx	lr
    a162:	bf00      	nop

0000a164 <__aeabi_cdrcmple>:
    a164:	4684      	mov	ip, r0
    a166:	4610      	mov	r0, r2
    a168:	4662      	mov	r2, ip
    a16a:	468c      	mov	ip, r1
    a16c:	4619      	mov	r1, r3
    a16e:	4663      	mov	r3, ip
    a170:	e000      	b.n	a174 <__aeabi_cdcmpeq>
    a172:	bf00      	nop

0000a174 <__aeabi_cdcmpeq>:
    a174:	b501      	push	{r0, lr}
    a176:	f7ff ffb7 	bl	a0e8 <__cmpdf2>
    a17a:	2800      	cmp	r0, #0
    a17c:	bf48      	it	mi
    a17e:	f110 0f00 	cmnmi.w	r0, #0
    a182:	bd01      	pop	{r0, pc}

0000a184 <__aeabi_dcmpeq>:
    a184:	f84d ed08 	str.w	lr, [sp, #-8]!
    a188:	f7ff fff4 	bl	a174 <__aeabi_cdcmpeq>
    a18c:	bf0c      	ite	eq
    a18e:	2001      	moveq	r0, #1
    a190:	2000      	movne	r0, #0
    a192:	f85d fb08 	ldr.w	pc, [sp], #8
    a196:	bf00      	nop

0000a198 <__aeabi_dcmplt>:
    a198:	f84d ed08 	str.w	lr, [sp, #-8]!
    a19c:	f7ff ffea 	bl	a174 <__aeabi_cdcmpeq>
    a1a0:	bf34      	ite	cc
    a1a2:	2001      	movcc	r0, #1
    a1a4:	2000      	movcs	r0, #0
    a1a6:	f85d fb08 	ldr.w	pc, [sp], #8
    a1aa:	bf00      	nop

0000a1ac <__aeabi_dcmple>:
    a1ac:	f84d ed08 	str.w	lr, [sp, #-8]!
    a1b0:	f7ff ffe0 	bl	a174 <__aeabi_cdcmpeq>
    a1b4:	bf94      	ite	ls
    a1b6:	2001      	movls	r0, #1
    a1b8:	2000      	movhi	r0, #0
    a1ba:	f85d fb08 	ldr.w	pc, [sp], #8
    a1be:	bf00      	nop

0000a1c0 <__aeabi_dcmpge>:
    a1c0:	f84d ed08 	str.w	lr, [sp, #-8]!
    a1c4:	f7ff ffce 	bl	a164 <__aeabi_cdrcmple>
    a1c8:	bf94      	ite	ls
    a1ca:	2001      	movls	r0, #1
    a1cc:	2000      	movhi	r0, #0
    a1ce:	f85d fb08 	ldr.w	pc, [sp], #8
    a1d2:	bf00      	nop

0000a1d4 <__aeabi_dcmpgt>:
    a1d4:	f84d ed08 	str.w	lr, [sp, #-8]!
    a1d8:	f7ff ffc4 	bl	a164 <__aeabi_cdrcmple>
    a1dc:	bf34      	ite	cc
    a1de:	2001      	movcc	r0, #1
    a1e0:	2000      	movcs	r0, #0
    a1e2:	f85d fb08 	ldr.w	pc, [sp], #8
    a1e6:	bf00      	nop

0000a1e8 <__aeabi_dcmpun>:
    a1e8:	ea4f 0c41 	mov.w	ip, r1, lsl #1
    a1ec:	ea7f 5c6c 	mvns.w	ip, ip, asr #21
    a1f0:	d102      	bne.n	a1f8 <__aeabi_dcmpun+0x10>
    a1f2:	ea50 3c01 	orrs.w	ip, r0, r1, lsl #12
    a1f6:	d10a      	bne.n	a20e <__aeabi_dcmpun+0x26>
    a1f8:	ea4f 0c43 	mov.w	ip, r3, lsl #1
    a1fc:	ea7f 5c6c 	mvns.w	ip, ip, asr #21
    a200:	d102      	bne.n	a208 <__aeabi_dcmpun+0x20>
    a202:	ea52 3c03 	orrs.w	ip, r2, r3, lsl #12
    a206:	d102      	bne.n	a20e <__aeabi_dcmpun+0x26>
    a208:	f04f 0000 	mov.w	r0, #0
    a20c:	4770      	bx	lr
    a20e:	f04f 0001 	mov.w	r0, #1
    a212:	4770      	bx	lr

0000a214 <__aeabi_d2iz>:
    a214:	ea4f 0241 	mov.w	r2, r1, lsl #1
    a218:	f512 1200 	adds.w	r2, r2, #2097152	@ 0x200000
    a21c:	d215      	bcs.n	a24a <__aeabi_d2iz+0x36>
    a21e:	d511      	bpl.n	a244 <__aeabi_d2iz+0x30>
    a220:	f46f 7378 	mvn.w	r3, #992	@ 0x3e0
    a224:	ebb3 5262 	subs.w	r2, r3, r2, asr #21
    a228:	d912      	bls.n	a250 <__aeabi_d2iz+0x3c>
    a22a:	ea4f 23c1 	mov.w	r3, r1, lsl #11
    a22e:	f043 4300 	orr.w	r3, r3, #2147483648	@ 0x80000000
    a232:	ea43 5350 	orr.w	r3, r3, r0, lsr #21
    a236:	f011 4f00 	tst.w	r1, #2147483648	@ 0x80000000
    a23a:	fa23 f002 	lsr.w	r0, r3, r2
    a23e:	bf18      	it	ne
    a240:	4240      	negne	r0, r0
    a242:	4770      	bx	lr
    a244:	f04f 0000 	mov.w	r0, #0
    a248:	4770      	bx	lr
    a24a:	ea50 3001 	orrs.w	r0, r0, r1, lsl #12
    a24e:	d105      	bne.n	a25c <__aeabi_d2iz+0x48>
    a250:	f011 4000 	ands.w	r0, r1, #2147483648	@ 0x80000000
    a254:	bf08      	it	eq
    a256:	f06f 4000 	mvneq.w	r0, #2147483648	@ 0x80000000
    a25a:	4770      	bx	lr
    a25c:	f04f 0000 	mov.w	r0, #0
    a260:	4770      	bx	lr
    a262:	bf00      	nop

0000a264 <_init>:
    a264:	b5f8      	push	{r3, r4, r5, r6, r7, lr}
    a266:	bf00      	nop
    a268:	bcf8      	pop	{r3, r4, r5, r6, r7}
    a26a:	bc08      	pop	{r3}
    a26c:	469e      	mov	lr, r3
    a26e:	4770      	bx	lr

0000a270 <_fini>:
    a270:	b5f8      	push	{r3, r4, r5, r6, r7, lr}
    a272:	bf00      	nop
    a274:	bcf8      	pop	{r3, r4, r5, r6, r7}
    a276:	bc08      	pop	{r3}
    a278:	469e      	mov	lr, r3
    a27a:	4770      	bx	lr
    a27c:	41544146 	.word	0x41544146
    a280:	5245204c 	.word	0x5245204c
    a284:	0a524f52 	.word	0x0a524f52
    a288:	00000000 	.word	0x00000000
    a28c:	343a3131 	.word	0x343a3131
    a290:	31303a33 	.word	0x31303a33
    a294:	00000000 	.word	0x00000000
    a298:	206e614a 	.word	0x206e614a
    a29c:	32203720 	.word	0x32203720
    a2a0:	00363230 	.word	0x00363230
    a2a4:	202c7325 	.word	0x202c7325
    a2a8:	000a7325 	.word	0x000a7325
    a2ac:	6c6c6548 	.word	0x6c6c6548
    a2b0:	6f57206f 	.word	0x6f57206f
    a2b4:	21646c72 	.word	0x21646c72
    a2b8:	0000000a 	.word	0x0000000a
    a2bc:	00464e49 	.word	0x00464e49
    a2c0:	00666e69 	.word	0x00666e69
    a2c4:	004e414e 	.word	0x004e414e
    a2c8:	006e616e 	.word	0x006e616e
    a2cc:	33323130 	.word	0x33323130
    a2d0:	37363534 	.word	0x37363534
    a2d4:	62613938 	.word	0x62613938
    a2d8:	66656463 	.word	0x66656463
    a2dc:	00000000 	.word	0x00000000
    a2e0:	33323130 	.word	0x33323130
    a2e4:	37363534 	.word	0x37363534
    a2e8:	42413938 	.word	0x42413938
    a2ec:	46454443 	.word	0x46454443
    a2f0:	00000000 	.word	0x00000000
    a2f4:	6c756e28 	.word	0x6c756e28
    a2f8:	0000296c 	.word	0x0000296c
    a2fc:	00000030 	.word	0x00000030
    a300:	0000002e 	.word	0x0000002e
    a304:	435f434c 	.word	0x435f434c
    a308:	414c4c4f 	.word	0x414c4c4f
    a30c:	00004554 	.word	0x00004554
    a310:	435f434c 	.word	0x435f434c
    a314:	45505954 	.word	0x45505954
    a318:	00000000 	.word	0x00000000
    a31c:	4d5f434c 	.word	0x4d5f434c
    a320:	54454e4f 	.word	0x54454e4f
    a324:	00595241 	.word	0x00595241
    a328:	4e5f434c 	.word	0x4e5f434c
    a32c:	52454d55 	.word	0x52454d55
    a330:	00004349 	.word	0x00004349
    a334:	545f434c 	.word	0x545f434c
    a338:	00454d49 	.word	0x00454d49
    a33c:	4d5f434c 	.word	0x4d5f434c
    a340:	41535345 	.word	0x41535345
    a344:	00534547 	.word	0x00534547
    a348:	69666e49 	.word	0x69666e49
    a34c:	7974696e 	.word	0x7974696e
    a350:	00000000 	.word	0x00000000
    a354:	004e614e 	.word	0x004e614e
    a358:	6c6c6142 	.word	0x6c6c6142
    a35c:	7320636f 	.word	0x7320636f
    a360:	65636375 	.word	0x65636375
    a364:	64656465 	.word	0x64656465
    a368:	00000000 	.word	0x00000000
    a36c:	7461642f 	.word	0x7461642f
    a370:	656a2f61 	.word	0x656a2f61
    a374:	6e696b6e 	.word	0x6e696b6e
    a378:	6f772f73 	.word	0x6f772f73
    a37c:	70736b72 	.word	0x70736b72
    a380:	2f656361 	.word	0x2f656361
    a384:	2d554e47 	.word	0x2d554e47
    a388:	6c6f6f74 	.word	0x6c6f6f74
    a38c:	69616863 	.word	0x69616863
    a390:	72612f6e 	.word	0x72612f6e
    a394:	33312d6d 	.word	0x33312d6d
    a398:	6372732f 	.word	0x6372732f
    a39c:	77656e2f 	.word	0x77656e2f
    a3a0:	2d62696c 	.word	0x2d62696c
    a3a4:	77677963 	.word	0x77677963
    a3a8:	6e2f6e69 	.word	0x6e2f6e69
    a3ac:	696c7765 	.word	0x696c7765
    a3b0:	696c2f62 	.word	0x696c2f62
    a3b4:	732f6362 	.word	0x732f6362
    a3b8:	696c6474 	.word	0x696c6474
    a3bc:	74642f62 	.word	0x74642f62
    a3c0:	632e616f 	.word	0x632e616f
    a3c4:	00000000 	.word	0x00000000
    a3c8:	7461642f 	.word	0x7461642f
    a3cc:	656a2f61 	.word	0x656a2f61
    a3d0:	6e696b6e 	.word	0x6e696b6e
    a3d4:	6f772f73 	.word	0x6f772f73
    a3d8:	70736b72 	.word	0x70736b72
    a3dc:	2f656361 	.word	0x2f656361
    a3e0:	2d554e47 	.word	0x2d554e47
    a3e4:	6c6f6f74 	.word	0x6c6f6f74
    a3e8:	69616863 	.word	0x69616863
    a3ec:	72612f6e 	.word	0x72612f6e
    a3f0:	33312d6d 	.word	0x33312d6d
    a3f4:	6372732f 	.word	0x6372732f
    a3f8:	77656e2f 	.word	0x77656e2f
    a3fc:	2d62696c 	.word	0x2d62696c
    a400:	77677963 	.word	0x77677963
    a404:	6e2f6e69 	.word	0x6e2f6e69
    a408:	696c7765 	.word	0x696c7765
    a40c:	696c2f62 	.word	0x696c2f62
    a410:	732f6362 	.word	0x732f6362
    a414:	696c6474 	.word	0x696c6474
    a418:	706d2f62 	.word	0x706d2f62
    a41c:	2e636572 	.word	0x2e636572
    a420:	00000063 	.word	0x00000063
    a424:	7566202c 	.word	0x7566202c
    a428:	6974636e 	.word	0x6974636e
    a42c:	203a6e6f 	.word	0x203a6e6f
    a430:	00000000 	.word	0x00000000
    a434:	65737361 	.word	0x65737361
    a438:	6f697472 	.word	0x6f697472
    a43c:	2522206e 	.word	0x2522206e
    a440:	66202273 	.word	0x66202273
    a444:	656c6961 	.word	0x656c6961
    a448:	66203a64 	.word	0x66203a64
    a44c:	20656c69 	.word	0x20656c69
    a450:	22732522 	.word	0x22732522
    a454:	696c202c 	.word	0x696c202c
    a458:	2520656e 	.word	0x2520656e
    a45c:	25732564 	.word	0x25732564
    a460:	00000a73 	.word	0x00000a73

0000a464 <zeroes.0>:
    a464:	30303030 30303030 30303030 30303030     0000000000000000

0000a474 <blanks.1>:
    a474:	20202020 20202020 20202020 20202020                     

0000a484 <p05.0>:
    a484:	00000005 00000019 0000007d              ........}...

0000a490 <__mprec_bigtens>:
    a490:	37e08000 4341c379 b5056e17 4693b8b5     ...7y.AC.n.....F
    a4a0:	e93ff9f5 4d384f03 f9301d32 5a827748     ..?..O8M2.0.Hw.Z
    a4b0:	7f73bf3c 75154fdd                       <.s..O.u

0000a4b8 <__mprec_tens>:
    a4b8:	00000000 3ff00000 00000000 40240000     .......?......$@
    a4c8:	00000000 40590000 00000000 408f4000     ......Y@.....@.@
    a4d8:	00000000 40c38800 00000000 40f86a00     .......@.....j.@
    a4e8:	00000000 412e8480 00000000 416312d0     .......A......cA
    a4f8:	00000000 4197d784 00000000 41cdcd65     .......A....e..A
    a508:	20000000 4202a05f e8000000 42374876     ... _..B....vH7B
    a518:	a2000000 426d1a94 e5400000 42a2309c     ......mB..@..0.B
    a528:	1e900000 42d6bcc4 26340000 430c6bf5     .......B..4&.k.C
    a538:	37e08000 4341c379 85d8a000 43763457     ...7y.AC....W4vC
    a548:	674ec800 43abc16d 60913d00 43e158e4     ..Ngm..C.=.`.X.C
    a558:	78b58c40 4415af1d d6e2ef50 444b1ae4     @..x...DP.....KD
    a568:	064dd592 4480f0cf c7e14af6 44b52d02     ..M....D.J...-.D
    a578:	79d99db4 44ea7843                       ...yCx.D

0000a580 <_ctype_>:
    a580:	20202000 20202020 28282020 20282828     .         ((((( 
    a590:	20202020 20202020 20202020 20202020                     
    a5a0:	10108820 10101010 10101010 10101010      ...............
    a5b0:	04040410 04040404 10040404 10101010     ................
    a5c0:	41411010 41414141 01010101 01010101     ..AAAAAA........
    a5d0:	01010101 01010101 01010101 10101010     ................
    a5e0:	42421010 42424242 02020202 02020202     ..BBBBBB........
    a5f0:	02020202 02020202 02020202 10101010     ................
    a600:	00000020 00000000 00000000 00000000      ...............
	...

0000a684 <zeroes.0>:
    a684:	30303030 30303030 30303030 30303030     0000000000000000

0000a694 <blanks.1>:
    a694:	20202020 20202020 20202020 20202020                     

0000a6a4 <__EH_FRAME_BEGIN__>:
    a6a4:	00000000 00000010 00000000 00527a01     .............zR.
    a6b4:	010e7c02 000d0c1b 00000038 00000018     .|......8.......
    a6c4:	ffffbb4c 0000009e 100e5100 03850484     L........Q......
    a6d4:	01870286 c5c6c75b 4c000ec4 0a0b420a     ....[......L.B..
    a6e4:	100e0b42 03850484 01870286 c5c6c751     B...........Q...
    a6f4:	00000ec4 00000010 00000000 00527a01     .............zR.
    a704:	010e7c02 000d0c1b 0000001c 00000018     .|..............
    a714:	ffffbbac 000000d8 080e4100 02840185     .........A......
    a724:	4a0a4902 0b41c4c5 00000010 00000000     .I.J..A.........
    a734:	00527a01 010e7c02 000d0c1b 00000014     .zR..|..........
    a744:	00000018 ffffd6d8 00000134 0a710200     ........4.....q.
    a754:	00000b43                                C...
